///////////////////////////////////////////////////////////////////////////////
//                                                                            /
// IAR C/C++ Compiler V8.10.3.10338/W32 for 8051        26/Feb/2019  19:43:53 /
// Copyright 2004-2011 IAR Systems AB.                                        /
//                                                                            /
//    Core               =  plain                                             /
//    Code model         =  banked                                            /
//    Data model         =  large                                             /
//    Calling convention =  xdata reentrant                                   /
//    Constant location  =  data_rom                                          /
//    Dptr setup         =  1,16                                              /
//    Source file        =  D:\ZigBee\KJXY-ZigBee\useful_code\ZigBee-Ext\poin /
//                          t2point-bind\Projects\zstack\Samples\SampleApp\So /
//                          urce\SampleApp-EndDevice.c                        /
//    Command line       =  -f D:\ZigBee\KJXY-ZigBee\useful_code\ZigBee-Ext\p /
//                          oint2point-bind\Projects\zstack\Samples\SampleApp /
//                          \CC2530DB\..\..\..\Tools\CC2530DB\f8wEndev.cfg    /
//                          (-DCPU32MHZ -DROOT=__near_func -DBLINK_LEDS) -f   /
//                          D:\ZigBee\KJXY-ZigBee\useful_code\ZigBee-Ext\poin /
//                          t2point-bind\Projects\zstack\Samples\SampleApp\CC /
//                          2530DB\..\..\..\Tools\CC2530DB\f8wConfig.cfg      /
//                          (-DSECURE=0 -DZG_SECURE_DYNAMIC=0 -DREFLECTOR     /
//                          -DDEFAULT_CHANLIST=0x00000800                     /
//                          -DZDAPP_CONFIG_PAN_ID=0xFF11                      /
//                          -DNWK_START_DELAY=100 -DEXTENDED_JOINING_RANDOM_M /
//                          ASK=0x007F -DBEACON_REQUEST_DELAY=100             /
//                          -DBEACON_REQ_DELAY_MASK=0x00FF                    /
//                          -DROUTE_EXPIRY_TIME=30 -DAPSC_ACK_WAIT_DURATION_P /
//                          OLLED=3000 -DNWK_INDIRECT_MSG_TIMEOUT=7           /
//                          -DMAX_RREQ_ENTRIES=8 -DAPSC_MAX_FRAME_RETRIES=3   /
//                          -DNWK_MAX_DATA_RETRIES=2                          /
//                          -DMAX_POLL_FAILURE_RETRIES=2 -DMAX_BCAST=9        /
//                          -DAPS_MAX_GROUPS=16 -DMAX_RTG_ENTRIES=40          /
//                          -DNWK_MAX_BINDING_ENTRIES=4                       /
//                          -DMAX_BINDING_CLUSTER_IDS=4                       /
//                          "-DDEFAULT_KEY={0x01, 0x03, 0x05, 0x07, 0x09,     /
//                          0x0B, 0x0D, 0x0F, 0x00, 0x02, 0x04, 0x06, 0x08,   /
//                          0x0A, 0x0C, 0x0D}" -DMAC_MAX_FRAME_SIZE=116       /
//                          "-DCONST=const __code" -DGENERIC=__generic        /
//                          -DRFD_RCVC_ALWAYS_ON=FALSE -DPOLL_RATE=1000       /
//                          -DQUEUED_POLL_RATE=100 -DRESPONSE_POLL_RATE=100)  /
//                          -DREJOIN_POLL_RATE=440 D:\ZigBee\KJXY-ZigBee\usef /
//                          ul_code\ZigBee-Ext\point2point-bind\Projects\zsta /
//                          ck\Samples\SampleApp\Source\SampleApp-EndDevice.c /
//                           -D NWK_AUTO_POLL -D ZTOOL_P1 -D MT_SYS_FUNC -D   /
//                          MT_ZDO_FUNC -D LCD_SUPPORTED=DEBUG -lC            /
//                          D:\ZigBee\KJXY-ZigBee\useful_code\ZigBee-Ext\poin /
//                          t2point-bind\Projects\zstack\Samples\SampleApp\CC /
//                          2530DB\EndDeviceEB\List\ -lA                      /
//                          D:\ZigBee\KJXY-ZigBee\useful_code\ZigBee-Ext\poin /
//                          t2point-bind\Projects\zstack\Samples\SampleApp\CC /
//                          2530DB\EndDeviceEB\List\ --diag_suppress          /
//                          Pe001,Pa010 -o D:\ZigBee\KJXY-ZigBee\useful_code\ /
//                          ZigBee-Ext\point2point-bind\Projects\zstack\Sampl /
//                          es\SampleApp\CC2530DB\EndDeviceEB\Obj\ -e         /
//                          --no_unroll --no_inline --no_tbaa --debug         /
//                          --core=plain --dptr=16,1 --data_model=large       /
//                          --code_model=banked --calling_convention=xdata_re /
//                          entrant --place_constants=data_rom                /
//                          --nr_virtual_regs 16 -I                           /
//                          D:\ZigBee\KJXY-ZigBee\useful_code\ZigBee-Ext\poin /
//                          t2point-bind\Projects\zstack\Samples\SampleApp\CC /
//                          2530DB\ -I D:\ZigBee\KJXY-ZigBee\useful_code\ZigB /
//                          ee-Ext\point2point-bind\Projects\zstack\Samples\S /
//                          ampleApp\CC2530DB\..\SOURCE\ -I                   /
//                          D:\ZigBee\KJXY-ZigBee\useful_code\ZigBee-Ext\poin /
//                          t2point-bind\Projects\zstack\Samples\SampleApp\CC /
//                          2530DB\..\..\..\ZMAIN\TI2530DB\ -I                /
//                          D:\ZigBee\KJXY-ZigBee\useful_code\ZigBee-Ext\poin /
//                          t2point-bind\Projects\zstack\Samples\SampleApp\CC /
//                          2530DB\..\..\..\..\..\COMPONENTS\MT\ -I           /
//                          D:\ZigBee\KJXY-ZigBee\useful_code\ZigBee-Ext\poin /
//                          t2point-bind\Projects\zstack\Samples\SampleApp\CC /
//                          2530DB\..\..\..\..\..\COMPONENTS\HAL\INCLUDE\ -I  /
//                          D:\ZigBee\KJXY-ZigBee\useful_code\ZigBee-Ext\poin /
//                          t2point-bind\Projects\zstack\Samples\SampleApp\CC /
//                          2530DB\..\..\..\..\..\COMPONENTS\HAL\TARGET\CC253 /
//                          0EB\ -I D:\ZigBee\KJXY-ZigBee\useful_code\ZigBee- /
//                          Ext\point2point-bind\Projects\zstack\Samples\Samp /
//                          leApp\CC2530DB\..\..\..\..\..\COMPONENTS\OSAL\MCU /
//                          \CCSOC\ -I D:\ZigBee\KJXY-ZigBee\useful_code\ZigB /
//                          ee-Ext\point2point-bind\Projects\zstack\Samples\S /
//                          ampleApp\CC2530DB\..\..\..\..\..\COMPONENTS\OSAL\ /
//                          INCLUDE\ -I D:\ZigBee\KJXY-ZigBee\useful_code\Zig /
//                          Bee-Ext\point2point-bind\Projects\zstack\Samples\ /
//                          SampleApp\CC2530DB\..\..\..\..\..\COMPONENTS\STAC /
//                          K\AF\ -I D:\ZigBee\KJXY-ZigBee\useful_code\ZigBee /
//                          -Ext\point2point-bind\Projects\zstack\Samples\Sam /
//                          pleApp\CC2530DB\..\..\..\..\..\COMPONENTS\STACK\N /
//                          WK\ -I D:\ZigBee\KJXY-ZigBee\useful_code\ZigBee-E /
//                          xt\point2point-bind\Projects\zstack\Samples\Sampl /
//                          eApp\CC2530DB\..\..\..\..\..\COMPONENTS\STACK\SEC /
//                          \ -I D:\ZigBee\KJXY-ZigBee\useful_code\ZigBee-Ext /
//                          \point2point-bind\Projects\zstack\Samples\SampleA /
//                          pp\CC2530DB\..\..\..\..\..\COMPONENTS\STACK\SAPI\ /
//                           -I D:\ZigBee\KJXY-ZigBee\useful_code\ZigBee-Ext\ /
//                          point2point-bind\Projects\zstack\Samples\SampleAp /
//                          p\CC2530DB\..\..\..\..\..\COMPONENTS\STACK\SYS\   /
//                          -I D:\ZigBee\KJXY-ZigBee\useful_code\ZigBee-Ext\p /
//                          oint2point-bind\Projects\zstack\Samples\SampleApp /
//                          \CC2530DB\..\..\..\..\..\COMPONENTS\STACK\ZDO\    /
//                          -I D:\ZigBee\KJXY-ZigBee\useful_code\ZigBee-Ext\p /
//                          oint2point-bind\Projects\zstack\Samples\SampleApp /
//                          \CC2530DB\..\..\..\..\..\COMPONENTS\ZMAC\F8W\ -I  /
//                          D:\ZigBee\KJXY-ZigBee\useful_code\ZigBee-Ext\poin /
//                          t2point-bind\Projects\zstack\Samples\SampleApp\CC /
//                          2530DB\..\..\..\..\..\COMPONENTS\ZMAC\ -I         /
//                          D:\ZigBee\KJXY-ZigBee\useful_code\ZigBee-Ext\poin /
//                          t2point-bind\Projects\zstack\Samples\SampleApp\CC /
//                          2530DB\..\..\..\..\..\COMPONENTS\SERVICES\SADDR\  /
//                          -I D:\ZigBee\KJXY-ZigBee\useful_code\ZigBee-Ext\p /
//                          oint2point-bind\Projects\zstack\Samples\SampleApp /
//                          \CC2530DB\..\..\..\..\..\COMPONENTS\SERVICES\SDAT /
//                          A\ -I D:\ZigBee\KJXY-ZigBee\useful_code\ZigBee-Ex /
//                          t\point2point-bind\Projects\zstack\Samples\Sample /
//                          App\CC2530DB\..\..\..\..\..\COMPONENTS\MAC\INCLUD /
//                          E\ -I D:\ZigBee\KJXY-ZigBee\useful_code\ZigBee-Ex /
//                          t\point2point-bind\Projects\zstack\Samples\Sample /
//                          App\CC2530DB\..\..\..\..\..\COMPONENTS\MAC\HIGH_L /
//                          EVEL\ -I D:\ZigBee\KJXY-ZigBee\useful_code\ZigBee /
//                          -Ext\point2point-bind\Projects\zstack\Samples\Sam /
//                          pleApp\CC2530DB\..\..\..\..\..\COMPONENTS\MAC\LOW /
//                          _LEVEL\srf04\ -I D:\ZigBee\KJXY-ZigBee\useful_cod /
//                          e\ZigBee-Ext\point2point-bind\Projects\zstack\Sam /
//                          ples\SampleApp\CC2530DB\..\..\..\..\..\COMPONENTS /
//                          \MAC\LOW_LEVEL\srf04\SINGLE_CHIP\ -I              /
//                          D:\ZigBee\KJXY-ZigBee\useful_code\ZigBee-Ext\poin /
//                          t2point-bind\Projects\zstack\Samples\SampleApp\CC /
//                          2530DB\..\..\..\..\..\COMPONENTS\HARDWARE\ -Om    /
//    List file          =  D:\ZigBee\KJXY-ZigBee\useful_code\ZigBee-Ext\poin /
//                          t2point-bind\Projects\zstack\Samples\SampleApp\CC /
//                          2530DB\EndDeviceEB\List\SampleApp-EndDevice.s51   /
//                                                                            /
//                                                                            /
///////////////////////////////////////////////////////////////////////////////

        NAME `SampleApp-EndDevice`

        RTMODEL "__SystemLibrary", "CLib"
        RTMODEL "__calling_convention", "xdata_reentrant"
        RTMODEL "__code_model", "banked"
        RTMODEL "__core", "plain"
        RTMODEL "__data_model", "large"
        RTMODEL "__dptr_size", "16"
        RTMODEL "__extended_stack", "disabled"
        RTMODEL "__location_for_constants", "data"
        RTMODEL "__number_of_dptrs", "1"
        RTMODEL "__rt_version", "1"

        RSEG DOVERLAY:DATA:NOROOT(0)
        RSEG IOVERLAY:IDATA:NOROOT(0)
        RSEG ISTACK:IDATA:NOROOT(0)
        RSEG PSTACK:XDATA:NOROOT(0)
        RSEG XSTACK:XDATA:NOROOT(0)

        EXTERN ?BANKED_ENTER_XDATA
        EXTERN ?BANKED_LEAVE_XDATA
        EXTERN ?BDISPATCH
        EXTERN ?BRET
        EXTERN ?DEALLOC_XSTACK8
        EXTERN ?PUSH_XSTACK_I_TWO
        EXTERN ?US_SWITCH_SPARSE
        EXTERN ?V0
        EXTERN __INIT_XDATA_I
        EXTERN __INIT_XDATA_Z

        PUBLIC ??PointToPoint_SendTemperature?relay
        FUNCTION ??PointToPoint_SendTemperature?relay,0203H
        PUBLIC ??SampleApp_Init?relay
        FUNCTION ??SampleApp_Init?relay,0203H
        PUBLIC ??SampleApp_MessageMSGCB?relay
        FUNCTION ??SampleApp_MessageMSGCB?relay,0203H
        PUBLIC ??SampleApp_ProcessEvent?relay
        FUNCTION ??SampleApp_ProcessEvent?relay,0203H
        PUBLIC ??osalInitTasks?relay
        FUNCTION ??osalInitTasks?relay,0203H
        PUBLIC DisplaySw
        PUBLIC EndDevice_InClusterList
        PUBLIC EndDevice_SimpleDesc
        PUBLIC EndDevice_epDesc
        PUBLIC PointToPoint_SendTemperature
        FUNCTION PointToPoint_SendTemperature,0203H
        ARGFRAME XSTACK, 0, STACK
        PUBLIC Point_To_Point_DstAddr
        PUBLIC SampleAppFlashCounter
        PUBLIC SampleAppPeriodicCounter
        PUBLIC SampleApp_Flash_DstAddr
        PUBLIC SampleApp_Group
        PUBLIC SampleApp_Init
        FUNCTION SampleApp_Init,021203H
        ARGFRAME XSTACK, 0, STACK
        ARGFRAME IOVERLAY, 0, STATIC
        ARGFRAME DOVERLAY, 0, STATIC
        LOCFRAME XSTACK, 9, STACK
        PUBLIC SampleApp_MessageMSGCB
        FUNCTION SampleApp_MessageMSGCB,0a1203H
        ARGFRAME XSTACK, 12, STACK
        ARGFRAME IOVERLAY, 0, STATIC
        ARGFRAME DOVERLAY, 0, STATIC
        LOCFRAME XSTACK, 10, STACK
        PUBLIC SampleApp_NwkState
        PUBLIC SampleApp_Periodic_DstAddr
        PUBLIC SampleApp_ProcessEvent
        FUNCTION SampleApp_ProcessEvent,021603H
        ARGFRAME XSTACK, 0, STACK
        LOCFRAME XSTACK, 14, STACK
        PUBLIC SampleApp_TaskID
        PUBLIC SampleApp_TransID
        PUBLIC SendTemperatureIndicate
        PUBLIC WiFiSendBuf
        PUBLIC _u16temp
        PUBLIC osalInitTasks
        FUNCTION osalInitTasks,021203H
        ARGFRAME XSTACK, 0, STACK
        LOCFRAME ISTACK, 2, STACK
        PUBLIC tasksArr
        PUBLIC tasksCnt
        PUBLIC tasksEvents
        PUBLIC test
        
        CFI Names cfiNames0
        CFI StackFrame CFA_SP SP IDATA
        CFI StackFrame CFA_PSP16 PSP16 XDATA
        CFI StackFrame CFA_XSP16 XSP16 XDATA
        CFI StaticOverlayFrame CFA_IOVERLAY IOVERLAY
        CFI StaticOverlayFrame CFA_DOVERLAY DOVERLAY
        CFI Resource `PSW.CY`:1, `B.BR0`:1, `B.BR1`:1, `B.BR2`:1, `B.BR3`:1
        CFI Resource `B.BR4`:1, `B.BR5`:1, `B.BR6`:1, `B.BR7`:1, `VB.BR8`:1
        CFI Resource `VB.BR9`:1, `VB.BR10`:1, `VB.BR11`:1, `VB.BR12`:1
        CFI Resource `VB.BR13`:1, `VB.BR14`:1, `VB.BR15`:1, VB:8, B:8, A:8
        CFI Resource PSW:8, DPL0:8, DPH0:8, R0:8, R1:8, R2:8, R3:8, R4:8, R5:8
        CFI Resource R6:8, R7:8, V0:8, V1:8, V2:8, V3:8, V4:8, V5:8, V6:8, V7:8
        CFI Resource V8:8, V9:8, V10:8, V11:8, V12:8, V13:8, V14:8, V15:8, SP:8
        CFI Resource PSPH:8, PSPL:8, PSP16:16, XSPH:8, XSPL:8, XSP16:16
        CFI VirtualResource ?RET:24
        CFI Resource ?BRET_EXT:8
        CFI VirtualResource ?RET_HIGH:8, ?RET_LOW:8
        CFI ResourceParts PSP16 PSPH, PSPL
        CFI ResourceParts XSP16 XSPH, XSPL
        CFI ResourceParts ?RET ?BRET_EXT, ?RET_HIGH, ?RET_LOW
        CFI EndNames cfiNames0
        
        CFI Common cfiCommon0 Using cfiNames0
        CFI CodeAlign 1
        CFI DataAlign -1
        CFI ReturnAddress ?RET CODE
        CFI CFA_DOVERLAY Used
        CFI CFA_IOVERLAY Used
        CFI CFA_SP SP+-3
        CFI CFA_PSP16 PSP16+0
        CFI CFA_XSP16 XSP16+0
        CFI `PSW.CY` SameValue
        CFI `B.BR0` SameValue
        CFI `B.BR1` SameValue
        CFI `B.BR2` SameValue
        CFI `B.BR3` SameValue
        CFI `B.BR4` SameValue
        CFI `B.BR5` SameValue
        CFI `B.BR6` SameValue
        CFI `B.BR7` SameValue
        CFI `VB.BR8` SameValue
        CFI `VB.BR9` SameValue
        CFI `VB.BR10` SameValue
        CFI `VB.BR11` SameValue
        CFI `VB.BR12` SameValue
        CFI `VB.BR13` SameValue
        CFI `VB.BR14` SameValue
        CFI `VB.BR15` SameValue
        CFI VB SameValue
        CFI B Undefined
        CFI A Undefined
        CFI PSW SameValue
        CFI DPL0 SameValue
        CFI DPH0 SameValue
        CFI R0 Undefined
        CFI R1 Undefined
        CFI R2 Undefined
        CFI R3 Undefined
        CFI R4 Undefined
        CFI R5 Undefined
        CFI R6 SameValue
        CFI R7 SameValue
        CFI V0 SameValue
        CFI V1 SameValue
        CFI V2 SameValue
        CFI V3 SameValue
        CFI V4 SameValue
        CFI V5 SameValue
        CFI V6 SameValue
        CFI V7 SameValue
        CFI V8 SameValue
        CFI V9 SameValue
        CFI V10 SameValue
        CFI V11 SameValue
        CFI V12 SameValue
        CFI V13 SameValue
        CFI V14 SameValue
        CFI V15 SameValue
        CFI PSPH Undefined
        CFI PSPL Undefined
        CFI XSPH Undefined
        CFI XSPL Undefined
        CFI ?RET Concat
        CFI ?BRET_EXT Frame(CFA_SP, 3)
        CFI ?RET_HIGH Frame(CFA_SP, 2)
        CFI ?RET_LOW Frame(CFA_SP, 1)
        CFI EndCommon cfiCommon0
        
osal_mem_alloc      SYMBOL "osal_mem_alloc"
osal_memset         SYMBOL "osal_memset"
macTaskInit         SYMBOL "macTaskInit"
nwk_init            SYMBOL "nwk_init"
Hal_Init            SYMBOL "Hal_Init"
APS_Init            SYMBOL "APS_Init"
ZDApp_Init          SYMBOL "ZDApp_Init"
printf              SYMBOL "printf"
OLED_P8x16Str       SYMBOL "OLED_P8x16Str"
afRegister          SYMBOL "afRegister"
osal_msg_receive    SYMBOL "osal_msg_receive"
osal_msg_deallocate SYMBOL "osal_msg_deallocate"
ResponeBind         SYMBOL "ResponeBind"
FanOff              SYMBOL "FanOff"
FanOn               SYMBOL "FanOn"
??APS_Init?relay    SYMBOL "?relay", APS_Init
`?<Name APS_event_loop 16>` SYMBOL "APS_event_loop"
??APS_event_loop?relay SYMBOL "?relay", `?<Name APS_event_loop 16>`
??FanOff?relay      SYMBOL "?relay", FanOff
??FanOn?relay       SYMBOL "?relay", FanOn
??Hal_Init?relay    SYMBOL "?relay", Hal_Init
`?<Name Hal_ProcessEvent 21>` SYMBOL "Hal_ProcessEvent"
??Hal_ProcessEvent?relay SYMBOL "?relay", `?<Name Hal_ProcessEvent 21>`
??OLED_P8x16Str?relay SYMBOL "?relay", OLED_P8x16Str
??ResponeBind?relay SYMBOL "?relay", ResponeBind
??ZDApp_Init?relay  SYMBOL "?relay", ZDApp_Init
`?<Name ZDApp_event_loop 26>` SYMBOL "ZDApp_event_loop"
??ZDApp_event_loop?relay SYMBOL "?relay", `?<Name ZDApp_event_loop 26>`
??afRegister?relay  SYMBOL "?relay", afRegister
`?<Name macEventLoop 29>` SYMBOL "macEventLoop"
??macEventLoop?relay SYMBOL "?relay", `?<Name macEventLoop 29>`
??macTaskInit?relay SYMBOL "?relay", macTaskInit
`?<Name nwk_event_loop 32>` SYMBOL "nwk_event_loop"
??nwk_event_loop?relay SYMBOL "?relay", `?<Name nwk_event_loop 32>`
??nwk_init?relay    SYMBOL "?relay", nwk_init
??osal_mem_alloc?relay SYMBOL "?relay", osal_mem_alloc
??osal_memset?relay SYMBOL "?relay", osal_memset
??osal_msg_deallocate?relay SYMBOL "?relay", osal_msg_deallocate
??osal_msg_receive?relay SYMBOL "?relay", osal_msg_receive
??printf?relay      SYMBOL "?relay", printf
PointToPoint_SendTemperature SYMBOL "PointToPoint_SendTemperature"
??PointToPoint_SendTemperature?relay SYMBOL "?relay", PointToPoint_SendTemperature
SampleApp_Init      SYMBOL "SampleApp_Init"
??SampleApp_Init?relay SYMBOL "?relay", SampleApp_Init
SampleApp_MessageMSGCB SYMBOL "SampleApp_MessageMSGCB"
??SampleApp_MessageMSGCB?relay SYMBOL "?relay", SampleApp_MessageMSGCB
SampleApp_ProcessEvent SYMBOL "SampleApp_ProcessEvent"
??SampleApp_ProcessEvent?relay SYMBOL "?relay", SampleApp_ProcessEvent
osalInitTasks       SYMBOL "osalInitTasks"
??osalInitTasks?relay SYMBOL "?relay", osalInitTasks

        EXTERN osal_mem_alloc
        FUNCTION osal_mem_alloc,0202H
        ARGFRAME ISTACK, 2, STACK
        ARGFRAME PSTACK, 0, STACK
        ARGFRAME XSTACK, 0, STACK
        ARGFRAME IOVERLAY, 0, STATIC
        ARGFRAME DOVERLAY, 0, STATIC
        EXTERN osal_memset
        FUNCTION osal_memset,0202H
        ARGFRAME ISTACK, 2, STACK
        ARGFRAME PSTACK, 0, STACK
        ARGFRAME XSTACK, 0, STACK
        ARGFRAME IOVERLAY, 0, STATIC
        ARGFRAME DOVERLAY, 0, STATIC
        EXTERN macTaskInit
        FUNCTION macTaskInit,0202H
        ARGFRAME ISTACK, 2, STACK
        ARGFRAME PSTACK, 0, STACK
        ARGFRAME XSTACK, 0, STACK
        ARGFRAME IOVERLAY, 0, STATIC
        ARGFRAME DOVERLAY, 0, STATIC
        EXTERN nwk_init
        FUNCTION nwk_init,0202H
        ARGFRAME ISTACK, 2, STACK
        ARGFRAME PSTACK, 0, STACK
        ARGFRAME XSTACK, 0, STACK
        ARGFRAME IOVERLAY, 0, STATIC
        ARGFRAME DOVERLAY, 0, STATIC
        EXTERN Hal_Init
        FUNCTION Hal_Init,0202H
        ARGFRAME ISTACK, 2, STACK
        ARGFRAME PSTACK, 0, STACK
        ARGFRAME XSTACK, 0, STACK
        ARGFRAME IOVERLAY, 0, STATIC
        ARGFRAME DOVERLAY, 0, STATIC
        EXTERN APS_Init
        FUNCTION APS_Init,0202H
        ARGFRAME ISTACK, 2, STACK
        ARGFRAME PSTACK, 0, STACK
        ARGFRAME XSTACK, 0, STACK
        ARGFRAME IOVERLAY, 0, STATIC
        ARGFRAME DOVERLAY, 0, STATIC
        EXTERN ZDApp_Init
        FUNCTION ZDApp_Init,0202H
        ARGFRAME ISTACK, 2, STACK
        ARGFRAME PSTACK, 0, STACK
        ARGFRAME XSTACK, 0, STACK
        ARGFRAME IOVERLAY, 0, STATIC
        ARGFRAME DOVERLAY, 0, STATIC
        EXTERN printf
        FUNCTION printf,0202H
        ARGFRAME ISTACK, 0, STACK
        ARGFRAME PSTACK, 0, STACK
        ARGFRAME XSTACK, 14, STACK
        ARGFRAME IOVERLAY, 0, STATIC
        ARGFRAME DOVERLAY, 0, STATIC
        EXTERN OLED_P8x16Str
        FUNCTION OLED_P8x16Str,0202H
        ARGFRAME ISTACK, 0, STACK
        ARGFRAME PSTACK, 0, STACK
        ARGFRAME XSTACK, 9, STACK
        ARGFRAME IOVERLAY, 0, STATIC
        ARGFRAME DOVERLAY, 0, STATIC
        EXTERN afRegister
        FUNCTION afRegister,0202H
        ARGFRAME ISTACK, 0, STACK
        ARGFRAME PSTACK, 0, STACK
        ARGFRAME XSTACK, 9, STACK
        ARGFRAME IOVERLAY, 0, STATIC
        ARGFRAME DOVERLAY, 0, STATIC
        EXTERN osal_msg_receive
        FUNCTION osal_msg_receive,0202H
        ARGFRAME ISTACK, 0, STACK
        ARGFRAME PSTACK, 0, STACK
        ARGFRAME XSTACK, 12, STACK
        ARGFRAME IOVERLAY, 0, STATIC
        ARGFRAME DOVERLAY, 0, STATIC
        EXTERN osal_msg_deallocate
        FUNCTION osal_msg_deallocate,0202H
        ARGFRAME ISTACK, 0, STACK
        ARGFRAME PSTACK, 0, STACK
        ARGFRAME XSTACK, 12, STACK
        ARGFRAME IOVERLAY, 0, STATIC
        ARGFRAME DOVERLAY, 0, STATIC
        EXTERN ResponeBind
        FUNCTION ResponeBind,0202H
        ARGFRAME ISTACK, 0, STACK
        ARGFRAME PSTACK, 0, STACK
        ARGFRAME XSTACK, 10, STACK
        ARGFRAME IOVERLAY, 0, STATIC
        ARGFRAME DOVERLAY, 0, STATIC
        EXTERN FanOff
        FUNCTION FanOff,0202H
        ARGFRAME ISTACK, 0, STACK
        ARGFRAME PSTACK, 0, STACK
        ARGFRAME XSTACK, 10, STACK
        ARGFRAME IOVERLAY, 0, STATIC
        ARGFRAME DOVERLAY, 0, STATIC
        EXTERN FanOn
        FUNCTION FanOn,0202H
        ARGFRAME ISTACK, 0, STACK
        ARGFRAME PSTACK, 0, STACK
        ARGFRAME XSTACK, 10, STACK
        ARGFRAME IOVERLAY, 0, STATIC
        ARGFRAME DOVERLAY, 0, STATIC
        EXTERN ??APS_Init?relay
        FUNCTION ??APS_Init?relay,00H
        EXTERN ??APS_event_loop?relay
        FUNCTION ??APS_event_loop?relay,00H
        EXTERN ??FanOff?relay
        FUNCTION ??FanOff?relay,00H
        EXTERN ??FanOn?relay
        FUNCTION ??FanOn?relay,00H
        EXTERN ??Hal_Init?relay
        FUNCTION ??Hal_Init?relay,00H
        EXTERN ??Hal_ProcessEvent?relay
        FUNCTION ??Hal_ProcessEvent?relay,00H
        EXTERN ??OLED_P8x16Str?relay
        FUNCTION ??OLED_P8x16Str?relay,00H
        EXTERN ??ResponeBind?relay
        FUNCTION ??ResponeBind?relay,00H
        EXTERN ??ZDApp_Init?relay
        FUNCTION ??ZDApp_Init?relay,00H
        EXTERN ??ZDApp_event_loop?relay
        FUNCTION ??ZDApp_event_loop?relay,00H
        EXTERN ??afRegister?relay
        FUNCTION ??afRegister?relay,00H
        EXTERN ??macEventLoop?relay
        FUNCTION ??macEventLoop?relay,00H
        EXTERN ??macTaskInit?relay
        FUNCTION ??macTaskInit?relay,00H
        EXTERN ??nwk_event_loop?relay
        FUNCTION ??nwk_event_loop?relay,00H
        EXTERN ??nwk_init?relay
        FUNCTION ??nwk_init?relay,00H
        EXTERN ??osal_mem_alloc?relay
        FUNCTION ??osal_mem_alloc?relay,00H
        EXTERN ??osal_memset?relay
        FUNCTION ??osal_memset?relay,00H
        EXTERN ??osal_msg_deallocate?relay
        FUNCTION ??osal_msg_deallocate?relay,00H
        EXTERN ??osal_msg_receive?relay
        FUNCTION ??osal_msg_receive?relay,00H
        EXTERN ??printf?relay
        FUNCTION ??printf?relay,00H

// D:\ZigBee\KJXY-ZigBee\useful_code\ZigBee-Ext\point2point-bind\Projects\zstack\Samples\SampleApp\Source\SampleApp-EndDevice.c
//    1 /**************************************************************************************************
//    2   Filename:       SampleApp.c
//    3   Revised:        $Date: 2009-03-18 15:56:27 -0700 (Wed, 18 Mar 2009) $
//    4   Revision:       $Revision: 19453 $
//    5 
//    6   Description:    Sample Application (no Profile).
//    7 
//    8 
//    9   Copyright 2007 Texas Instruments Incorporated. All rights reserved.
//   10 
//   11   IMPORTANT: Your use of this Software is limited to those specific rights
//   12   granted under the terms of a software license agreement between the user
//   13   who downloaded the software, his/her employer (which must be your employer)
//   14   and Texas Instruments Incorporated (the "License").  You may not use this
//   15   Software unless you agree to abide by the terms of the License. The License
//   16   limits your use, and you acknowledge, that the Software may not be modified,
//   17   copied or distributed unless embedded on a Texas Instruments microcontroller
//   18   or used solely and exclusively in conjunction with a Texas Instruments radio
//   19   frequency transceiver, which is integrated into your product.  Other than for
//   20   the foregoing purpose, you may not use, reproduce, copy, prepare derivative
//   21   works of, modify, distribute, perform, display or sell this Software and/or
//   22   its documentation for any purpose.
//   23 
//   24   YOU FURTHER ACKNOWLEDGE AND AGREE THAT THE SOFTWARE AND DOCUMENTATION ARE
//   25   PROVIDED AS IS?WITHOUT WARRANTY OF ANY KIND, EITHER EXPRESS OR IMPLIED,
//   26   INCLUDING WITHOUT LIMITATION, ANY WARRANTY OF MERCHANTABILITY, TITLE,
//   27   NON-INFRINGEMENT AND FITNESS FOR A PARTICULAR PURPOSE. IN NO EVENT SHALL
//   28   TEXAS INSTRUMENTS OR ITS LICENSORS BE LIABLE OR OBLIGATED UNDER CONTRACT,
//   29   NEGLIGENCE, STRICT LIABILITY, CONTRIBUTION, BREACH OF WARRANTY, OR OTHER
//   30   LEGAL EQUITABLE THEORY ANY DIRECT OR INDIRECT DAMAGES OR EXPENSES
//   31   INCLUDING BUT NOT LIMITED TO ANY INCIDENTAL, SPECIAL, INDIRECT, PUNITIVE
//   32   OR CONSEQUENTIAL DAMAGES, LOST PROFITS OR LOST DATA, COST OF PROCUREMENT
//   33   OF SUBSTITUTE GOODS, TECHNOLOGY, SERVICES, OR ANY CLAIMS BY THIRD PARTIES
//   34   (INCLUDING BUT NOT LIMITED TO ANY DEFENSE THEREOF), OR OTHER SIMILAR COSTS.
//   35 
//   36   Should you have any questions regarding your right to use this Software,
//   37   contact Texas Instruments Incorporated at www.TI.com.
//   38 **************************************************************************************************/
//   39 
//   40 /*********************************************************************
//   41   This application isn't intended to do anything useful, it is
//   42   intended to be a simple example of an application's structure.
//   43 
//   44   This application sends it's messages either as broadcast or
//   45   broadcast filtered group messages.  The other (more normal)
//   46   message addressing is unicast.  Most of the other sample
//   47   applications are written to support the unicast message model.
//   48 
//   49   Key control:
//   50     SW1:  Sends a flash command to all devices in Group 1.
//   51     SW2:  Adds/Removes (toggles) this device in and out
//   52           of Group 1.  This will enable and disable the
//   53           reception of the flash command.
//   54 *********************************************************************/
//   55 
//   56 /*********************************************************************
//   57  * INCLUDES
//   58  */
//   59 /*********************************************************************
//   60  * INCLUDES
//   61  */
//   62 
//   63 #include "ZComDef.h"
//   64 #include "hal_drivers.h"
//   65 #include "OSAL.h"
//   66 #include "OSAL_Tasks.h"
//   67 
//   68 #if defined ( MT_TASK )
//   69   #include "MT.h"
//   70   #include "MT_TASK.h"
//   71 #endif
//   72 
//   73 #include "nwk.h"
//   74 #include "APS.h"
//   75 #include "ZDApp.h"
//   76 #if defined ( ZIGBEE_FREQ_AGILITY ) || defined ( ZIGBEE_PANID_CONFLICT )
//   77   #include "ZDNwkMgr.h"
//   78 #endif
//   79 #if defined ( ZIGBEE_FRAGMENTATION )
//   80   #include "aps_frag.h"
//   81 #endif
//   82 
//   83 #include "SampleApp.h"
//   84 #include "WiFiGate.h"
//   85 #include "OSAL.h"
//   86 #include "ZGlobals.h"
//   87 #include "AF.h"
//   88 #include "aps_groups.h"
//   89 #include "ZDApp.h"
//   90 
//   91 #include "SampleApp.h"
//   92 #include "SampleAppHw.h"
//   93 
//   94 #include "OnBoard.h"
//   95 
//   96 /* HAL */
//   97 #include "hal_lcd.h"
//   98 #include "hal_led.h"
//   99 #include "hal_key.h"
//  100 #include "string.h"
//  101 
//  102 #include "MT_UART.h"
//  103 #include "MT_APP.h"
//  104 #include "MT.h"
//  105 #include "OLED.h"
//  106 #include "SHT20.h"
//  107 #include "bottom_led.h"
//  108 #include "stdio.h"
//  109 #include "UART2RS485.h"
//  110 #include "WiFiGate.h"
//  111 #include "_bind.h"
//  112 #include "Fan.h"
//  113 
//  114 void PointToPoint_SendTemperature(void);
//  115 /*********************************************************************
//  116  * GLOBAL VARIABLES
//  117  */
//  118 
//  119 // The order in this table must be identical to the task initialization calls below in osalInitTask.

        RSEG XDATA_ROM_C:CONST:REORDER:NOROOT(0)
        DATA8
//  120 const pTaskEventHandlerFn tasksArr[] = {
tasksArr:
        DATA16
        DW ??macEventLoop?relay
        DW ??nwk_event_loop?relay
        DW ??Hal_ProcessEvent?relay
        DW ??APS_event_loop?relay
        DW ??ZDApp_event_loop?relay
        DW ??SampleApp_ProcessEvent?relay
//  121   macEventLoop,
//  122   nwk_event_loop,
//  123   Hal_ProcessEvent,
//  124 #if defined( MT_TASK )
//  125   MT_ProcessEvent,
//  126 #endif
//  127   APS_event_loop,
//  128 #if defined ( ZIGBEE_FRAGMENTATION )
//  129   APSF_ProcessEvent,
//  130 #endif
//  131   ZDApp_event_loop,
//  132 #if defined ( ZIGBEE_FREQ_AGILITY ) || defined ( ZIGBEE_PANID_CONFLICT )
//  133   ZDNwkMgr_event_loop,
//  134 #endif
//  135   SampleApp_ProcessEvent, 

        RSEG XDATA_ROM_C:CONST:REORDER:NOROOT(0)
        DATA8
//  136 };const uint8 tasksCnt = sizeof( tasksArr ) / sizeof( tasksArr[0] );
tasksCnt:
        DB 6

        RSEG XDATA_Z:XDATA:NOROOT(0)
        DATA16
//  137 uint16 *tasksEvents;
tasksEvents:
        DS 2
        REQUIRE __INIT_XDATA_Z
//  138 /*********************************************************************
//  139  * FUNCTIONS
//  140  *********************************************************************/
//  141 
//  142 /*********************************************************************
//  143  * @fn      osalInitTasks
//  144  *
//  145  * @brief   This function invokes the initialization function for each task.
//  146  *
//  147  * @param   void
//  148  *
//  149  * @return  none
//  150  */

        RSEG BANKED_CODE:CODE:NOROOT(0)
//  151 void osalInitTasks( void )
osalInitTasks:
        CFI Block cfiBlock0 Using cfiCommon0
        CFI Function osalInitTasks
        CODE
//  152 {
        FUNCALL osalInitTasks, osal_mem_alloc
        LOCFRAME ISTACK, 2, STACK
        LOCFRAME PSTACK, 0, STACK
        LOCFRAME XSTACK, 0, STACK
        LOCFRAME IOVERLAY, 0, STATIC
        LOCFRAME DOVERLAY, 0, STATIC
        ARGFRAME ISTACK, 2, STACK
        ARGFRAME PSTACK, 0, STACK
        ARGFRAME XSTACK, 0, STACK
        ARGFRAME IOVERLAY, 0, STATIC
        ARGFRAME DOVERLAY, 0, STATIC
        FUNCALL osalInitTasks, osal_memset
        LOCFRAME ISTACK, 2, STACK
        LOCFRAME PSTACK, 0, STACK
        LOCFRAME XSTACK, 0, STACK
        LOCFRAME IOVERLAY, 0, STATIC
        LOCFRAME DOVERLAY, 0, STATIC
        ARGFRAME ISTACK, 2, STACK
        ARGFRAME PSTACK, 0, STACK
        ARGFRAME XSTACK, 0, STACK
        ARGFRAME IOVERLAY, 0, STATIC
        ARGFRAME DOVERLAY, 0, STATIC
        FUNCALL osalInitTasks, macTaskInit
        LOCFRAME ISTACK, 2, STACK
        LOCFRAME PSTACK, 0, STACK
        LOCFRAME XSTACK, 0, STACK
        LOCFRAME IOVERLAY, 0, STATIC
        LOCFRAME DOVERLAY, 0, STATIC
        ARGFRAME ISTACK, 2, STACK
        ARGFRAME PSTACK, 0, STACK
        ARGFRAME XSTACK, 0, STACK
        ARGFRAME IOVERLAY, 0, STATIC
        ARGFRAME DOVERLAY, 0, STATIC
        FUNCALL osalInitTasks, nwk_init
        LOCFRAME ISTACK, 2, STACK
        LOCFRAME PSTACK, 0, STACK
        LOCFRAME XSTACK, 0, STACK
        LOCFRAME IOVERLAY, 0, STATIC
        LOCFRAME DOVERLAY, 0, STATIC
        ARGFRAME ISTACK, 2, STACK
        ARGFRAME PSTACK, 0, STACK
        ARGFRAME XSTACK, 0, STACK
        ARGFRAME IOVERLAY, 0, STATIC
        ARGFRAME DOVERLAY, 0, STATIC
        FUNCALL osalInitTasks, Hal_Init
        LOCFRAME ISTACK, 2, STACK
        LOCFRAME PSTACK, 0, STACK
        LOCFRAME XSTACK, 0, STACK
        LOCFRAME IOVERLAY, 0, STATIC
        LOCFRAME DOVERLAY, 0, STATIC
        ARGFRAME ISTACK, 2, STACK
        ARGFRAME PSTACK, 0, STACK
        ARGFRAME XSTACK, 0, STACK
        ARGFRAME IOVERLAY, 0, STATIC
        ARGFRAME DOVERLAY, 0, STATIC
        FUNCALL osalInitTasks, APS_Init
        LOCFRAME ISTACK, 2, STACK
        LOCFRAME PSTACK, 0, STACK
        LOCFRAME XSTACK, 0, STACK
        LOCFRAME IOVERLAY, 0, STATIC
        LOCFRAME DOVERLAY, 0, STATIC
        ARGFRAME ISTACK, 2, STACK
        ARGFRAME PSTACK, 0, STACK
        ARGFRAME XSTACK, 0, STACK
        ARGFRAME IOVERLAY, 0, STATIC
        ARGFRAME DOVERLAY, 0, STATIC
        FUNCALL osalInitTasks, ZDApp_Init
        LOCFRAME ISTACK, 2, STACK
        LOCFRAME PSTACK, 0, STACK
        LOCFRAME XSTACK, 0, STACK
        LOCFRAME IOVERLAY, 0, STATIC
        LOCFRAME DOVERLAY, 0, STATIC
        ARGFRAME ISTACK, 2, STACK
        ARGFRAME PSTACK, 0, STACK
        ARGFRAME XSTACK, 0, STACK
        ARGFRAME IOVERLAY, 0, STATIC
        ARGFRAME DOVERLAY, 0, STATIC
        FUNCALL osalInitTasks, SampleApp_Init
        LOCFRAME ISTACK, 2, STACK
        LOCFRAME PSTACK, 0, STACK
        LOCFRAME XSTACK, 0, STACK
        LOCFRAME IOVERLAY, 0, STATIC
        LOCFRAME DOVERLAY, 0, STATIC
        ARGFRAME ISTACK, 2, STACK
        ARGFRAME PSTACK, 0, STACK
        ARGFRAME XSTACK, 0, STACK
        ARGFRAME IOVERLAY, 0, STATIC
        ARGFRAME DOVERLAY, 0, STATIC
        PUSH    DPL
        CFI DPL0 Frame(CFA_SP, 4)
        CFI CFA_SP SP+-4
        PUSH    DPH
        CFI DPH0 Frame(CFA_SP, 5)
        CFI CFA_SP SP+-5
        ; Saved register size: 2
        ; Auto size: 0
//  153   uint8 taskID = 0;
//  154 
//  155   tasksEvents = (uint16 *)osal_mem_alloc( sizeof( uint16 ) * tasksCnt);
        ; Setup parameters for call to function osal_mem_alloc
        MOV     R2,#0xc
        MOV     R3,#0x0
        LCALL   ??osal_mem_alloc?relay
        MOV     DPTR,#tasksEvents
        MOV     A,R2
        MOVX    @DPTR,A
        INC     DPTR
        MOV     A,R3
        MOVX    @DPTR,A
//  156   osal_memset( tasksEvents, 0, (sizeof( uint16 ) * tasksCnt));
        ; Setup parameters for call to function osal_memset
        MOV     R4,#0xc
        MOV     R5,#0x0
        MOV     R1,#0x0
        MOV     DPTR,#tasksEvents
        MOVX    A,@DPTR
        MOV     R2,A
        INC     DPTR
        MOVX    A,@DPTR
        MOV     R3,A
        LCALL   ??osal_memset?relay
//  157 
//  158   macTaskInit( taskID++ );
        ; Setup parameters for call to function macTaskInit
        MOV     R1,#0x0
        LCALL   ??macTaskInit?relay
//  159   nwk_init( taskID++ );
        ; Setup parameters for call to function nwk_init
        MOV     R1,#0x1
        LCALL   ??nwk_init?relay
//  160   Hal_Init( taskID++ );
        ; Setup parameters for call to function Hal_Init
        MOV     R1,#0x2
        LCALL   ??Hal_Init?relay
//  161 #if defined( MT_TASK )
//  162   MT_TaskInit( taskID++ );
//  163 #endif
//  164   APS_Init( taskID++ );
        ; Setup parameters for call to function APS_Init
        MOV     R1,#0x3
        LCALL   ??APS_Init?relay
//  165 #if defined ( ZIGBEE_FRAGMENTATION )
//  166   APSF_Init( taskID++ );
//  167 #endif
//  168   ZDApp_Init( taskID++ );
        ; Setup parameters for call to function ZDApp_Init
        MOV     R1,#0x4
        LCALL   ??ZDApp_Init?relay
//  169 #if defined ( ZIGBEE_FREQ_AGILITY ) || defined ( ZIGBEE_PANID_CONFLICT )
//  170   ZDNwkMgr_Init( taskID++ );
//  171 #endif
//  172   SampleApp_Init( taskID++ );  
        ; Setup parameters for call to function SampleApp_Init
        MOV     R1,#0x5
        LCALL   ??SampleApp_Init?relay
//  173 }
        POP     DPH
        CFI DPH0 SameValue
        CFI CFA_SP SP+-4
        POP     DPL
        CFI DPL0 SameValue
        CFI CFA_SP SP+-3
        LJMP    ?BRET
        CFI EndBlock cfiBlock0
//  174 /*********************************************************************
//  175  * MACROS
//  176  */
//  177 
//  178 /*********************************************************************
//  179  * CONSTANTS
//  180  */
//  181 
//  182 /*********************************************************************
//  183  * TYPEDEFS
//  184  */
//  185 
//  186 /*********************************************************************
//  187  * GLOBAL VARIABLES
//  188  */
//  189 //设备节点端点参数

        RSEG XDATA_ROM_C:CONST:REORDER:NOROOT(0)
        DATA16
//  190 const cId_t EndDevice_InClusterList[ENDDEVICE_INCLUSTER_MAX_CLUSTERS] =
EndDevice_InClusterList:
        DW 1
//  191 {
//  192   FAN_CONTROL_CMD_ID
//  193 };

        RSEG XDATA_ROM_C:CONST:REORDER:NOROOT(0)
        DATA8
//  194 const SimpleDescriptionFormat_t EndDevice_SimpleDesc = 
EndDevice_SimpleDesc:
        DB 20
        DATA16
        DW 3848
        DW 1
        DATA8
        DB 0
        DB 1
        DATA16
        DW EndDevice_InClusterList
        DATA8
        DB 0
        DATA16
        DW 0H
//  195 {
//  196   SAMPLEAPP_ENDPOINT,                 //  int Endpoint;
//  197   SAMPLEAPP_PROFID,                   //  uint16 AppProfId[2];
//  198   SAMPLEAPP_DEVICEID,                 //  uint16 AppDeviceId[2];
//  199   SAMPLEAPP_DEVICE_VERSION,           //  int   AppDevVer:4;
//  200   SAMPLEAPP_FLAGS,                    //  int   AppFlags:4;
//  201   ENDDEVICE_INCLUSTER_MAX_CLUSTERS,             //  uint8  AppNumInClusters;
//  202   (cId_t *)EndDevice_InClusterList,     //  uint8 *pAppInClusterList;
//  203   0,             //  uint8  AppNumOutClusters;
//  204   NULL   //  uint8 *pAppOutClusterList;
//  205 };
//  206 // This is the Endpoint/Interface description.  It is defined here, but
//  207 // filled-in in SampleApp_Init().  Another way to go would be to fill
//  208 // in the structure here and make it a "const" (in code space).  The
//  209 // way it's defined in this sample app it is define in RAM.

        RSEG XDATA_Z:XDATA:NOROOT(0)
        DATA8
//  210 endPointDesc_t EndDevice_epDesc;
EndDevice_epDesc:
        DS 6
        REQUIRE __INIT_XDATA_Z
//  211 /*********************************************************************
//  212  * EXTERNAL VARIABLES
//  213  */
//  214 
//  215 /*********************************************************************
//  216  * EXTERNAL FUNCTIONS
//  217  */
//  218 
//  219 /*********************************************************************
//  220  * LOCAL VARIABLES
//  221  */

        RSEG XDATA_Z:XDATA:NOROOT(0)
        DATA8
//  222 uint8 SampleApp_TaskID;   // Task ID for internal task/event processing
SampleApp_TaskID:
        DS 1
        REQUIRE __INIT_XDATA_Z
//  223                           // This variable will be received when
//  224                           // SampleApp_Init() is called.

        RSEG XDATA_Z:XDATA:NOROOT(0)
        DATA8
//  225 devStates_t SampleApp_NwkState;
SampleApp_NwkState:
        DS 1
        REQUIRE __INIT_XDATA_Z
//  226 

        RSEG XDATA_Z:XDATA:NOROOT(0)
        DATA8
//  227 uint8 SampleApp_TransID;  // This is the unique message ID (counter)
SampleApp_TransID:
        DS 1
        REQUIRE __INIT_XDATA_Z
//  228 

        RSEG XDATA_Z:XDATA:NOROOT(0)
        DATA8
//  229 afAddrType_t SampleApp_Periodic_DstAddr;
SampleApp_Periodic_DstAddr:
        DS 12
        REQUIRE __INIT_XDATA_Z

        RSEG XDATA_Z:XDATA:NOROOT(0)
        DATA8
//  230 afAddrType_t SampleApp_Flash_DstAddr;
SampleApp_Flash_DstAddr:
        DS 12
        REQUIRE __INIT_XDATA_Z
//  231 

        RSEG XDATA_Z:XDATA:NOROOT(0)
        DATA8
//  232 afAddrType_t Point_To_Point_DstAddr;//点对点通信定义
Point_To_Point_DstAddr:
        DS 12
        REQUIRE __INIT_XDATA_Z
//  233 

        RSEG XDATA_Z:XDATA:NOROOT(0)
        DATA8
//  234 aps_Group_t SampleApp_Group;
SampleApp_Group:
        DS 18
        REQUIRE __INIT_XDATA_Z
//  235 

        RSEG XDATA_Z:XDATA:NOROOT(0)
        DATA8
//  236 uint8 SampleAppPeriodicCounter = 0;
SampleAppPeriodicCounter:
        DS 1
        REQUIRE __INIT_XDATA_Z

        RSEG XDATA_Z:XDATA:NOROOT(0)
        DATA8
//  237 uint8 SampleAppFlashCounter = 0;
SampleAppFlashCounter:
        DS 1
        REQUIRE __INIT_XDATA_Z
//  238 
//  239 /*********************************************************************
//  240  * LOCAL FUNCTIONS
//  241  */
//  242 void SampleApp_HandleKeys( uint8 shift, uint8 keys );
//  243 void SampleApp_MessageMSGCB( afIncomingMSGPacket_t *pckt );
//  244 void SampleApp_SendPeriodicMessage( void );
//  245 void SampleApp_SendPointToPointMessage(void); //网蜂点对点通讯定义
//  246 void SampleApp_SendFlashMessage( uint16 flashTime );
//  247 void SampleApp_SerialCMD(mtOSALSerialData_t *cmdMsg);
//  248 
//  249 /*********************************************************************
//  250  * NETWORK LAYER CALLBACKS
//  251  */
//  252 
//  253 /*********************************************************************
//  254  * PUBLIC FUNCTIONS
//  255  */
//  256 
//  257 /*********************************************************************
//  258  * @fn      SampleApp_Init
//  259  *
//  260  * @brief   Initialization function for the Generic App Task.
//  261  *          This is called during initialization and should contain
//  262  *          any application specific initialization (ie. hardware
//  263  *          initialization/setup, table initialization, power up
//  264  *          notificaiton ... ).
//  265  *
//  266  * @param   task_id - the ID assigned by OSAL.  This ID should be
//  267  *                    used to send messages and set timers.
//  268  *
//  269  * @return  none
//  270  */

        RSEG XDATA_Z:XDATA:NOROOT(0)
        DATA8
//  271 uint8 test = 0;
test:
        DS 1
        REQUIRE __INIT_XDATA_Z

        RSEG BANKED_CODE:CODE:NOROOT(0)
//  272 void SampleApp_Init( uint8 task_id )
SampleApp_Init:
        CFI Block cfiBlock1 Using cfiCommon0
        CFI Function SampleApp_Init
        CODE
//  273 {
        FUNCALL SampleApp_Init, printf
        LOCFRAME ISTACK, 0, STACK
        LOCFRAME PSTACK, 0, STACK
        LOCFRAME XSTACK, 9, STACK
        LOCFRAME IOVERLAY, 0, STATIC
        LOCFRAME DOVERLAY, 0, STATIC
        ARGFRAME ISTACK, 0, STACK
        ARGFRAME PSTACK, 0, STACK
        ARGFRAME XSTACK, 9, STACK
        ARGFRAME IOVERLAY, 0, STATIC
        ARGFRAME DOVERLAY, 0, STATIC
        FUNCALL SampleApp_Init, OLED_P8x16Str
        LOCFRAME ISTACK, 0, STACK
        LOCFRAME PSTACK, 0, STACK
        LOCFRAME XSTACK, 9, STACK
        LOCFRAME IOVERLAY, 0, STATIC
        LOCFRAME DOVERLAY, 0, STATIC
        ARGFRAME ISTACK, 0, STACK
        ARGFRAME PSTACK, 0, STACK
        ARGFRAME XSTACK, 9, STACK
        ARGFRAME IOVERLAY, 0, STATIC
        ARGFRAME DOVERLAY, 0, STATIC
        FUNCALL SampleApp_Init, afRegister
        LOCFRAME ISTACK, 0, STACK
        LOCFRAME PSTACK, 0, STACK
        LOCFRAME XSTACK, 9, STACK
        LOCFRAME IOVERLAY, 0, STATIC
        LOCFRAME DOVERLAY, 0, STATIC
        ARGFRAME ISTACK, 0, STACK
        ARGFRAME PSTACK, 0, STACK
        ARGFRAME XSTACK, 9, STACK
        ARGFRAME IOVERLAY, 0, STATIC
        ARGFRAME DOVERLAY, 0, STATIC
        MOV     A,#-0x9
        LCALL   ?BANKED_ENTER_XDATA
        CFI DPH0 load(1, XDATA, add(CFA_XSP16, literal(-1)))
        CFI DPL0 load(1, XDATA, add(CFA_XSP16, literal(-2)))
        CFI ?BRET_EXT load(1, XDATA, add(CFA_XSP16, literal(-3)))
        CFI ?RET_HIGH load(1, XDATA, add(CFA_XSP16, literal(-4)))
        CFI ?RET_LOW load(1, XDATA, add(CFA_XSP16, literal(-5)))
        CFI R7 load(1, XDATA, add(CFA_XSP16, literal(-6)))
        CFI V0 load(1, XDATA, add(CFA_XSP16, literal(-7)))
        CFI VB load(1, XDATA, add(CFA_XSP16, literal(-8)))
        CFI R6 load(1, XDATA, add(CFA_XSP16, literal(-9)))
        CFI CFA_SP SP+0
        CFI CFA_XSP16 add(XSP16, 9)
        ; Saved register size: 9
        ; Auto size: 0
        MOV     A,R1
//  274   SampleApp_TaskID = task_id;
        MOV     DPTR,#SampleApp_TaskID
        MOVX    @DPTR,A
//  275   SampleApp_NwkState = DEV_INIT;
        MOV     DPTR,#SampleApp_NwkState
        MOV     A,#0x1
        MOVX    @DPTR,A
//  276   SampleApp_TransID = 0;
        MOV     DPTR,#SampleApp_TransID
        CLR     A
        MOVX    @DPTR,A
//  277 #if 0 
//  278   UartInit(HAL_UART_PORT_0,HAL_UART_BR_115200);
//  279   HalUARTWrite(0,"this is uart0 print\r\n",strlen("this is uart0 print\r\n"));
//  280 #endif  
//  281   if ( ZG_BUILD_COORDINATOR_TYPE && ZG_DEVICE_COORDINATOR_TYPE  )//如果是协调器
//  282   {
//  283     printf("i am coordinator\r\n");//串口打印
//  284     OLED_P8x16Str(0,0,"coordinator");
//  285   }
//  286   if ( ZG_DEVICE_ENDDEVICE_TYPE && ZG_BUILD_ENDDEVICE_TYPE  )//如果端点
//  287   {
//  288     printf("i am end device\r\n");//串口打印
        ; Setup parameters for call to function printf
        MOV     R2,#`?<Constant "i am end device\\r\\n">` & 0xff
        MOV     R3,#(`?<Constant "i am end device\\r\\n">` >> 8) & 0xff
        LCALL   ??printf?relay
//  289     OLED_P8x16Str(0,0,"end device");    
        ; Setup parameters for call to function OLED_P8x16Str
        MOV     R4,#`?<Constant "end device">` & 0xff
        MOV     R5,#(`?<Constant "end device">` >> 8) & 0xff
        MOV     R2,#0x0
        MOV     R1,#0x0
        LCALL   ??OLED_P8x16Str?relay
//  290     // 点对点通讯定义
//  291     Point_To_Point_DstAddr.addrMode = (afAddrMode_t)Addr16Bit; //点播
        MOV     DPTR,#Point_To_Point_DstAddr + 8
        MOV     A,#0x2
        MOVX    @DPTR,A
//  292     Point_To_Point_DstAddr.endPoint = SAMPLEAPP_ENDPOINT;      
        INC     DPTR
        MOV     A,#0x14
        MOVX    @DPTR,A
//  293     Point_To_Point_DstAddr.addr.shortAddr = 0x0000;//发给协调器
        MOV     DPTR,#Point_To_Point_DstAddr
        CLR     A
        MOVX    @DPTR,A
        INC     DPTR
        MOVX    @DPTR,A
//  294   }
//  295   // 填写端点
//  296   EndDevice_epDesc.endPoint   = SAMPLEAPP_ENDPOINT;
        MOV     DPTR,#EndDevice_epDesc
        MOV     A,#0x14
        MOVX    @DPTR,A
//  297   EndDevice_epDesc.task_id    = &SampleApp_TaskID;
        INC     DPTR
        MOV     A,#SampleApp_TaskID & 0xff
        MOVX    @DPTR,A
        INC     DPTR
        MOV     A,#(SampleApp_TaskID >> 8) & 0xff
        MOVX    @DPTR,A
//  298   EndDevice_epDesc.simpleDesc = (SimpleDescriptionFormat_t *)&EndDevice_SimpleDesc;
        INC     DPTR
        MOV     A,#EndDevice_SimpleDesc & 0xff
        MOVX    @DPTR,A
        INC     DPTR
        MOV     A,#(EndDevice_SimpleDesc >> 8) & 0xff
        MOVX    @DPTR,A
//  299 
//  300   EndDevice_epDesc.latencyReq = noLatencyReqs;
        INC     DPTR
        CLR     A
        MOVX    @DPTR,A
//  301   // 注册端点
//  302   afRegister( &EndDevice_epDesc );
        ; Setup parameters for call to function afRegister
        MOV     R2,#EndDevice_epDesc & 0xff
        MOV     R3,#(EndDevice_epDesc >> 8) & 0xff
        LCALL   ??afRegister?relay
//  303 }
        MOV     R7,#0x1
        LJMP    ?BANKED_LEAVE_XDATA
        CFI EndBlock cfiBlock1
//  304 
//  305 /*********************************************************************
//  306  * @fn      SampleApp_ProcessEvent
//  307  *
//  308  * @brief   Generic Application Task event processor.  This function
//  309  *          is called to process all events for the task.  Events
//  310  *          include timers, messages and any other user defined events.
//  311  *
//  312  * @param   task_id  - The OSAL assigned task ID.
//  313  * @param   events - events to process.  This is a bit map and can
//  314  *                   contain more than one event.
//  315  *
//  316  * @return  none
//  317  */

        RSEG XDATA_I:XDATA:NOROOT(0)
//  318 uint8 SendTemperatureIndicate = 1;
SendTemperatureIndicate:
        DATA8
        DS 1
        REQUIRE `?<Initializer for SendTemperatureIndicate>`
        REQUIRE __INIT_XDATA_I

        RSEG XDATA_Z:XDATA:NOROOT(0)
        DATA8
//  319 uint8 DisplaySw=0;
DisplaySw:
        DS 1
        REQUIRE __INIT_XDATA_Z

        RSEG BANKED_CODE:CODE:NOROOT(0)
//  320 uint16 SampleApp_ProcessEvent( uint8 task_id, uint16 events )
SampleApp_ProcessEvent:
        CFI Block cfiBlock2 Using cfiCommon0
        CFI Function SampleApp_ProcessEvent
        CODE
//  321 {
        FUNCALL SampleApp_ProcessEvent, osal_msg_receive
        LOCFRAME ISTACK, 0, STACK
        LOCFRAME PSTACK, 0, STACK
        LOCFRAME XSTACK, 12, STACK
        LOCFRAME IOVERLAY, 0, STATIC
        LOCFRAME DOVERLAY, 0, STATIC
        ARGFRAME ISTACK, 0, STACK
        ARGFRAME PSTACK, 0, STACK
        ARGFRAME XSTACK, 12, STACK
        ARGFRAME IOVERLAY, 0, STATIC
        ARGFRAME DOVERLAY, 0, STATIC
        FUNCALL SampleApp_ProcessEvent, printf
        LOCFRAME ISTACK, 0, STACK
        LOCFRAME PSTACK, 0, STACK
        LOCFRAME XSTACK, 12, STACK
        LOCFRAME IOVERLAY, 0, STATIC
        LOCFRAME DOVERLAY, 0, STATIC
        ARGFRAME ISTACK, 0, STACK
        ARGFRAME PSTACK, 0, STACK
        ARGFRAME XSTACK, 12, STACK
        ARGFRAME IOVERLAY, 0, STATIC
        ARGFRAME DOVERLAY, 0, STATIC
        FUNCALL SampleApp_ProcessEvent, osal_msg_deallocate
        LOCFRAME ISTACK, 0, STACK
        LOCFRAME PSTACK, 0, STACK
        LOCFRAME XSTACK, 12, STACK
        LOCFRAME IOVERLAY, 0, STATIC
        LOCFRAME DOVERLAY, 0, STATIC
        ARGFRAME ISTACK, 0, STACK
        ARGFRAME PSTACK, 0, STACK
        ARGFRAME XSTACK, 12, STACK
        ARGFRAME IOVERLAY, 0, STATIC
        ARGFRAME DOVERLAY, 0, STATIC
        FUNCALL SampleApp_ProcessEvent, osal_msg_receive
        LOCFRAME ISTACK, 0, STACK
        LOCFRAME PSTACK, 0, STACK
        LOCFRAME XSTACK, 12, STACK
        LOCFRAME IOVERLAY, 0, STATIC
        LOCFRAME DOVERLAY, 0, STATIC
        ARGFRAME ISTACK, 0, STACK
        ARGFRAME PSTACK, 0, STACK
        ARGFRAME XSTACK, 12, STACK
        ARGFRAME IOVERLAY, 0, STATIC
        ARGFRAME DOVERLAY, 0, STATIC
        FUNCALL SampleApp_ProcessEvent, SampleApp_MessageMSGCB
        LOCFRAME ISTACK, 0, STACK
        LOCFRAME PSTACK, 0, STACK
        LOCFRAME XSTACK, 12, STACK
        LOCFRAME IOVERLAY, 0, STATIC
        LOCFRAME DOVERLAY, 0, STATIC
        ARGFRAME ISTACK, 0, STACK
        ARGFRAME PSTACK, 0, STACK
        ARGFRAME XSTACK, 12, STACK
        ARGFRAME IOVERLAY, 0, STATIC
        ARGFRAME DOVERLAY, 0, STATIC
        FUNCALL SampleApp_ProcessEvent, printf
        LOCFRAME ISTACK, 0, STACK
        LOCFRAME PSTACK, 0, STACK
        LOCFRAME XSTACK, 14, STACK
        LOCFRAME IOVERLAY, 0, STATIC
        LOCFRAME DOVERLAY, 0, STATIC
        ARGFRAME ISTACK, 0, STACK
        ARGFRAME PSTACK, 0, STACK
        ARGFRAME XSTACK, 14, STACK
        ARGFRAME IOVERLAY, 0, STATIC
        ARGFRAME DOVERLAY, 0, STATIC
        FUNCALL SampleApp_ProcessEvent, printf
        LOCFRAME ISTACK, 0, STACK
        LOCFRAME PSTACK, 0, STACK
        LOCFRAME XSTACK, 12, STACK
        LOCFRAME IOVERLAY, 0, STATIC
        LOCFRAME DOVERLAY, 0, STATIC
        ARGFRAME ISTACK, 0, STACK
        ARGFRAME PSTACK, 0, STACK
        ARGFRAME XSTACK, 12, STACK
        ARGFRAME IOVERLAY, 0, STATIC
        ARGFRAME DOVERLAY, 0, STATIC
        MOV     A,#-0xc
        LCALL   ?BANKED_ENTER_XDATA
        CFI DPH0 load(1, XDATA, add(CFA_XSP16, literal(-1)))
        CFI DPL0 load(1, XDATA, add(CFA_XSP16, literal(-2)))
        CFI ?BRET_EXT load(1, XDATA, add(CFA_XSP16, literal(-3)))
        CFI ?RET_HIGH load(1, XDATA, add(CFA_XSP16, literal(-4)))
        CFI ?RET_LOW load(1, XDATA, add(CFA_XSP16, literal(-5)))
        CFI R7 load(1, XDATA, add(CFA_XSP16, literal(-6)))
        CFI V3 load(1, XDATA, add(CFA_XSP16, literal(-7)))
        CFI V2 load(1, XDATA, add(CFA_XSP16, literal(-8)))
        CFI V1 load(1, XDATA, add(CFA_XSP16, literal(-9)))
        CFI V0 load(1, XDATA, add(CFA_XSP16, literal(-10)))
        CFI VB load(1, XDATA, add(CFA_XSP16, literal(-11)))
        CFI R6 load(1, XDATA, add(CFA_XSP16, literal(-12)))
        CFI CFA_SP SP+0
        CFI CFA_XSP16 add(XSP16, 12)
        ; Saved register size: 12
        ; Auto size: 0
        MOV     ?V0 + 0,R2
        MOV     ?V0 + 1,R3
//  322   afIncomingMSGPacket_t *MSGpkt;
//  323   (void)task_id;  // Intentionally unreferenced parameter
//  324 
//  325   if ( events & SYS_EVENT_MSG )
        MOV     A,R3
        ANL     A,#0x80
        JZ      ??SampleApp_ProcessEvent_0
//  326   {
//  327     MSGpkt = (afIncomingMSGPacket_t *)osal_msg_receive( SampleApp_TaskID );
        ; Setup parameters for call to function osal_msg_receive
        SJMP    ??SampleApp_ProcessEvent_1
//  328     while ( MSGpkt )
//  329     {
//  330       switch ( MSGpkt->hdr.event )
//  331       {        
//  332         // Received when a messages is received (OTA) for this endpoint
//  333         case AF_INCOMING_MSG_CMD:
//  334           SampleApp_MessageMSGCB( MSGpkt );
//  335           break;
//  336 
//  337         // Received whenever the device changes state in the network
//  338         case ZDO_STATE_CHANGE:
//  339           
//  340           SampleApp_NwkState = (devStates_t)(MSGpkt->hdr.status);
//  341           printf("SampleApp_NwkState=%d\r\n",SampleApp_NwkState);
//  342           if ( //(SampleApp_NwkState == DEV_ZB_COORD)协调器不能给自己点播
//  343                 (SampleApp_NwkState == DEV_ROUTER)
//  344              || (SampleApp_NwkState == DEV_END_DEVICE) )
//  345           {
//  346             printf("connect coordinator\r\n");
//  347           }
//  348           else if(SampleApp_NwkState == DEV_NWK_ORPHAN)
??SampleApp_ProcessEvent_2:
        MOVX    A,@DPTR
        XRL     A,#0xa
        JNZ     ??SampleApp_ProcessEvent_3
//  349           {
//  350             printf("lost network\r\n");
        ; Setup parameters for call to function printf
        MOV     R2,#`?<Constant "lost network\\r\\n">` & 0xff
        MOV     R3,#(`?<Constant "lost network\\r\\n">` >> 8) & 0xff
??SampleApp_ProcessEvent_4:
        LCALL   ??printf?relay
//  351           }
//  352           break;
//  353 
//  354         default:
//  355           break;
//  356       }
//  357 
//  358       // Release the memory
//  359       osal_msg_deallocate( (uint8 *)MSGpkt );
??SampleApp_ProcessEvent_3:
        ; Setup parameters for call to function osal_msg_deallocate
        MOV     A,R6
        MOV     R2,A
        MOV     A,R7
        MOV     R3,A
        LCALL   ??osal_msg_deallocate?relay
//  360 
//  361       // Next - if one is available
//  362       MSGpkt = (afIncomingMSGPacket_t *)osal_msg_receive( SampleApp_TaskID );
        ; Setup parameters for call to function osal_msg_receive
??SampleApp_ProcessEvent_1:
        MOV     DPTR,#SampleApp_TaskID
        MOVX    A,@DPTR
        MOV     R1,A
        LCALL   ??osal_msg_receive?relay
        MOV     ?V0 + 2,R2
        MOV     ?V0 + 3,R3
        MOV     R6,?V0 + 2
        MOV     R7,?V0 + 3
        MOV     A,R6
        ORL     A,R7
        JZ      ??SampleApp_ProcessEvent_5
        MOV     DPL,R6
        MOV     DPH,R7
        MOVX    A,@DPTR
        ADD     A,#-0x1a
        JZ      ??SampleApp_ProcessEvent_6
        ADD     A,#0x49
        JZ      ??SampleApp_ProcessEvent_7
        SJMP    ??SampleApp_ProcessEvent_3
??SampleApp_ProcessEvent_6:
        ; Setup parameters for call to function SampleApp_MessageMSGCB
        MOV     A,R6
        MOV     R2,A
        MOV     A,R7
        MOV     R3,A
        LCALL   ??SampleApp_MessageMSGCB?relay
        SJMP    ??SampleApp_ProcessEvent_3
??SampleApp_ProcessEvent_7:
        INC     DPTR
        MOVX    A,@DPTR
        MOV     DPTR,#SampleApp_NwkState
        MOVX    @DPTR,A
        ; Setup parameters for call to function printf
        MOVX    A,@DPTR
        MOV     ?V0 + 2,A
        MOV     ?V0 + 3,#0x0
        MOV     R0,#?V0 + 2
        LCALL   ?PUSH_XSTACK_I_TWO
        CFI CFA_XSP16 add(XSP16, 14)
        MOV     R2,#`?<Constant "SampleApp_NwkState=%d\\r\\n">` & 0xff
        MOV     R3,#(`?<Constant "SampleApp_NwkState=%d\\r\\n">` >> 8) & 0xff
        LCALL   ??printf?relay
        MOV     A,#0x2
        LCALL   ?DEALLOC_XSTACK8
        CFI CFA_XSP16 add(XSP16, 12)
        MOV     DPTR,#SampleApp_NwkState
        MOVX    A,@DPTR
        XRL     A,#0x7
        JZ      ??SampleApp_ProcessEvent_8
        MOVX    A,@DPTR
        XRL     A,#0x6
        JNZ     ??SampleApp_ProcessEvent_2
??SampleApp_ProcessEvent_8:
        ; Setup parameters for call to function printf
        MOV     R2,#`?<Constant "connect coordinator\\r\\n">` & 0xff
        MOV     R3,#(`?<Constant "connect coordinator\\r\\n">` >> 8) & 0xff
        SJMP    ??SampleApp_ProcessEvent_4
//  363     }
//  364 
//  365     // return unprocessed events
//  366     return (events ^ SYS_EVENT_MSG);
??SampleApp_ProcessEvent_5:
        MOV     R2,?V0 + 0
        MOV     A,?V0 + 1
        XRL     A,#0x80
        MOV     R3,A
        SJMP    ??SampleApp_ProcessEvent_9
//  367   }//if ( events & SYS_EVENT_MSG )
//  368   
//  369   // Discard unknown events
//  370   return 0;
??SampleApp_ProcessEvent_0:
        MOV     R2,#0x0
        MOV     R3,#0x0
??SampleApp_ProcessEvent_9:
        MOV     R7,#0x4
        LJMP    ?BANKED_LEAVE_XDATA
        CFI EndBlock cfiBlock2
//  371 }
//  372 /*********************************************************************
//  373  * LOCAL FUNCTIONS
//  374  */
//  375 
//  376 /*********************************************************************
//  377  * @fn      SampleApp_MessageMSGCB
//  378  *
//  379  * @brief   Data message processor callback.  This function processes
//  380  *          any incoming data - probably from other devices.  So, based
//  381  *          on cluster ID, perform the intended action.
//  382  *
//  383  * @param   none
//  384  *
//  385  * @return  none
//  386  */
//  387 #if WIFI_CHANNEL_EABLE  

        RSEG XDATA_Z:XDATA:NOROOT(0)
        DATA8
//  388   uint8 WiFiSendBuf[10]={0};
WiFiSendBuf:
        DS 10
        REQUIRE __INIT_XDATA_Z
//  389 
//  390 #endif   

        RSEG XDATA_Z:XDATA:NOROOT(0)
        DATA16
//  391 uint16 _u16temp;
_u16temp:
        DS 2
        REQUIRE __INIT_XDATA_Z

        RSEG BANKED_CODE:CODE:NOROOT(0)
//  392 void SampleApp_MessageMSGCB( afIncomingMSGPacket_t *pkt )
SampleApp_MessageMSGCB:
        CFI Block cfiBlock3 Using cfiCommon0
        CFI Function SampleApp_MessageMSGCB
        CODE
//  393 { 
        FUNCALL SampleApp_MessageMSGCB, ResponeBind
        LOCFRAME ISTACK, 0, STACK
        LOCFRAME PSTACK, 0, STACK
        LOCFRAME XSTACK, 10, STACK
        LOCFRAME IOVERLAY, 0, STATIC
        LOCFRAME DOVERLAY, 0, STATIC
        ARGFRAME ISTACK, 0, STACK
        ARGFRAME PSTACK, 0, STACK
        ARGFRAME XSTACK, 10, STACK
        ARGFRAME IOVERLAY, 0, STATIC
        ARGFRAME DOVERLAY, 0, STATIC
        FUNCALL SampleApp_MessageMSGCB, FanOff
        LOCFRAME ISTACK, 0, STACK
        LOCFRAME PSTACK, 0, STACK
        LOCFRAME XSTACK, 10, STACK
        LOCFRAME IOVERLAY, 0, STATIC
        LOCFRAME DOVERLAY, 0, STATIC
        ARGFRAME ISTACK, 0, STACK
        ARGFRAME PSTACK, 0, STACK
        ARGFRAME XSTACK, 10, STACK
        ARGFRAME IOVERLAY, 0, STATIC
        ARGFRAME DOVERLAY, 0, STATIC
        FUNCALL SampleApp_MessageMSGCB, printf
        LOCFRAME ISTACK, 0, STACK
        LOCFRAME PSTACK, 0, STACK
        LOCFRAME XSTACK, 10, STACK
        LOCFRAME IOVERLAY, 0, STATIC
        LOCFRAME DOVERLAY, 0, STATIC
        ARGFRAME ISTACK, 0, STACK
        ARGFRAME PSTACK, 0, STACK
        ARGFRAME XSTACK, 10, STACK
        ARGFRAME IOVERLAY, 0, STATIC
        ARGFRAME DOVERLAY, 0, STATIC
        FUNCALL SampleApp_MessageMSGCB, FanOn
        LOCFRAME ISTACK, 0, STACK
        LOCFRAME PSTACK, 0, STACK
        LOCFRAME XSTACK, 10, STACK
        LOCFRAME IOVERLAY, 0, STATIC
        LOCFRAME DOVERLAY, 0, STATIC
        ARGFRAME ISTACK, 0, STACK
        ARGFRAME PSTACK, 0, STACK
        ARGFRAME XSTACK, 10, STACK
        ARGFRAME IOVERLAY, 0, STATIC
        ARGFRAME DOVERLAY, 0, STATIC
        FUNCALL SampleApp_MessageMSGCB, printf
        LOCFRAME ISTACK, 0, STACK
        LOCFRAME PSTACK, 0, STACK
        LOCFRAME XSTACK, 10, STACK
        LOCFRAME IOVERLAY, 0, STATIC
        LOCFRAME DOVERLAY, 0, STATIC
        ARGFRAME ISTACK, 0, STACK
        ARGFRAME PSTACK, 0, STACK
        ARGFRAME XSTACK, 10, STACK
        ARGFRAME IOVERLAY, 0, STATIC
        ARGFRAME DOVERLAY, 0, STATIC
        MOV     A,#-0xa
        LCALL   ?BANKED_ENTER_XDATA
        CFI DPH0 load(1, XDATA, add(CFA_XSP16, literal(-1)))
        CFI DPL0 load(1, XDATA, add(CFA_XSP16, literal(-2)))
        CFI ?BRET_EXT load(1, XDATA, add(CFA_XSP16, literal(-3)))
        CFI ?RET_HIGH load(1, XDATA, add(CFA_XSP16, literal(-4)))
        CFI ?RET_LOW load(1, XDATA, add(CFA_XSP16, literal(-5)))
        CFI R7 load(1, XDATA, add(CFA_XSP16, literal(-6)))
        CFI V1 load(1, XDATA, add(CFA_XSP16, literal(-7)))
        CFI V0 load(1, XDATA, add(CFA_XSP16, literal(-8)))
        CFI VB load(1, XDATA, add(CFA_XSP16, literal(-9)))
        CFI R6 load(1, XDATA, add(CFA_XSP16, literal(-10)))
        CFI CFA_SP SP+0
        CFI CFA_XSP16 add(XSP16, 10)
        ; Saved register size: 10
        ; Auto size: 0
//  394   switch ( pkt->clusterId )
        MOV     DPL,R2
        MOV     DPH,R3
        INC     DPTR
        INC     DPTR
        INC     DPTR
        INC     DPTR
        MOVX    A,@DPTR
        MOV     ?V0 + 0,A
        INC     DPTR
        MOVX    A,@DPTR
        MOV     ?V0 + 1,A
        MOV     R0,#?V0 + 0
        LCALL   ?US_SWITCH_SPARSE
`?<Jumptable for SampleApp_MessageMSGCB>_0`:
        DATA
        DATA16
        DATA
        DATA16
        DATA
        DATA16
        DW        0
        DATA
        DATA16
        DATA
        DATA16
        DATA
        DATA16
        DW        2
        DATA
        DATA16
        DATA
        DATA16
        DATA
        DATA16
        DW        1
        DATA
        DATA16
        DATA
        DATA16
        DATA
        DATA16
        DW        ??SampleApp_MessageMSGCB_0
        DATA
        DATA16
        DATA
        DATA16
        DATA
        DATA16
        DW        64
        DATA
        DATA16
        DATA
        DATA16
        DATA
        DATA16
        DW        ??SampleApp_MessageMSGCB_1
        DATA
        DATA16
        DATA
        DATA16
        DW        ??SampleApp_MessageMSGCB_2
        CODE
//  395   {
//  396     case BIND_REQUEST_CMD_ID:
//  397          _u16temp = FAN_CONTROL_CMD_ID;  
??SampleApp_MessageMSGCB_1:
        MOV     DPTR,#_u16temp
        MOV     A,#0x1
        MOVX    @DPTR,A
        INC     DPTR
        CLR     A
        MOVX    @DPTR,A
//  398          ResponeBind(&_u16temp,&pkt->srcAddr);
        ; Setup parameters for call to function ResponeBind
        MOV     A,R2
        ADD     A,#0x6
        MOV     R4,A
        MOV     A,R3
        ADDC    A,#0x0
        MOV     R5,A
        MOV     R2,#_u16temp & 0xff
        MOV     R3,#(_u16temp >> 8) & 0xff
        LCALL   ??ResponeBind?relay
//  399       break;
        SJMP    ??SampleApp_MessageMSGCB_2
//  400     case FAN_CONTROL_CMD_ID:
//  401          if(pkt->cmd.Data[0] == 0)
??SampleApp_MessageMSGCB_0:
        MOV     A,R2
        ADD     A,#0x21
        MOV     R0,A
        MOV     A,R3
        ADDC    A,#0x0
        MOV     R1,A
        MOV     DPL,R0
        MOV     DPH,R1
        MOVX    A,@DPTR
        MOV     R2,A
        INC     DPTR
        MOVX    A,@DPTR
        MOV     DPH,A
        MOV     DPL,R2
        MOVX    A,@DPTR
        JNZ     ??SampleApp_MessageMSGCB_3
//  402          {
//  403            FanOff();
        ; Setup parameters for call to function FanOff
        LCALL   ??FanOff?relay
//  404            printf("fan off\r\n");
        ; Setup parameters for call to function printf
        MOV     R2,#`?<Constant "fan off\\r\\n">` & 0xff
        MOV     R3,#(`?<Constant "fan off\\r\\n">` >> 8) & 0xff
        SJMP    ??SampleApp_MessageMSGCB_4
//  405          }
//  406          else if(pkt->cmd.Data[0] == 1)
??SampleApp_MessageMSGCB_3:
        MOV     DPL,R0
        MOV     DPH,R1
        MOVX    A,@DPTR
        MOV     R0,A
        INC     DPTR
        MOVX    A,@DPTR
        MOV     DPH,A
        MOV     DPL,R0
        MOVX    A,@DPTR
        XRL     A,#0x1
        JNZ     ??SampleApp_MessageMSGCB_2
//  407          {
//  408            FanOn();
        ; Setup parameters for call to function FanOn
        LCALL   ??FanOn?relay
//  409            printf("fan on\r\n");           
        ; Setup parameters for call to function printf
        MOV     R2,#`?<Constant "fan on\\r\\n">` & 0xff
        MOV     R3,#(`?<Constant "fan on\\r\\n">` >> 8) & 0xff
??SampleApp_MessageMSGCB_4:
        LCALL   ??printf?relay
//  410          }
//  411       break;
//  412   }
//  413 }
??SampleApp_MessageMSGCB_2:
        MOV     R7,#0x2
        LJMP    ?BANKED_LEAVE_XDATA
        CFI EndBlock cfiBlock3
//  414 /*
//  415 终端发送温湿度值
//  416 */

        RSEG BANKED_CODE:CODE:NOROOT(0)
//  417 void PointToPoint_SendTemperature(void)
PointToPoint_SendTemperature:
        CFI Block cfiBlock4 Using cfiCommon0
        CFI Function PointToPoint_SendTemperature
        CODE
//  418 {
        ; Saved register size: 0
        ; Auto size: 0
//  419 }
        LJMP    ?BRET
        CFI EndBlock cfiBlock4

        RSEG XDATA_ID:CODE:NOROOT(0)
`?<Initializer for SendTemperatureIndicate>`:
        DATA8
        DB 1

        RSEG BANK_RELAYS:CODE:REORDER:NOROOT(0)
??osalInitTasks?relay:
        LCALL   ?BDISPATCH
        DATA
        DC24    osalInitTasks

        RSEG BANK_RELAYS:CODE:REORDER:NOROOT(0)
??SampleApp_Init?relay:
        LCALL   ?BDISPATCH
        DATA
        DC24    SampleApp_Init

        RSEG BANK_RELAYS:CODE:REORDER:NOROOT(0)
??SampleApp_ProcessEvent?relay:
        LCALL   ?BDISPATCH
        DATA
        DC24    SampleApp_ProcessEvent

        RSEG BANK_RELAYS:CODE:REORDER:NOROOT(0)
??SampleApp_MessageMSGCB?relay:
        LCALL   ?BDISPATCH
        DATA
        DC24    SampleApp_MessageMSGCB

        RSEG BANK_RELAYS:CODE:REORDER:NOROOT(0)
??PointToPoint_SendTemperature?relay:
        LCALL   ?BDISPATCH
        DATA
        DC24    PointToPoint_SendTemperature

        RSEG XDATA_ROM_C:CONST:REORDER:NOROOT(0)
        DATA8
`?<Constant "i am end device\\r\\n">`:
        DB "i am end device\015\012"

        RSEG XDATA_ROM_C:CONST:REORDER:NOROOT(0)
        DATA8
`?<Constant "end device">`:
        DB "end device"

        RSEG XDATA_ROM_C:CONST:REORDER:NOROOT(0)
        DATA8
`?<Constant "SampleApp_NwkState=%d\\r\\n">`:
        DB "SampleApp_NwkState=%d\015\012"

        RSEG XDATA_ROM_C:CONST:REORDER:NOROOT(0)
        DATA8
`?<Constant "connect coordinator\\r\\n">`:
        DB "connect coordinator\015\012"

        RSEG XDATA_ROM_C:CONST:REORDER:NOROOT(0)
        DATA8
`?<Constant "lost network\\r\\n">`:
        DB "lost network\015\012"

        RSEG XDATA_ROM_C:CONST:REORDER:NOROOT(0)
        DATA8
`?<Constant "fan off\\r\\n">`:
        DB "fan off\015\012"

        RSEG XDATA_ROM_C:CONST:REORDER:NOROOT(0)
        DATA8
`?<Constant "fan on\\r\\n">`:
        DB "fan on\015\012"

        END
//  420 
//  421 
//  422 
//  423 /*********************************************************************
//  424 *********************************************************************/
// 
// 443 bytes in segment BANKED_CODE
//  30 bytes in segment BANK_RELAYS
//   1 byte  in segment XDATA_I
//   1 byte  in segment XDATA_ID
// 136 bytes in segment XDATA_ROM_C
//  81 bytes in segment XDATA_Z
// 
// 474 bytes of CODE  memory
// 136 bytes of CONST memory
//  82 bytes of XDATA memory
//
//Errors: none
//Warnings: none
