///////////////////////////////////////////////////////////////////////////////
//                                                                            /
// IAR C/C++ Compiler V8.10.3.10338/W32 for 8051        23/Feb/2019  21:24:46 /
// Copyright 2004-2011 IAR Systems AB.                                        /
//                                                                            /
//    Core               =  plain                                             /
//    Code model         =  banked                                            /
//    Data model         =  large                                             /
//    Calling convention =  xdata reentrant                                   /
//    Constant location  =  data_rom                                          /
//    Dptr setup         =  1,16                                              /
//    Source file        =  D:\ZigBee\KJXY-ZigBee\useful_code\ZigBee-Ext\poin /
//                          t2point\Projects\zstack\Samples\SampleApp\Source\ /
//                          SampleApp.c                                       /
//    Command line       =  -f D:\ZigBee\KJXY-ZigBee\useful_code\ZigBee-Ext\p /
//                          oint2point\Projects\zstack\Samples\SampleApp\CC25 /
//                          30DB\..\..\..\Tools\CC2530DB\f8wEndev.cfg         /
//                          (-DCPU32MHZ -DROOT=__near_func -DBLINK_LEDS) -f   /
//                          D:\ZigBee\KJXY-ZigBee\useful_code\ZigBee-Ext\poin /
//                          t2point\Projects\zstack\Samples\SampleApp\CC2530D /
//                          B\..\..\..\Tools\CC2530DB\f8wConfig.cfg           /
//                          (-DSECURE=0 -DZG_SECURE_DYNAMIC=0 -DREFLECTOR     /
//                          -DDEFAULT_CHANLIST=0x00000800                     /
//                          -DZDAPP_CONFIG_PAN_ID=0xFF11                      /
//                          -DNWK_START_DELAY=100 -DEXTENDED_JOINING_RANDOM_M /
//                          ASK=0x007F -DBEACON_REQUEST_DELAY=100             /
//                          -DBEACON_REQ_DELAY_MASK=0x00FF                    /
//                          -DROUTE_EXPIRY_TIME=30 -DAPSC_ACK_WAIT_DURATION_P /
//                          OLLED=3000 -DNWK_INDIRECT_MSG_TIMEOUT=7           /
//                          -DMAX_RREQ_ENTRIES=8 -DAPSC_MAX_FRAME_RETRIES=3   /
//                          -DNWK_MAX_DATA_RETRIES=2                          /
//                          -DMAX_POLL_FAILURE_RETRIES=2 -DMAX_BCAST=9        /
//                          -DAPS_MAX_GROUPS=16 -DMAX_RTG_ENTRIES=40          /
//                          -DNWK_MAX_BINDING_ENTRIES=4                       /
//                          -DMAX_BINDING_CLUSTER_IDS=4                       /
//                          "-DDEFAULT_KEY={0x01, 0x03, 0x05, 0x07, 0x09,     /
//                          0x0B, 0x0D, 0x0F, 0x00, 0x02, 0x04, 0x06, 0x08,   /
//                          0x0A, 0x0C, 0x0D}" -DMAC_MAX_FRAME_SIZE=116       /
//                          "-DCONST=const __code" -DGENERIC=__generic        /
//                          -DRFD_RCVC_ALWAYS_ON=FALSE -DPOLL_RATE=1000       /
//                          -DQUEUED_POLL_RATE=100 -DRESPONSE_POLL_RATE=100)  /
//                          -DREJOIN_POLL_RATE=440 D:\ZigBee\KJXY-ZigBee\usef /
//                          ul_code\ZigBee-Ext\point2point\Projects\zstack\Sa /
//                          mples\SampleApp\Source\SampleApp.c -D             /
//                          NWK_AUTO_POLL -D ZTOOL_P1 -D MT_SYS_FUNC -D       /
//                          MT_ZDO_FUNC -D LCD_SUPPORTED=DEBUG -lC            /
//                          D:\ZigBee\KJXY-ZigBee\useful_code\ZigBee-Ext\poin /
//                          t2point\Projects\zstack\Samples\SampleApp\CC2530D /
//                          B\EndDeviceEB\List\ -lA                           /
//                          D:\ZigBee\KJXY-ZigBee\useful_code\ZigBee-Ext\poin /
//                          t2point\Projects\zstack\Samples\SampleApp\CC2530D /
//                          B\EndDeviceEB\List\ --diag_suppress Pe001,Pa010   /
//                          -o D:\ZigBee\KJXY-ZigBee\useful_code\ZigBee-Ext\p /
//                          oint2point\Projects\zstack\Samples\SampleApp\CC25 /
//                          30DB\EndDeviceEB\Obj\ -e --no_unroll --no_inline  /
//                          --no_tbaa --debug --core=plain --dptr=16,1        /
//                          --data_model=large --code_model=banked            /
//                          --calling_convention=xdata_reentrant              /
//                          --place_constants=data_rom --nr_virtual_regs 16   /
//                          -I D:\ZigBee\KJXY-ZigBee\useful_code\ZigBee-Ext\p /
//                          oint2point\Projects\zstack\Samples\SampleApp\CC25 /
//                          30DB\ -I D:\ZigBee\KJXY-ZigBee\useful_code\ZigBee /
//                          -Ext\point2point\Projects\zstack\Samples\SampleAp /
//                          p\CC2530DB\..\SOURCE\ -I                          /
//                          D:\ZigBee\KJXY-ZigBee\useful_code\ZigBee-Ext\poin /
//                          t2point\Projects\zstack\Samples\SampleApp\CC2530D /
//                          B\..\..\..\ZMAIN\TI2530DB\ -I                     /
//                          D:\ZigBee\KJXY-ZigBee\useful_code\ZigBee-Ext\poin /
//                          t2point\Projects\zstack\Samples\SampleApp\CC2530D /
//                          B\..\..\..\..\..\COMPONENTS\MT\ -I                /
//                          D:\ZigBee\KJXY-ZigBee\useful_code\ZigBee-Ext\poin /
//                          t2point\Projects\zstack\Samples\SampleApp\CC2530D /
//                          B\..\..\..\..\..\COMPONENTS\HAL\INCLUDE\ -I       /
//                          D:\ZigBee\KJXY-ZigBee\useful_code\ZigBee-Ext\poin /
//                          t2point\Projects\zstack\Samples\SampleApp\CC2530D /
//                          B\..\..\..\..\..\COMPONENTS\HAL\TARGET\CC2530EB\  /
//                          -I D:\ZigBee\KJXY-ZigBee\useful_code\ZigBee-Ext\p /
//                          oint2point\Projects\zstack\Samples\SampleApp\CC25 /
//                          30DB\..\..\..\..\..\COMPONENTS\OSAL\MCU\CCSOC\    /
//                          -I D:\ZigBee\KJXY-ZigBee\useful_code\ZigBee-Ext\p /
//                          oint2point\Projects\zstack\Samples\SampleApp\CC25 /
//                          30DB\..\..\..\..\..\COMPONENTS\OSAL\INCLUDE\ -I   /
//                          D:\ZigBee\KJXY-ZigBee\useful_code\ZigBee-Ext\poin /
//                          t2point\Projects\zstack\Samples\SampleApp\CC2530D /
//                          B\..\..\..\..\..\COMPONENTS\STACK\AF\ -I          /
//                          D:\ZigBee\KJXY-ZigBee\useful_code\ZigBee-Ext\poin /
//                          t2point\Projects\zstack\Samples\SampleApp\CC2530D /
//                          B\..\..\..\..\..\COMPONENTS\STACK\NWK\ -I         /
//                          D:\ZigBee\KJXY-ZigBee\useful_code\ZigBee-Ext\poin /
//                          t2point\Projects\zstack\Samples\SampleApp\CC2530D /
//                          B\..\..\..\..\..\COMPONENTS\STACK\SEC\ -I         /
//                          D:\ZigBee\KJXY-ZigBee\useful_code\ZigBee-Ext\poin /
//                          t2point\Projects\zstack\Samples\SampleApp\CC2530D /
//                          B\..\..\..\..\..\COMPONENTS\STACK\SAPI\ -I        /
//                          D:\ZigBee\KJXY-ZigBee\useful_code\ZigBee-Ext\poin /
//                          t2point\Projects\zstack\Samples\SampleApp\CC2530D /
//                          B\..\..\..\..\..\COMPONENTS\STACK\SYS\ -I         /
//                          D:\ZigBee\KJXY-ZigBee\useful_code\ZigBee-Ext\poin /
//                          t2point\Projects\zstack\Samples\SampleApp\CC2530D /
//                          B\..\..\..\..\..\COMPONENTS\STACK\ZDO\ -I         /
//                          D:\ZigBee\KJXY-ZigBee\useful_code\ZigBee-Ext\poin /
//                          t2point\Projects\zstack\Samples\SampleApp\CC2530D /
//                          B\..\..\..\..\..\COMPONENTS\ZMAC\F8W\ -I          /
//                          D:\ZigBee\KJXY-ZigBee\useful_code\ZigBee-Ext\poin /
//                          t2point\Projects\zstack\Samples\SampleApp\CC2530D /
//                          B\..\..\..\..\..\COMPONENTS\ZMAC\ -I              /
//                          D:\ZigBee\KJXY-ZigBee\useful_code\ZigBee-Ext\poin /
//                          t2point\Projects\zstack\Samples\SampleApp\CC2530D /
//                          B\..\..\..\..\..\COMPONENTS\SERVICES\SADDR\ -I    /
//                          D:\ZigBee\KJXY-ZigBee\useful_code\ZigBee-Ext\poin /
//                          t2point\Projects\zstack\Samples\SampleApp\CC2530D /
//                          B\..\..\..\..\..\COMPONENTS\SERVICES\SDATA\ -I    /
//                          D:\ZigBee\KJXY-ZigBee\useful_code\ZigBee-Ext\poin /
//                          t2point\Projects\zstack\Samples\SampleApp\CC2530D /
//                          B\..\..\..\..\..\COMPONENTS\MAC\INCLUDE\ -I       /
//                          D:\ZigBee\KJXY-ZigBee\useful_code\ZigBee-Ext\poin /
//                          t2point\Projects\zstack\Samples\SampleApp\CC2530D /
//                          B\..\..\..\..\..\COMPONENTS\MAC\HIGH_LEVEL\ -I    /
//                          D:\ZigBee\KJXY-ZigBee\useful_code\ZigBee-Ext\poin /
//                          t2point\Projects\zstack\Samples\SampleApp\CC2530D /
//                          B\..\..\..\..\..\COMPONENTS\MAC\LOW_LEVEL\srf04\  /
//                          -I D:\ZigBee\KJXY-ZigBee\useful_code\ZigBee-Ext\p /
//                          oint2point\Projects\zstack\Samples\SampleApp\CC25 /
//                          30DB\..\..\..\..\..\COMPONENTS\MAC\LOW_LEVEL\srf0 /
//                          4\SINGLE_CHIP\ -I D:\ZigBee\KJXY-ZigBee\useful_co /
//                          de\ZigBee-Ext\point2point\Projects\zstack\Samples /
//                          \SampleApp\CC2530DB\..\..\..\..\..\COMPONENTS\HAR /
//                          DWARE\ -Om                                        /
//    List file          =  D:\ZigBee\KJXY-ZigBee\useful_code\ZigBee-Ext\poin /
//                          t2point\Projects\zstack\Samples\SampleApp\CC2530D /
//                          B\EndDeviceEB\List\SampleApp.s51                  /
//                                                                            /
//                                                                            /
///////////////////////////////////////////////////////////////////////////////

        NAME SampleApp

        RTMODEL "__SystemLibrary", "CLib"
        RTMODEL "__calling_convention", "xdata_reentrant"
        RTMODEL "__code_model", "banked"
        RTMODEL "__core", "plain"
        RTMODEL "__data_model", "large"
        RTMODEL "__dptr_size", "16"
        RTMODEL "__extended_stack", "disabled"
        RTMODEL "__location_for_constants", "data"
        RTMODEL "__number_of_dptrs", "1"
        RTMODEL "__rt_version", "1"

        RSEG DOVERLAY:DATA:NOROOT(0)
        RSEG IOVERLAY:IDATA:NOROOT(0)
        RSEG ISTACK:IDATA:NOROOT(0)
        RSEG PSTACK:XDATA:NOROOT(0)
        RSEG XSTACK:XDATA:NOROOT(0)

        EXTERN ?ALLOC_XSTACK8
        EXTERN ?BANKED_ENTER_XDATA
        EXTERN ?BANKED_LEAVE_XDATA
        EXTERN ?BDISPATCH
        EXTERN ?DEALLOC_XSTACK8
        EXTERN ?MOVE_LONG8_XDATA_XDATA
        EXTERN ?PUSH_XSTACK_I_ONE
        EXTERN ?PUSH_XSTACK_I_TWO
        EXTERN ?V0
        EXTERN ?XSP
        EXTERN ?XSTACK_DISP0_8
        EXTERN __INIT_XDATA_I
        EXTERN __INIT_XDATA_Z

        PUBLIC ??PointToPoint_SendTemperature?relay
        FUNCTION ??PointToPoint_SendTemperature?relay,0203H
        PUBLIC ??SampleApp_Init?relay
        FUNCTION ??SampleApp_Init?relay,0203H
        PUBLIC ??SampleApp_MessageMSGCB?relay
        FUNCTION ??SampleApp_MessageMSGCB?relay,0203H
        PUBLIC ??SampleApp_ProcessEvent?relay
        FUNCTION ??SampleApp_ProcessEvent?relay,0203H
        PUBLIC DisplaySw
        PUBLIC PointToPoint_SendTemperature
        FUNCTION PointToPoint_SendTemperature,021203H
        ARGFRAME XSTACK, 12, STACK
        ARGFRAME IOVERLAY, 0, STATIC
        ARGFRAME DOVERLAY, 0, STATIC
        LOCFRAME ISTACK, 1, STACK
        LOCFRAME XSTACK, 21, STACK
        PUBLIC Point_To_Point_DstAddr
        PUBLIC SampleAppFlashCounter
        PUBLIC SampleAppPeriodicCounter
        PUBLIC SampleApp_ClusterList
        PUBLIC SampleApp_Flash_DstAddr
        PUBLIC SampleApp_Group
        PUBLIC SampleApp_Init
        FUNCTION SampleApp_Init,021203H
        ARGFRAME XSTACK, 0, STACK
        LOCFRAME XSTACK, 9, STACK
        PUBLIC SampleApp_MessageMSGCB
        FUNCTION SampleApp_MessageMSGCB,021203H
        ARGFRAME XSTACK, 12, STACK
        ARGFRAME IOVERLAY, 0, STATIC
        ARGFRAME DOVERLAY, 0, STATIC
        LOCFRAME ISTACK, 2, STACK
        LOCFRAME XSTACK, 38, STACK
        PUBLIC SampleApp_NwkState
        PUBLIC SampleApp_Periodic_DstAddr
        PUBLIC SampleApp_ProcessEvent
        FUNCTION SampleApp_ProcessEvent,021203H
        ARGFRAME XSTACK, 0, STACK
        LOCFRAME XSTACK, 12, STACK
        PUBLIC SampleApp_SimpleDesc
        PUBLIC SampleApp_TaskID
        PUBLIC SampleApp_TransID
        PUBLIC SampleApp_epDesc
        PUBLIC SendTemperatureIndicate
        PUBLIC WiFiSendBuf
        PUBLIC test
        
        CFI Names cfiNames0
        CFI StackFrame CFA_SP SP IDATA
        CFI StackFrame CFA_PSP16 PSP16 XDATA
        CFI StackFrame CFA_XSP16 XSP16 XDATA
        CFI StaticOverlayFrame CFA_IOVERLAY IOVERLAY
        CFI StaticOverlayFrame CFA_DOVERLAY DOVERLAY
        CFI Resource `PSW.CY`:1, `B.BR0`:1, `B.BR1`:1, `B.BR2`:1, `B.BR3`:1
        CFI Resource `B.BR4`:1, `B.BR5`:1, `B.BR6`:1, `B.BR7`:1, `VB.BR8`:1
        CFI Resource `VB.BR9`:1, `VB.BR10`:1, `VB.BR11`:1, `VB.BR12`:1
        CFI Resource `VB.BR13`:1, `VB.BR14`:1, `VB.BR15`:1, VB:8, B:8, A:8
        CFI Resource PSW:8, DPL0:8, DPH0:8, R0:8, R1:8, R2:8, R3:8, R4:8, R5:8
        CFI Resource R6:8, R7:8, V0:8, V1:8, V2:8, V3:8, V4:8, V5:8, V6:8, V7:8
        CFI Resource V8:8, V9:8, V10:8, V11:8, V12:8, V13:8, V14:8, V15:8, SP:8
        CFI Resource PSPH:8, PSPL:8, PSP16:16, XSPH:8, XSPL:8, XSP16:16
        CFI VirtualResource ?RET:24
        CFI Resource ?BRET_EXT:8
        CFI VirtualResource ?RET_HIGH:8, ?RET_LOW:8
        CFI ResourceParts PSP16 PSPH, PSPL
        CFI ResourceParts XSP16 XSPH, XSPL
        CFI ResourceParts ?RET ?BRET_EXT, ?RET_HIGH, ?RET_LOW
        CFI EndNames cfiNames0
        
        CFI Common cfiCommon0 Using cfiNames0
        CFI CodeAlign 1
        CFI DataAlign -1
        CFI ReturnAddress ?RET CODE
        CFI CFA_DOVERLAY Used
        CFI CFA_IOVERLAY Used
        CFI CFA_SP SP+-3
        CFI CFA_PSP16 PSP16+0
        CFI CFA_XSP16 XSP16+0
        CFI `PSW.CY` SameValue
        CFI `B.BR0` SameValue
        CFI `B.BR1` SameValue
        CFI `B.BR2` SameValue
        CFI `B.BR3` SameValue
        CFI `B.BR4` SameValue
        CFI `B.BR5` SameValue
        CFI `B.BR6` SameValue
        CFI `B.BR7` SameValue
        CFI `VB.BR8` SameValue
        CFI `VB.BR9` SameValue
        CFI `VB.BR10` SameValue
        CFI `VB.BR11` SameValue
        CFI `VB.BR12` SameValue
        CFI `VB.BR13` SameValue
        CFI `VB.BR14` SameValue
        CFI `VB.BR15` SameValue
        CFI VB SameValue
        CFI B Undefined
        CFI A Undefined
        CFI PSW SameValue
        CFI DPL0 SameValue
        CFI DPH0 SameValue
        CFI R0 Undefined
        CFI R1 Undefined
        CFI R2 Undefined
        CFI R3 Undefined
        CFI R4 Undefined
        CFI R5 Undefined
        CFI R6 SameValue
        CFI R7 SameValue
        CFI V0 SameValue
        CFI V1 SameValue
        CFI V2 SameValue
        CFI V3 SameValue
        CFI V4 SameValue
        CFI V5 SameValue
        CFI V6 SameValue
        CFI V7 SameValue
        CFI V8 SameValue
        CFI V9 SameValue
        CFI V10 SameValue
        CFI V11 SameValue
        CFI V12 SameValue
        CFI V13 SameValue
        CFI V14 SameValue
        CFI V15 SameValue
        CFI PSPH Undefined
        CFI PSPL Undefined
        CFI XSPH Undefined
        CFI XSPL Undefined
        CFI ?RET Concat
        CFI ?BRET_EXT Frame(CFA_SP, 3)
        CFI ?RET_HIGH Frame(CFA_SP, 2)
        CFI ?RET_LOW Frame(CFA_SP, 1)
        CFI EndCommon cfiCommon0
        
printf              SYMBOL "printf"
OLED_P8x16Str       SYMBOL "OLED_P8x16Str"
afRegister          SYMBOL "afRegister"
osal_set_event      SYMBOL "osal_set_event"
osal_msg_receive    SYMBOL "osal_msg_receive"
osal_start_timerEx  SYMBOL "osal_start_timerEx"
osal_msg_deallocate SYMBOL "osal_msg_deallocate"
Bottom_Blue         SYMBOL "Bottom_Blue"
Bottom_BlackOut     SYMBOL "Bottom_BlackOut"
osal_rand           SYMBOL "osal_rand"
SHT2x_DisplayHumi   SYMBOL "SHT2x_DisplayHumi"
SHT2x_DisplayTemp   SYMBOL "SHT2x_DisplayTemp"
SendToWiFiNetwork   SYMBOL "SendToWiFiNetwork"
SHT2x_GetTemp       SYMBOL "SHT2x_GetTemp"
SHT2x_GetHumi       SYMBOL "SHT2x_GetHumi"
AF_DataRequest      SYMBOL "AF_DataRequest"
??AF_DataRequest?relay SYMBOL "?relay", AF_DataRequest
??Bottom_BlackOut?relay SYMBOL "?relay", Bottom_BlackOut
??Bottom_Blue?relay SYMBOL "?relay", Bottom_Blue
??OLED_P8x16Str?relay SYMBOL "?relay", OLED_P8x16Str
??SHT2x_DisplayHumi?relay SYMBOL "?relay", SHT2x_DisplayHumi
??SHT2x_DisplayTemp?relay SYMBOL "?relay", SHT2x_DisplayTemp
??SHT2x_GetHumi?relay SYMBOL "?relay", SHT2x_GetHumi
??SHT2x_GetTemp?relay SYMBOL "?relay", SHT2x_GetTemp
??SendToWiFiNetwork?relay SYMBOL "?relay", SendToWiFiNetwork
??afRegister?relay  SYMBOL "?relay", afRegister
??osal_msg_deallocate?relay SYMBOL "?relay", osal_msg_deallocate
??osal_msg_receive?relay SYMBOL "?relay", osal_msg_receive
??osal_rand?relay   SYMBOL "?relay", osal_rand
??osal_set_event?relay SYMBOL "?relay", osal_set_event
??osal_start_timerEx?relay SYMBOL "?relay", osal_start_timerEx
??printf?relay      SYMBOL "?relay", printf
PointToPoint_SendTemperature SYMBOL "PointToPoint_SendTemperature"
??PointToPoint_SendTemperature?relay SYMBOL "?relay", PointToPoint_SendTemperature
SampleApp_Init      SYMBOL "SampleApp_Init"
??SampleApp_Init?relay SYMBOL "?relay", SampleApp_Init
SampleApp_MessageMSGCB SYMBOL "SampleApp_MessageMSGCB"
??SampleApp_MessageMSGCB?relay SYMBOL "?relay", SampleApp_MessageMSGCB
SampleApp_ProcessEvent SYMBOL "SampleApp_ProcessEvent"
??SampleApp_ProcessEvent?relay SYMBOL "?relay", SampleApp_ProcessEvent

        EXTERN printf
        FUNCTION printf,0202H
        ARGFRAME ISTACK, 0, STACK
        ARGFRAME PSTACK, 0, STACK
        ARGFRAME XSTACK, 38, STACK
        ARGFRAME IOVERLAY, 0, STATIC
        ARGFRAME DOVERLAY, 0, STATIC
        EXTERN OLED_P8x16Str
        FUNCTION OLED_P8x16Str,0202H
        ARGFRAME ISTACK, 0, STACK
        ARGFRAME PSTACK, 0, STACK
        ARGFRAME XSTACK, 36, STACK
        ARGFRAME IOVERLAY, 0, STATIC
        ARGFRAME DOVERLAY, 0, STATIC
        EXTERN afRegister
        FUNCTION afRegister,0202H
        ARGFRAME ISTACK, 0, STACK
        ARGFRAME PSTACK, 0, STACK
        ARGFRAME XSTACK, 9, STACK
        ARGFRAME IOVERLAY, 0, STATIC
        ARGFRAME DOVERLAY, 0, STATIC
        EXTERN osal_set_event
        FUNCTION osal_set_event,0202H
        ARGFRAME ISTACK, 0, STACK
        ARGFRAME PSTACK, 0, STACK
        ARGFRAME XSTACK, 9, STACK
        ARGFRAME IOVERLAY, 0, STATIC
        ARGFRAME DOVERLAY, 0, STATIC
        EXTERN osal_msg_receive
        FUNCTION osal_msg_receive,0202H
        ARGFRAME ISTACK, 0, STACK
        ARGFRAME PSTACK, 0, STACK
        ARGFRAME XSTACK, 12, STACK
        ARGFRAME IOVERLAY, 0, STATIC
        ARGFRAME DOVERLAY, 0, STATIC
        EXTERN osal_start_timerEx
        FUNCTION osal_start_timerEx,0202H
        ARGFRAME ISTACK, 0, STACK
        ARGFRAME PSTACK, 0, STACK
        ARGFRAME XSTACK, 12, STACK
        ARGFRAME IOVERLAY, 0, STATIC
        ARGFRAME DOVERLAY, 0, STATIC
        EXTERN osal_msg_deallocate
        FUNCTION osal_msg_deallocate,0202H
        ARGFRAME ISTACK, 0, STACK
        ARGFRAME PSTACK, 0, STACK
        ARGFRAME XSTACK, 12, STACK
        ARGFRAME IOVERLAY, 0, STATIC
        ARGFRAME DOVERLAY, 0, STATIC
        EXTERN Bottom_Blue
        FUNCTION Bottom_Blue,0202H
        ARGFRAME ISTACK, 0, STACK
        ARGFRAME PSTACK, 0, STACK
        ARGFRAME XSTACK, 12, STACK
        ARGFRAME IOVERLAY, 0, STATIC
        ARGFRAME DOVERLAY, 0, STATIC
        EXTERN Bottom_BlackOut
        FUNCTION Bottom_BlackOut,0202H
        ARGFRAME ISTACK, 0, STACK
        ARGFRAME PSTACK, 0, STACK
        ARGFRAME XSTACK, 12, STACK
        ARGFRAME IOVERLAY, 0, STATIC
        ARGFRAME DOVERLAY, 0, STATIC
        EXTERN osal_rand
        FUNCTION osal_rand,0202H
        ARGFRAME ISTACK, 0, STACK
        ARGFRAME PSTACK, 0, STACK
        ARGFRAME XSTACK, 12, STACK
        ARGFRAME IOVERLAY, 0, STATIC
        ARGFRAME DOVERLAY, 0, STATIC
        EXTERN SHT2x_DisplayHumi
        FUNCTION SHT2x_DisplayHumi,0202H
        ARGFRAME ISTACK, 0, STACK
        ARGFRAME PSTACK, 0, STACK
        ARGFRAME XSTACK, 12, STACK
        ARGFRAME IOVERLAY, 0, STATIC
        ARGFRAME DOVERLAY, 0, STATIC
        EXTERN SHT2x_DisplayTemp
        FUNCTION SHT2x_DisplayTemp,0202H
        ARGFRAME ISTACK, 0, STACK
        ARGFRAME PSTACK, 0, STACK
        ARGFRAME XSTACK, 12, STACK
        ARGFRAME IOVERLAY, 0, STATIC
        ARGFRAME DOVERLAY, 0, STATIC
        EXTERN SendToWiFiNetwork
        FUNCTION SendToWiFiNetwork,0202H
        ARGFRAME ISTACK, 0, STACK
        ARGFRAME PSTACK, 0, STACK
        ARGFRAME XSTACK, 36, STACK
        ARGFRAME IOVERLAY, 0, STATIC
        ARGFRAME DOVERLAY, 0, STATIC
        EXTERN SHT2x_GetTemp
        FUNCTION SHT2x_GetTemp,0202H
        ARGFRAME ISTACK, 0, STACK
        ARGFRAME PSTACK, 0, STACK
        ARGFRAME XSTACK, 12, STACK
        ARGFRAME IOVERLAY, 0, STATIC
        ARGFRAME DOVERLAY, 0, STATIC
        EXTERN SHT2x_GetHumi
        FUNCTION SHT2x_GetHumi,0202H
        ARGFRAME ISTACK, 0, STACK
        ARGFRAME PSTACK, 0, STACK
        ARGFRAME XSTACK, 12, STACK
        ARGFRAME IOVERLAY, 0, STATIC
        ARGFRAME DOVERLAY, 0, STATIC
        EXTERN AF_DataRequest
        FUNCTION AF_DataRequest,0202H
        ARGFRAME ISTACK, 0, STACK
        ARGFRAME PSTACK, 0, STACK
        ARGFRAME XSTACK, 21, STACK
        ARGFRAME IOVERLAY, 0, STATIC
        ARGFRAME DOVERLAY, 0, STATIC
        EXTERN ??AF_DataRequest?relay
        FUNCTION ??AF_DataRequest?relay,00H
        EXTERN ??Bottom_BlackOut?relay
        FUNCTION ??Bottom_BlackOut?relay,00H
        EXTERN ??Bottom_Blue?relay
        FUNCTION ??Bottom_Blue?relay,00H
        EXTERN ??OLED_P8x16Str?relay
        FUNCTION ??OLED_P8x16Str?relay,00H
        EXTERN ??SHT2x_DisplayHumi?relay
        FUNCTION ??SHT2x_DisplayHumi?relay,00H
        EXTERN ??SHT2x_DisplayTemp?relay
        FUNCTION ??SHT2x_DisplayTemp?relay,00H
        EXTERN ??SHT2x_GetHumi?relay
        FUNCTION ??SHT2x_GetHumi?relay,00H
        EXTERN ??SHT2x_GetTemp?relay
        FUNCTION ??SHT2x_GetTemp?relay,00H
        EXTERN ??SendToWiFiNetwork?relay
        FUNCTION ??SendToWiFiNetwork?relay,00H
        EXTERN ??afRegister?relay
        FUNCTION ??afRegister?relay,00H
        EXTERN ??osal_msg_deallocate?relay
        FUNCTION ??osal_msg_deallocate?relay,00H
        EXTERN ??osal_msg_receive?relay
        FUNCTION ??osal_msg_receive?relay,00H
        EXTERN ??osal_rand?relay
        FUNCTION ??osal_rand?relay,00H
        EXTERN ??osal_set_event?relay
        FUNCTION ??osal_set_event?relay,00H
        EXTERN ??osal_start_timerEx?relay
        FUNCTION ??osal_start_timerEx?relay,00H
        EXTERN ??printf?relay
        FUNCTION ??printf?relay,00H

// D:\ZigBee\KJXY-ZigBee\useful_code\ZigBee-Ext\point2point\Projects\zstack\Samples\SampleApp\Source\SampleApp.c
//    1 /**************************************************************************************************
//    2   Filename:       SampleApp.c
//    3   Revised:        $Date: 2009-03-18 15:56:27 -0700 (Wed, 18 Mar 2009) $
//    4   Revision:       $Revision: 19453 $
//    5 
//    6   Description:    Sample Application (no Profile).
//    7 
//    8 
//    9   Copyright 2007 Texas Instruments Incorporated. All rights reserved.
//   10 
//   11   IMPORTANT: Your use of this Software is limited to those specific rights
//   12   granted under the terms of a software license agreement between the user
//   13   who downloaded the software, his/her employer (which must be your employer)
//   14   and Texas Instruments Incorporated (the "License").  You may not use this
//   15   Software unless you agree to abide by the terms of the License. The License
//   16   limits your use, and you acknowledge, that the Software may not be modified,
//   17   copied or distributed unless embedded on a Texas Instruments microcontroller
//   18   or used solely and exclusively in conjunction with a Texas Instruments radio
//   19   frequency transceiver, which is integrated into your product.  Other than for
//   20   the foregoing purpose, you may not use, reproduce, copy, prepare derivative
//   21   works of, modify, distribute, perform, display or sell this Software and/or
//   22   its documentation for any purpose.
//   23 
//   24   YOU FURTHER ACKNOWLEDGE AND AGREE THAT THE SOFTWARE AND DOCUMENTATION ARE
//   25   PROVIDED AS IS?WITHOUT WARRANTY OF ANY KIND, EITHER EXPRESS OR IMPLIED,
//   26   INCLUDING WITHOUT LIMITATION, ANY WARRANTY OF MERCHANTABILITY, TITLE,
//   27   NON-INFRINGEMENT AND FITNESS FOR A PARTICULAR PURPOSE. IN NO EVENT SHALL
//   28   TEXAS INSTRUMENTS OR ITS LICENSORS BE LIABLE OR OBLIGATED UNDER CONTRACT,
//   29   NEGLIGENCE, STRICT LIABILITY, CONTRIBUTION, BREACH OF WARRANTY, OR OTHER
//   30   LEGAL EQUITABLE THEORY ANY DIRECT OR INDIRECT DAMAGES OR EXPENSES
//   31   INCLUDING BUT NOT LIMITED TO ANY INCIDENTAL, SPECIAL, INDIRECT, PUNITIVE
//   32   OR CONSEQUENTIAL DAMAGES, LOST PROFITS OR LOST DATA, COST OF PROCUREMENT
//   33   OF SUBSTITUTE GOODS, TECHNOLOGY, SERVICES, OR ANY CLAIMS BY THIRD PARTIES
//   34   (INCLUDING BUT NOT LIMITED TO ANY DEFENSE THEREOF), OR OTHER SIMILAR COSTS.
//   35 
//   36   Should you have any questions regarding your right to use this Software,
//   37   contact Texas Instruments Incorporated at www.TI.com.
//   38 **************************************************************************************************/
//   39 
//   40 /*********************************************************************
//   41   This application isn't intended to do anything useful, it is
//   42   intended to be a simple example of an application's structure.
//   43 
//   44   This application sends it's messages either as broadcast or
//   45   broadcast filtered group messages.  The other (more normal)
//   46   message addressing is unicast.  Most of the other sample
//   47   applications are written to support the unicast message model.
//   48 
//   49   Key control:
//   50     SW1:  Sends a flash command to all devices in Group 1.
//   51     SW2:  Adds/Removes (toggles) this device in and out
//   52           of Group 1.  This will enable and disable the
//   53           reception of the flash command.
//   54 *********************************************************************/
//   55 
//   56 /*********************************************************************
//   57  * INCLUDES
//   58  */
//   59 #include "OSAL.h"
//   60 #include "ZGlobals.h"
//   61 #include "AF.h"
//   62 #include "aps_groups.h"
//   63 #include "ZDApp.h"
//   64 
//   65 #include "SampleApp.h"
//   66 #include "SampleAppHw.h"
//   67 
//   68 #include "OnBoard.h"
//   69 
//   70 /* HAL */
//   71 #include "hal_lcd.h"
//   72 #include "hal_led.h"
//   73 #include "hal_key.h"
//   74 #include "string.h"
//   75 
//   76 #include "MT_UART.h"
//   77 #include "MT_APP.h"
//   78 #include "MT.h"
//   79 #include "OLED.h"
//   80 #include "SHT20.h"
//   81 #include "bottom_led.h"
//   82 #include "stdio.h"
//   83 #include "UART2RS485.h"
//   84 #include "WiFiGate.h"
//   85 
//   86 void PointToPoint_SendTemperature(void);
//   87 /*********************************************************************
//   88  * MACROS
//   89  */
//   90 
//   91 /*********************************************************************
//   92  * CONSTANTS
//   93  */
//   94 
//   95 /*********************************************************************
//   96  * TYPEDEFS
//   97  */
//   98 
//   99 /*********************************************************************
//  100  * GLOBAL VARIABLES
//  101  */
//  102 
//  103 // This list should be filled with Application specific Cluster IDs.

        RSEG XDATA_ROM_C:CONST:REORDER:NOROOT(0)
        DATA32
//  104 const cId_t SampleApp_ClusterList[SAMPLEAPP_MAX_CLUSTERS] =
SampleApp_ClusterList:
        DATA16
        DW 1
        DW 2
//  105 {
//  106   SAMPLEAPP_PERIODIC_CLUSTERID,
//  107   SAMPLEAPP_FLASH_CLUSTERID
//  108 };
//  109 

        RSEG XDATA_ROM_C:CONST:REORDER:NOROOT(0)
        DATA8
//  110 const SimpleDescriptionFormat_t SampleApp_SimpleDesc =
SampleApp_SimpleDesc:
        DB 20
        DATA16
        DW 3848
        DW 1
        DATA8
        DB 0
        DB 2
        DATA16
        DW SampleApp_ClusterList
        DATA8
        DB 2
        DATA16
        DW SampleApp_ClusterList
//  111 {
//  112   SAMPLEAPP_ENDPOINT,              //  int Endpoint;
//  113   SAMPLEAPP_PROFID,                //  uint16 AppProfId[2];
//  114   SAMPLEAPP_DEVICEID,              //  uint16 AppDeviceId[2];
//  115   SAMPLEAPP_DEVICE_VERSION,        //  int   AppDevVer:4;
//  116   SAMPLEAPP_FLAGS,                 //  int   AppFlags:4;
//  117   SAMPLEAPP_MAX_CLUSTERS,          //  uint8  AppNumInClusters;
//  118   (cId_t *)SampleApp_ClusterList,  //  uint8 *pAppInClusterList;
//  119   SAMPLEAPP_MAX_CLUSTERS,          //  uint8  AppNumInClusters;
//  120   (cId_t *)SampleApp_ClusterList   //  uint8 *pAppInClusterList;
//  121 };
//  122 // This is the Endpoint/Interface description.  It is defined here, but
//  123 // filled-in in SampleApp_Init().  Another way to go would be to fill
//  124 // in the structure here and make it a "const" (in code space).  The
//  125 // way it's defined in this sample app it is define in RAM.

        RSEG XDATA_Z:XDATA:NOROOT(0)
        DATA8
//  126 endPointDesc_t SampleApp_epDesc;
SampleApp_epDesc:
        DS 6
        REQUIRE __INIT_XDATA_Z
//  127 /*********************************************************************
//  128  * EXTERNAL VARIABLES
//  129  */
//  130 
//  131 /*********************************************************************
//  132  * EXTERNAL FUNCTIONS
//  133  */
//  134 
//  135 /*********************************************************************
//  136  * LOCAL VARIABLES
//  137  */

        RSEG XDATA_Z:XDATA:NOROOT(0)
        DATA8
//  138 uint8 SampleApp_TaskID;   // Task ID for internal task/event processing
SampleApp_TaskID:
        DS 1
        REQUIRE __INIT_XDATA_Z
//  139                           // This variable will be received when
//  140                           // SampleApp_Init() is called.

        RSEG XDATA_Z:XDATA:NOROOT(0)
        DATA8
//  141 devStates_t SampleApp_NwkState;
SampleApp_NwkState:
        DS 1
        REQUIRE __INIT_XDATA_Z
//  142 

        RSEG XDATA_Z:XDATA:NOROOT(0)
        DATA8
//  143 uint8 SampleApp_TransID;  // This is the unique message ID (counter)
SampleApp_TransID:
        DS 1
        REQUIRE __INIT_XDATA_Z
//  144 

        RSEG XDATA_Z:XDATA:NOROOT(0)
        DATA8
//  145 afAddrType_t SampleApp_Periodic_DstAddr;
SampleApp_Periodic_DstAddr:
        DS 12
        REQUIRE __INIT_XDATA_Z

        RSEG XDATA_Z:XDATA:NOROOT(0)
        DATA8
//  146 afAddrType_t SampleApp_Flash_DstAddr;
SampleApp_Flash_DstAddr:
        DS 12
        REQUIRE __INIT_XDATA_Z
//  147 

        RSEG XDATA_Z:XDATA:NOROOT(0)
        DATA8
//  148 afAddrType_t Point_To_Point_DstAddr;//点对点通信定义
Point_To_Point_DstAddr:
        DS 12
        REQUIRE __INIT_XDATA_Z
//  149 

        RSEG XDATA_Z:XDATA:NOROOT(0)
        DATA8
//  150 aps_Group_t SampleApp_Group;
SampleApp_Group:
        DS 18
        REQUIRE __INIT_XDATA_Z
//  151 

        RSEG XDATA_Z:XDATA:NOROOT(0)
        DATA8
//  152 uint8 SampleAppPeriodicCounter = 0;
SampleAppPeriodicCounter:
        DS 1
        REQUIRE __INIT_XDATA_Z

        RSEG XDATA_Z:XDATA:NOROOT(0)
        DATA8
//  153 uint8 SampleAppFlashCounter = 0;
SampleAppFlashCounter:
        DS 1
        REQUIRE __INIT_XDATA_Z
//  154 
//  155 /*********************************************************************
//  156  * LOCAL FUNCTIONS
//  157  */
//  158 void SampleApp_HandleKeys( uint8 shift, uint8 keys );
//  159 void SampleApp_MessageMSGCB( afIncomingMSGPacket_t *pckt );
//  160 void SampleApp_SendPeriodicMessage( void );
//  161 void SampleApp_SendPointToPointMessage(void); //网蜂点对点通讯定义
//  162 void SampleApp_SendFlashMessage( uint16 flashTime );
//  163 void SampleApp_SerialCMD(mtOSALSerialData_t *cmdMsg);
//  164 
//  165 /*********************************************************************
//  166  * NETWORK LAYER CALLBACKS
//  167  */
//  168 
//  169 /*********************************************************************
//  170  * PUBLIC FUNCTIONS
//  171  */
//  172 
//  173 /*********************************************************************
//  174  * @fn      SampleApp_Init
//  175  *
//  176  * @brief   Initialization function for the Generic App Task.
//  177  *          This is called during initialization and should contain
//  178  *          any application specific initialization (ie. hardware
//  179  *          initialization/setup, table initialization, power up
//  180  *          notificaiton ... ).
//  181  *
//  182  * @param   task_id - the ID assigned by OSAL.  This ID should be
//  183  *                    used to send messages and set timers.
//  184  *
//  185  * @return  none
//  186  */

        RSEG XDATA_Z:XDATA:NOROOT(0)
        DATA8
//  187 uint8 test = 0;
test:
        DS 1
        REQUIRE __INIT_XDATA_Z

        RSEG BANKED_CODE:CODE:NOROOT(0)
//  188 void SampleApp_Init( uint8 task_id )
SampleApp_Init:
        CFI Block cfiBlock0 Using cfiCommon0
        CFI Function SampleApp_Init
        CODE
//  189 {
        FUNCALL SampleApp_Init, printf
        LOCFRAME ISTACK, 0, STACK
        LOCFRAME PSTACK, 0, STACK
        LOCFRAME XSTACK, 9, STACK
        LOCFRAME IOVERLAY, 0, STATIC
        LOCFRAME DOVERLAY, 0, STATIC
        ARGFRAME ISTACK, 0, STACK
        ARGFRAME PSTACK, 0, STACK
        ARGFRAME XSTACK, 9, STACK
        ARGFRAME IOVERLAY, 0, STATIC
        ARGFRAME DOVERLAY, 0, STATIC
        FUNCALL SampleApp_Init, OLED_P8x16Str
        LOCFRAME ISTACK, 0, STACK
        LOCFRAME PSTACK, 0, STACK
        LOCFRAME XSTACK, 9, STACK
        LOCFRAME IOVERLAY, 0, STATIC
        LOCFRAME DOVERLAY, 0, STATIC
        ARGFRAME ISTACK, 0, STACK
        ARGFRAME PSTACK, 0, STACK
        ARGFRAME XSTACK, 9, STACK
        ARGFRAME IOVERLAY, 0, STATIC
        ARGFRAME DOVERLAY, 0, STATIC
        FUNCALL SampleApp_Init, printf
        LOCFRAME ISTACK, 0, STACK
        LOCFRAME PSTACK, 0, STACK
        LOCFRAME XSTACK, 9, STACK
        LOCFRAME IOVERLAY, 0, STATIC
        LOCFRAME DOVERLAY, 0, STATIC
        ARGFRAME ISTACK, 0, STACK
        ARGFRAME PSTACK, 0, STACK
        ARGFRAME XSTACK, 9, STACK
        ARGFRAME IOVERLAY, 0, STATIC
        ARGFRAME DOVERLAY, 0, STATIC
        FUNCALL SampleApp_Init, afRegister
        LOCFRAME ISTACK, 0, STACK
        LOCFRAME PSTACK, 0, STACK
        LOCFRAME XSTACK, 9, STACK
        LOCFRAME IOVERLAY, 0, STATIC
        LOCFRAME DOVERLAY, 0, STATIC
        ARGFRAME ISTACK, 0, STACK
        ARGFRAME PSTACK, 0, STACK
        ARGFRAME XSTACK, 9, STACK
        ARGFRAME IOVERLAY, 0, STATIC
        ARGFRAME DOVERLAY, 0, STATIC
        FUNCALL SampleApp_Init, osal_set_event
        LOCFRAME ISTACK, 0, STACK
        LOCFRAME PSTACK, 0, STACK
        LOCFRAME XSTACK, 9, STACK
        LOCFRAME IOVERLAY, 0, STATIC
        LOCFRAME DOVERLAY, 0, STATIC
        ARGFRAME ISTACK, 0, STACK
        ARGFRAME PSTACK, 0, STACK
        ARGFRAME XSTACK, 9, STACK
        ARGFRAME IOVERLAY, 0, STATIC
        ARGFRAME DOVERLAY, 0, STATIC
        MOV     A,#-0x9
        LCALL   ?BANKED_ENTER_XDATA
        CFI DPH0 load(1, XDATA, add(CFA_XSP16, literal(-1)))
        CFI DPL0 load(1, XDATA, add(CFA_XSP16, literal(-2)))
        CFI ?BRET_EXT load(1, XDATA, add(CFA_XSP16, literal(-3)))
        CFI ?RET_HIGH load(1, XDATA, add(CFA_XSP16, literal(-4)))
        CFI ?RET_LOW load(1, XDATA, add(CFA_XSP16, literal(-5)))
        CFI R7 load(1, XDATA, add(CFA_XSP16, literal(-6)))
        CFI V0 load(1, XDATA, add(CFA_XSP16, literal(-7)))
        CFI VB load(1, XDATA, add(CFA_XSP16, literal(-8)))
        CFI R6 load(1, XDATA, add(CFA_XSP16, literal(-9)))
        CFI CFA_SP SP+0
        CFI CFA_XSP16 add(XSP16, 9)
        ; Saved register size: 9
        ; Auto size: 0
        MOV     A,R1
//  190   SampleApp_TaskID = task_id;
        MOV     DPTR,#SampleApp_TaskID
        MOVX    @DPTR,A
//  191   SampleApp_NwkState = DEV_INIT;
        MOV     DPTR,#SampleApp_NwkState
        MOV     A,#0x1
        MOVX    @DPTR,A
//  192   SampleApp_TransID = 0;
        MOV     DPTR,#SampleApp_TransID
        CLR     A
        MOVX    @DPTR,A
//  193 #if 0 
//  194   UartInit(HAL_UART_PORT_0,HAL_UART_BR_115200);
//  195   HalUARTWrite(0,"this is uart0 print\r\n",strlen("this is uart0 print\r\n"));
//  196 #endif  
//  197   if ( ZG_BUILD_COORDINATOR_TYPE && ZG_DEVICE_COORDINATOR_TYPE  )//如果是协调器
//  198   {
//  199     printf("i am coordinator\r\n");//串口打印
//  200     OLED_P8x16Str(0,0,"coordinator");
//  201   }
//  202   if ( ZG_DEVICE_ENDDEVICE_TYPE && ZG_BUILD_ENDDEVICE_TYPE  )//如果端点
//  203   {
//  204     printf("i am end device\r\n");//串口打印
        ; Setup parameters for call to function printf
        MOV     R2,#`?<Constant "i am end device\\r\\n">` & 0xff
        MOV     R3,#(`?<Constant "i am end device\\r\\n">` >> 8) & 0xff
        LCALL   ??printf?relay
//  205     OLED_P8x16Str(0,0,"end device");    
        ; Setup parameters for call to function OLED_P8x16Str
        MOV     R4,#`?<Constant "end device">` & 0xff
        MOV     R5,#(`?<Constant "end device">` >> 8) & 0xff
        MOV     R2,#0x0
        MOV     R1,#0x0
        LCALL   ??OLED_P8x16Str?relay
//  206     printf("hello world\r\n"); 
        ; Setup parameters for call to function printf
        MOV     R2,#`?<Constant "hello world\\r\\n">` & 0xff
        MOV     R3,#(`?<Constant "hello world\\r\\n">` >> 8) & 0xff
        LCALL   ??printf?relay
//  207     // 点对点通讯定义
//  208     Point_To_Point_DstAddr.addrMode = (afAddrMode_t)Addr16Bit; //点播
        MOV     DPTR,#Point_To_Point_DstAddr + 8
        MOV     A,#0x2
        MOVX    @DPTR,A
//  209     Point_To_Point_DstAddr.endPoint = SAMPLEAPP_ENDPOINT;      
        INC     DPTR
        MOV     A,#0x14
        MOVX    @DPTR,A
//  210     Point_To_Point_DstAddr.addr.shortAddr = 0x0000;//发给协调器
        MOV     DPTR,#Point_To_Point_DstAddr
        CLR     A
        MOVX    @DPTR,A
        INC     DPTR
        MOVX    @DPTR,A
//  211   }
//  212   // 填写端点
//  213   SampleApp_epDesc.endPoint   = SAMPLEAPP_ENDPOINT;
        MOV     DPTR,#SampleApp_epDesc
        MOV     A,#0x14
        MOVX    @DPTR,A
//  214   SampleApp_epDesc.task_id    = &SampleApp_TaskID;
        INC     DPTR
        MOV     A,#SampleApp_TaskID & 0xff
        MOVX    @DPTR,A
        INC     DPTR
        MOV     A,#(SampleApp_TaskID >> 8) & 0xff
        MOVX    @DPTR,A
//  215   SampleApp_epDesc.simpleDesc = (SimpleDescriptionFormat_t *)&SampleApp_SimpleDesc;
        INC     DPTR
        MOV     A,#SampleApp_SimpleDesc & 0xff
        MOVX    @DPTR,A
        INC     DPTR
        MOV     A,#(SampleApp_SimpleDesc >> 8) & 0xff
        MOVX    @DPTR,A
//  216   SampleApp_epDesc.latencyReq = noLatencyReqs;
        INC     DPTR
        CLR     A
        MOVX    @DPTR,A
//  217 
//  218   // 注册端点
//  219   afRegister( &SampleApp_epDesc );
        ; Setup parameters for call to function afRegister
        MOV     R2,#SampleApp_epDesc & 0xff
        MOV     R3,#(SampleApp_epDesc >> 8) & 0xff
        LCALL   ??afRegister?relay
//  220   if ( ZG_DEVICE_ENDDEVICE_TYPE && ZG_BUILD_ENDDEVICE_TYPE  )//如果端点
//  221   {
//  222     osal_set_event( SampleApp_TaskID,DISPLAY_TEMP_HUMI_MSG_EVT);//开始数据显示 
        ; Setup parameters for call to function osal_set_event
        MOV     R2,#0x2
        MOV     R3,#0x0
        MOV     DPTR,#SampleApp_TaskID
        MOVX    A,@DPTR
        MOV     R1,A
        LCALL   ??osal_set_event?relay
//  223   }
//  224 }
        MOV     R7,#0x1
        LJMP    ?BANKED_LEAVE_XDATA
        CFI EndBlock cfiBlock0
//  225 
//  226 /*********************************************************************
//  227  * @fn      SampleApp_ProcessEvent
//  228  *
//  229  * @brief   Generic Application Task event processor.  This function
//  230  *          is called to process all events for the task.  Events
//  231  *          include timers, messages and any other user defined events.
//  232  *
//  233  * @param   task_id  - The OSAL assigned task ID.
//  234  * @param   events - events to process.  This is a bit map and can
//  235  *                   contain more than one event.
//  236  *
//  237  * @return  none
//  238  */

        RSEG XDATA_I:XDATA:NOROOT(0)
//  239 uint8 SendTemperatureIndicate = 1;
SendTemperatureIndicate:
        DATA8
        DS 1
        REQUIRE `?<Initializer for SendTemperatureIndicate>`
        REQUIRE __INIT_XDATA_I

        RSEG XDATA_Z:XDATA:NOROOT(0)
        DATA8
//  240 uint8 DisplaySw=0;
DisplaySw:
        DS 1
        REQUIRE __INIT_XDATA_Z

        RSEG BANKED_CODE:CODE:NOROOT(0)
//  241 uint16 SampleApp_ProcessEvent( uint8 task_id, uint16 events )
SampleApp_ProcessEvent:
        CFI Block cfiBlock1 Using cfiCommon0
        CFI Function SampleApp_ProcessEvent
        CODE
//  242 {
        FUNCALL SampleApp_ProcessEvent, osal_msg_receive
        LOCFRAME ISTACK, 0, STACK
        LOCFRAME PSTACK, 0, STACK
        LOCFRAME XSTACK, 12, STACK
        LOCFRAME IOVERLAY, 0, STATIC
        LOCFRAME DOVERLAY, 0, STATIC
        ARGFRAME ISTACK, 0, STACK
        ARGFRAME PSTACK, 0, STACK
        ARGFRAME XSTACK, 12, STACK
        ARGFRAME IOVERLAY, 0, STATIC
        ARGFRAME DOVERLAY, 0, STATIC
        FUNCALL SampleApp_ProcessEvent, printf
        LOCFRAME ISTACK, 0, STACK
        LOCFRAME PSTACK, 0, STACK
        LOCFRAME XSTACK, 12, STACK
        LOCFRAME IOVERLAY, 0, STATIC
        LOCFRAME DOVERLAY, 0, STATIC
        ARGFRAME ISTACK, 0, STACK
        ARGFRAME PSTACK, 0, STACK
        ARGFRAME XSTACK, 12, STACK
        ARGFRAME IOVERLAY, 0, STATIC
        ARGFRAME DOVERLAY, 0, STATIC
        FUNCALL SampleApp_ProcessEvent, osal_start_timerEx
        LOCFRAME ISTACK, 0, STACK
        LOCFRAME PSTACK, 0, STACK
        LOCFRAME XSTACK, 12, STACK
        LOCFRAME IOVERLAY, 0, STATIC
        LOCFRAME DOVERLAY, 0, STATIC
        ARGFRAME ISTACK, 0, STACK
        ARGFRAME PSTACK, 0, STACK
        ARGFRAME XSTACK, 12, STACK
        ARGFRAME IOVERLAY, 0, STATIC
        ARGFRAME DOVERLAY, 0, STATIC
        FUNCALL SampleApp_ProcessEvent, osal_msg_deallocate
        LOCFRAME ISTACK, 0, STACK
        LOCFRAME PSTACK, 0, STACK
        LOCFRAME XSTACK, 12, STACK
        LOCFRAME IOVERLAY, 0, STATIC
        LOCFRAME DOVERLAY, 0, STATIC
        ARGFRAME ISTACK, 0, STACK
        ARGFRAME PSTACK, 0, STACK
        ARGFRAME XSTACK, 12, STACK
        ARGFRAME IOVERLAY, 0, STATIC
        ARGFRAME DOVERLAY, 0, STATIC
        FUNCALL SampleApp_ProcessEvent, osal_msg_receive
        LOCFRAME ISTACK, 0, STACK
        LOCFRAME PSTACK, 0, STACK
        LOCFRAME XSTACK, 12, STACK
        LOCFRAME IOVERLAY, 0, STATIC
        LOCFRAME DOVERLAY, 0, STATIC
        ARGFRAME ISTACK, 0, STACK
        ARGFRAME PSTACK, 0, STACK
        ARGFRAME XSTACK, 12, STACK
        ARGFRAME IOVERLAY, 0, STATIC
        ARGFRAME DOVERLAY, 0, STATIC
        FUNCALL SampleApp_ProcessEvent, SampleApp_MessageMSGCB
        LOCFRAME ISTACK, 0, STACK
        LOCFRAME PSTACK, 0, STACK
        LOCFRAME XSTACK, 12, STACK
        LOCFRAME IOVERLAY, 0, STATIC
        LOCFRAME DOVERLAY, 0, STATIC
        ARGFRAME ISTACK, 0, STACK
        ARGFRAME PSTACK, 0, STACK
        ARGFRAME XSTACK, 12, STACK
        ARGFRAME IOVERLAY, 0, STATIC
        ARGFRAME DOVERLAY, 0, STATIC
        FUNCALL SampleApp_ProcessEvent, printf
        LOCFRAME ISTACK, 0, STACK
        LOCFRAME PSTACK, 0, STACK
        LOCFRAME XSTACK, 12, STACK
        LOCFRAME IOVERLAY, 0, STATIC
        LOCFRAME DOVERLAY, 0, STATIC
        ARGFRAME ISTACK, 0, STACK
        ARGFRAME PSTACK, 0, STACK
        ARGFRAME XSTACK, 12, STACK
        ARGFRAME IOVERLAY, 0, STATIC
        ARGFRAME DOVERLAY, 0, STATIC
        FUNCALL SampleApp_ProcessEvent, Bottom_Blue
        LOCFRAME ISTACK, 0, STACK
        LOCFRAME PSTACK, 0, STACK
        LOCFRAME XSTACK, 12, STACK
        LOCFRAME IOVERLAY, 0, STATIC
        LOCFRAME DOVERLAY, 0, STATIC
        ARGFRAME ISTACK, 0, STACK
        ARGFRAME PSTACK, 0, STACK
        ARGFRAME XSTACK, 12, STACK
        ARGFRAME IOVERLAY, 0, STATIC
        ARGFRAME DOVERLAY, 0, STATIC
        FUNCALL SampleApp_ProcessEvent, Bottom_BlackOut
        LOCFRAME ISTACK, 0, STACK
        LOCFRAME PSTACK, 0, STACK
        LOCFRAME XSTACK, 12, STACK
        LOCFRAME IOVERLAY, 0, STATIC
        LOCFRAME DOVERLAY, 0, STATIC
        ARGFRAME ISTACK, 0, STACK
        ARGFRAME PSTACK, 0, STACK
        ARGFRAME XSTACK, 12, STACK
        ARGFRAME IOVERLAY, 0, STATIC
        ARGFRAME DOVERLAY, 0, STATIC
        FUNCALL SampleApp_ProcessEvent, PointToPoint_SendTemperature
        LOCFRAME ISTACK, 0, STACK
        LOCFRAME PSTACK, 0, STACK
        LOCFRAME XSTACK, 12, STACK
        LOCFRAME IOVERLAY, 0, STATIC
        LOCFRAME DOVERLAY, 0, STATIC
        ARGFRAME ISTACK, 0, STACK
        ARGFRAME PSTACK, 0, STACK
        ARGFRAME XSTACK, 12, STACK
        ARGFRAME IOVERLAY, 0, STATIC
        ARGFRAME DOVERLAY, 0, STATIC
        FUNCALL SampleApp_ProcessEvent, osal_rand
        LOCFRAME ISTACK, 0, STACK
        LOCFRAME PSTACK, 0, STACK
        LOCFRAME XSTACK, 12, STACK
        LOCFRAME IOVERLAY, 0, STATIC
        LOCFRAME DOVERLAY, 0, STATIC
        ARGFRAME ISTACK, 0, STACK
        ARGFRAME PSTACK, 0, STACK
        ARGFRAME XSTACK, 12, STACK
        ARGFRAME IOVERLAY, 0, STATIC
        ARGFRAME DOVERLAY, 0, STATIC
        FUNCALL SampleApp_ProcessEvent, osal_start_timerEx
        LOCFRAME ISTACK, 0, STACK
        LOCFRAME PSTACK, 0, STACK
        LOCFRAME XSTACK, 12, STACK
        LOCFRAME IOVERLAY, 0, STATIC
        LOCFRAME DOVERLAY, 0, STATIC
        ARGFRAME ISTACK, 0, STACK
        ARGFRAME PSTACK, 0, STACK
        ARGFRAME XSTACK, 12, STACK
        ARGFRAME IOVERLAY, 0, STATIC
        ARGFRAME DOVERLAY, 0, STATIC
        FUNCALL SampleApp_ProcessEvent, SHT2x_DisplayHumi
        LOCFRAME ISTACK, 0, STACK
        LOCFRAME PSTACK, 0, STACK
        LOCFRAME XSTACK, 12, STACK
        LOCFRAME IOVERLAY, 0, STATIC
        LOCFRAME DOVERLAY, 0, STATIC
        ARGFRAME ISTACK, 0, STACK
        ARGFRAME PSTACK, 0, STACK
        ARGFRAME XSTACK, 12, STACK
        ARGFRAME IOVERLAY, 0, STATIC
        ARGFRAME DOVERLAY, 0, STATIC
        FUNCALL SampleApp_ProcessEvent, SHT2x_DisplayTemp
        LOCFRAME ISTACK, 0, STACK
        LOCFRAME PSTACK, 0, STACK
        LOCFRAME XSTACK, 12, STACK
        LOCFRAME IOVERLAY, 0, STATIC
        LOCFRAME DOVERLAY, 0, STATIC
        ARGFRAME ISTACK, 0, STACK
        ARGFRAME PSTACK, 0, STACK
        ARGFRAME XSTACK, 12, STACK
        ARGFRAME IOVERLAY, 0, STATIC
        ARGFRAME DOVERLAY, 0, STATIC
        FUNCALL SampleApp_ProcessEvent, osal_start_timerEx
        LOCFRAME ISTACK, 0, STACK
        LOCFRAME PSTACK, 0, STACK
        LOCFRAME XSTACK, 12, STACK
        LOCFRAME IOVERLAY, 0, STATIC
        LOCFRAME DOVERLAY, 0, STATIC
        ARGFRAME ISTACK, 0, STACK
        ARGFRAME PSTACK, 0, STACK
        ARGFRAME XSTACK, 12, STACK
        ARGFRAME IOVERLAY, 0, STATIC
        ARGFRAME DOVERLAY, 0, STATIC
        MOV     A,#-0xc
        LCALL   ?BANKED_ENTER_XDATA
        CFI DPH0 load(1, XDATA, add(CFA_XSP16, literal(-1)))
        CFI DPL0 load(1, XDATA, add(CFA_XSP16, literal(-2)))
        CFI ?BRET_EXT load(1, XDATA, add(CFA_XSP16, literal(-3)))
        CFI ?RET_HIGH load(1, XDATA, add(CFA_XSP16, literal(-4)))
        CFI ?RET_LOW load(1, XDATA, add(CFA_XSP16, literal(-5)))
        CFI R7 load(1, XDATA, add(CFA_XSP16, literal(-6)))
        CFI V3 load(1, XDATA, add(CFA_XSP16, literal(-7)))
        CFI V2 load(1, XDATA, add(CFA_XSP16, literal(-8)))
        CFI V1 load(1, XDATA, add(CFA_XSP16, literal(-9)))
        CFI V0 load(1, XDATA, add(CFA_XSP16, literal(-10)))
        CFI VB load(1, XDATA, add(CFA_XSP16, literal(-11)))
        CFI R6 load(1, XDATA, add(CFA_XSP16, literal(-12)))
        CFI CFA_SP SP+0
        CFI CFA_XSP16 add(XSP16, 12)
        ; Saved register size: 12
        ; Auto size: 0
        MOV     A,R2
        MOV     R6,A
        MOV     A,R3
        MOV     R7,A
//  243   afIncomingMSGPacket_t *MSGpkt;
//  244   (void)task_id;  // Intentionally unreferenced parameter
//  245 
//  246   if ( events & SYS_EVENT_MSG )
        ANL     A,#0x80
        JZ      ??SampleApp_ProcessEvent_0
//  247   {
//  248     MSGpkt = (afIncomingMSGPacket_t *)osal_msg_receive( SampleApp_TaskID );
        ; Setup parameters for call to function osal_msg_receive
        SJMP    ??SampleApp_ProcessEvent_1
//  249     while ( MSGpkt )
//  250     {
//  251       switch ( MSGpkt->hdr.event )
//  252       {
//  253         // Received when a key is pressed
//  254         case KEY_CHANGE:
//  255           //SampleApp_HandleKeys( ((keyChange_t *)MSGpkt)->state, ((keyChange_t *)MSGpkt)->keys );
//  256           break;
//  257         
//  258         // Received when a messages is received (OTA) for this endpoint
//  259         case AF_INCOMING_MSG_CMD:
//  260           SampleApp_MessageMSGCB( MSGpkt );
//  261           break;
//  262 
//  263         // Received whenever the device changes state in the network
//  264         case ZDO_STATE_CHANGE:
//  265           SampleApp_NwkState = (devStates_t)(MSGpkt->hdr.status);
??SampleApp_ProcessEvent_2:
        INC     DPTR
        MOVX    A,@DPTR
        MOV     DPTR,#SampleApp_NwkState
        MOVX    @DPTR,A
//  266           if(SampleApp_NwkState == DEV_ZB_COORD)
        MOVX    A,@DPTR
        XRL     A,#0x9
        JNZ     ??SampleApp_ProcessEvent_3
//  267           {
//  268             printf("coord ready!");
        ; Setup parameters for call to function printf
        MOV     R2,#`?<Constant "coord ready!">` & 0xff
        MOV     R3,#(`?<Constant "coord ready!">` >> 8) & 0xff
        LCALL   ??printf?relay
//  269           }
//  270           if ( //(SampleApp_NwkState == DEV_ZB_COORD)协调器不能给自己点播
//  271                 (SampleApp_NwkState == DEV_ROUTER)
//  272              || (SampleApp_NwkState == DEV_END_DEVICE) )
??SampleApp_ProcessEvent_3:
        MOV     DPTR,#SampleApp_NwkState
        MOVX    A,@DPTR
        XRL     A,#0x7
        JZ      ??SampleApp_ProcessEvent_4
        MOVX    A,@DPTR
        XRL     A,#0x6
        JNZ     ??SampleApp_ProcessEvent_5
//  273           {
//  274             // Start sending the periodic message in a regular interval.
//  275             osal_start_timerEx( SampleApp_TaskID,
//  276                                 SAMPLEAPP_SEND_PERIODIC_MSG_EVT,
//  277                                 500);//500ms后开始数据采集                       
??SampleApp_ProcessEvent_4:
        ; Setup parameters for call to function osal_start_timerEx
        MOV     R4,#-0xc
        MOV     R5,#0x1
        MOV     R2,#0x1
        MOV     R3,#0x0
        MOV     DPTR,#SampleApp_TaskID
        MOVX    A,@DPTR
        MOV     R1,A
        LCALL   ??osal_start_timerEx?relay
//  278           }
//  279           break;
//  280 
//  281         default:
//  282           break;
//  283       }
//  284 
//  285       // Release the memory
//  286       osal_msg_deallocate( (uint8 *)MSGpkt );
??SampleApp_ProcessEvent_5:
        ; Setup parameters for call to function osal_msg_deallocate
        MOV     R2,?V0 + 0
        MOV     R3,?V0 + 1
        LCALL   ??osal_msg_deallocate?relay
//  287 
//  288       // Next - if one is available
//  289       MSGpkt = (afIncomingMSGPacket_t *)osal_msg_receive( SampleApp_TaskID );
        ; Setup parameters for call to function osal_msg_receive
??SampleApp_ProcessEvent_1:
        MOV     DPTR,#SampleApp_TaskID
        MOVX    A,@DPTR
        MOV     R1,A
        LCALL   ??osal_msg_receive?relay
        MOV     ?V0 + 0,R2
        MOV     ?V0 + 1,R3
        MOV     A,?V0 + 0
        ORL     A,?V0 + 1
        JZ      ??SampleApp_ProcessEvent_6
        MOV     DPL,?V0 + 0
        MOV     DPH,?V0 + 1
        MOVX    A,@DPTR
        ADD     A,#-0x1a
        JZ      ??SampleApp_ProcessEvent_7
        ADD     A,#0x49
        JZ      ??SampleApp_ProcessEvent_2
        SJMP    ??SampleApp_ProcessEvent_5
??SampleApp_ProcessEvent_7:
        ; Setup parameters for call to function SampleApp_MessageMSGCB
        MOV     R2,?V0 + 0
        MOV     R3,?V0 + 1
        LCALL   ??SampleApp_MessageMSGCB?relay
        SJMP    ??SampleApp_ProcessEvent_5
//  290     }
//  291 
//  292     // return unprocessed events
//  293     return (events ^ SYS_EVENT_MSG);
??SampleApp_ProcessEvent_6:
        MOV     A,R6
        MOV     R2,A
        MOV     A,R7
        XRL     A,#0x80
??SampleApp_ProcessEvent_8:
        MOV     R3,A
        SJMP    ??SampleApp_ProcessEvent_9
//  294   }
//  295 
//  296   // Send a message out - This event is generated by a timer
//  297   //  (setup in SampleApp_Init()).
//  298   if ( events & SAMPLEAPP_SEND_PERIODIC_MSG_EVT )
??SampleApp_ProcessEvent_0:
        MOV     A,R6
        MOV     C,0xE0 /* A   */.0
        JNC     ??SampleApp_ProcessEvent_10
//  299   {  
//  300     printf("send temperature\r\n");
        ; Setup parameters for call to function printf
        MOV     R2,#`?<Constant "send temperature\\r\\n">` & 0xff
        MOV     R3,#(`?<Constant "send temperature\\r\\n">` >> 8) & 0xff
        LCALL   ??printf?relay
//  301     
//  302     //实现每发送一次温度数据切换底座的灯的状态，蓝色->熄灭->蓝色->熄灭......
//  303     SendTemperatureIndicate = 1 -SendTemperatureIndicate;
        MOV     DPTR,#SendTemperatureIndicate
        MOVX    A,@DPTR
        MOV     R0,A
        MOV     A,#0x1
        CLR     C
        SUBB    A,R0
        MOVX    @DPTR,A
//  304     if(SendTemperatureIndicate == 0)
        MOVX    A,@DPTR
        JNZ     ??SampleApp_ProcessEvent_11
//  305     {
//  306       Bottom_Blue(); //底座灯亮起蓝色
        ; Setup parameters for call to function Bottom_Blue
        LCALL   ??Bottom_Blue?relay
        SJMP    ??SampleApp_ProcessEvent_12
//  307     }
//  308     else
//  309     {
//  310       Bottom_BlackOut();//底座灯熄灭
??SampleApp_ProcessEvent_11:
        ; Setup parameters for call to function Bottom_BlackOut
        LCALL   ??Bottom_BlackOut?relay
//  311     }
//  312     
//  313     PointToPoint_SendTemperature();
??SampleApp_ProcessEvent_12:
        ; Setup parameters for call to function PointToPoint_SendTemperature
        LCALL   ??PointToPoint_SendTemperature?relay
//  314     osal_start_timerEx( SampleApp_TaskID, 
//  315                         SAMPLEAPP_SEND_PERIODIC_MSG_EVT,
//  316                         (SAMPLEAPP_SEND_PERIODIC_MSG_TIMEOUT + (osal_rand() & 0x00FF)) );
        ; Setup parameters for call to function osal_rand
        LCALL   ??osal_rand?relay
        ; Setup parameters for call to function osal_start_timerEx
        MOV     A,R2
        ADD     A,#-0x78
        MOV     R4,A
        CLR     A
        ADDC    A,#0x13
        MOV     R5,A
        MOV     R2,#0x1
        MOV     R3,#0x0
        MOV     DPTR,#SampleApp_TaskID
        MOVX    A,@DPTR
        MOV     R1,A
        LCALL   ??osal_start_timerEx?relay
//  317 
//  318     // return unprocessed events
//  319     return (events ^ SAMPLEAPP_SEND_PERIODIC_MSG_EVT);
        MOV     A,R6
        XRL     A,#0x1
        MOV     R2,A
        MOV     A,R7
        SJMP    ??SampleApp_ProcessEvent_8
//  320   }
//  321   
//  322   if(events & DISPLAY_TEMP_HUMI_MSG_EVT)
??SampleApp_ProcessEvent_10:
        ANL     A,#0x2
        JZ      ??SampleApp_ProcessEvent_13
//  323   {
//  324     DisplaySw = 1 - DisplaySw;
        MOV     DPTR,#DisplaySw
        MOVX    A,@DPTR
        MOV     R0,A
        MOV     A,#0x1
        CLR     C
        SUBB    A,R0
        MOVX    @DPTR,A
//  325     if(DisplaySw)
        MOVX    A,@DPTR
        JZ      ??SampleApp_ProcessEvent_14
//  326     {
//  327       SHT2x_DisplayHumi();    
        ; Setup parameters for call to function SHT2x_DisplayHumi
        LCALL   ??SHT2x_DisplayHumi?relay
        SJMP    ??SampleApp_ProcessEvent_15
//  328     }
//  329     else
//  330     {
//  331       SHT2x_DisplayTemp();
??SampleApp_ProcessEvent_14:
        ; Setup parameters for call to function SHT2x_DisplayTemp
        LCALL   ??SHT2x_DisplayTemp?relay
//  332     }
//  333     osal_start_timerEx( SampleApp_TaskID, 
//  334                         DISPLAY_TEMP_HUMI_MSG_EVT,
//  335                         1000);//1000ms后在显示    
??SampleApp_ProcessEvent_15:
        ; Setup parameters for call to function osal_start_timerEx
        MOV     R4,#-0x18
        MOV     R5,#0x3
        MOV     R2,#0x2
        MOV     R3,#0x0
        MOV     DPTR,#SampleApp_TaskID
        MOVX    A,@DPTR
        MOV     R1,A
        LCALL   ??osal_start_timerEx?relay
//  336   }
//  337 
//  338   // Discard unknown events
//  339   return 0;
??SampleApp_ProcessEvent_13:
        MOV     R2,#0x0
        MOV     R3,#0x0
??SampleApp_ProcessEvent_9:
        MOV     R7,#0x4
        LJMP    ?BANKED_LEAVE_XDATA
        CFI EndBlock cfiBlock1
//  340 }
//  341 /*********************************************************************
//  342  * LOCAL FUNCTIONS
//  343  */
//  344 
//  345 /*********************************************************************
//  346  * @fn      SampleApp_MessageMSGCB
//  347  *
//  348  * @brief   Data message processor callback.  This function processes
//  349  *          any incoming data - probably from other devices.  So, based
//  350  *          on cluster ID, perform the intended action.
//  351  *
//  352  * @param   none
//  353  *
//  354  * @return  none
//  355  */
//  356 #if WIFI_CHANNEL_EABLE  

        RSEG XDATA_Z:XDATA:NOROOT(0)
        DATA8
//  357   uint8 WiFiSendBuf[10]={0};
WiFiSendBuf:
        DS 10
        REQUIRE __INIT_XDATA_Z
//  358 
//  359 #endif 

        RSEG BANKED_CODE:CODE:NOROOT(0)
//  360 void SampleApp_MessageMSGCB( afIncomingMSGPacket_t *pkt )
SampleApp_MessageMSGCB:
        CFI Block cfiBlock2 Using cfiCommon0
        CFI Function SampleApp_MessageMSGCB
        CODE
//  361 {
        FUNCALL SampleApp_MessageMSGCB, printf
        LOCFRAME ISTACK, 0, STACK
        LOCFRAME PSTACK, 0, STACK
        LOCFRAME XSTACK, 38, STACK
        LOCFRAME IOVERLAY, 0, STATIC
        LOCFRAME DOVERLAY, 0, STATIC
        ARGFRAME ISTACK, 0, STACK
        ARGFRAME PSTACK, 0, STACK
        ARGFRAME XSTACK, 38, STACK
        ARGFRAME IOVERLAY, 0, STATIC
        ARGFRAME DOVERLAY, 0, STATIC
        FUNCALL SampleApp_MessageMSGCB, OLED_P8x16Str
        LOCFRAME ISTACK, 0, STACK
        LOCFRAME PSTACK, 0, STACK
        LOCFRAME XSTACK, 36, STACK
        LOCFRAME IOVERLAY, 0, STATIC
        LOCFRAME DOVERLAY, 0, STATIC
        ARGFRAME ISTACK, 0, STACK
        ARGFRAME PSTACK, 0, STACK
        ARGFRAME XSTACK, 36, STACK
        ARGFRAME IOVERLAY, 0, STATIC
        ARGFRAME DOVERLAY, 0, STATIC
        FUNCALL SampleApp_MessageMSGCB, printf
        LOCFRAME ISTACK, 0, STACK
        LOCFRAME PSTACK, 0, STACK
        LOCFRAME XSTACK, 38, STACK
        LOCFRAME IOVERLAY, 0, STATIC
        LOCFRAME DOVERLAY, 0, STATIC
        ARGFRAME ISTACK, 0, STACK
        ARGFRAME PSTACK, 0, STACK
        ARGFRAME XSTACK, 38, STACK
        ARGFRAME IOVERLAY, 0, STATIC
        ARGFRAME DOVERLAY, 0, STATIC
        FUNCALL SampleApp_MessageMSGCB, OLED_P8x16Str
        LOCFRAME ISTACK, 0, STACK
        LOCFRAME PSTACK, 0, STACK
        LOCFRAME XSTACK, 36, STACK
        LOCFRAME IOVERLAY, 0, STATIC
        LOCFRAME DOVERLAY, 0, STATIC
        ARGFRAME ISTACK, 0, STACK
        ARGFRAME PSTACK, 0, STACK
        ARGFRAME XSTACK, 36, STACK
        ARGFRAME IOVERLAY, 0, STATIC
        ARGFRAME DOVERLAY, 0, STATIC
        FUNCALL SampleApp_MessageMSGCB, SendToWiFiNetwork
        LOCFRAME ISTACK, 0, STACK
        LOCFRAME PSTACK, 0, STACK
        LOCFRAME XSTACK, 36, STACK
        LOCFRAME IOVERLAY, 0, STATIC
        LOCFRAME DOVERLAY, 0, STATIC
        ARGFRAME ISTACK, 0, STACK
        ARGFRAME PSTACK, 0, STACK
        ARGFRAME XSTACK, 36, STACK
        ARGFRAME IOVERLAY, 0, STATIC
        ARGFRAME DOVERLAY, 0, STATIC
        MOV     A,#-0xa
        LCALL   ?BANKED_ENTER_XDATA
        CFI DPH0 load(1, XDATA, add(CFA_XSP16, literal(-1)))
        CFI DPL0 load(1, XDATA, add(CFA_XSP16, literal(-2)))
        CFI ?BRET_EXT load(1, XDATA, add(CFA_XSP16, literal(-3)))
        CFI ?RET_HIGH load(1, XDATA, add(CFA_XSP16, literal(-4)))
        CFI ?RET_LOW load(1, XDATA, add(CFA_XSP16, literal(-5)))
        CFI R7 load(1, XDATA, add(CFA_XSP16, literal(-6)))
        CFI V1 load(1, XDATA, add(CFA_XSP16, literal(-7)))
        CFI V0 load(1, XDATA, add(CFA_XSP16, literal(-8)))
        CFI VB load(1, XDATA, add(CFA_XSP16, literal(-9)))
        CFI R6 load(1, XDATA, add(CFA_XSP16, literal(-10)))
        CFI CFA_SP SP+0
        CFI CFA_XSP16 add(XSP16, 10)
        ; Saved register size: 10
        ; Auto size: 26
        MOV     A,#-0x1a
        LCALL   ?ALLOC_XSTACK8
        CFI CFA_XSP16 add(XSP16, 36)
//  362   uint8 ShowTemperatureBuf[ ]="temperture=xx";
        MOV     DPTR,#`?<Constant "temperture=xx">`
        PUSH    DPL
        CFI CFA_SP SP+-1
        PUSH    DPH
        CFI CFA_SP SP+-2
        MOV     A,#0xc
        LCALL   ?XSTACK_DISP0_8
        MOV     R4,DPL
        MOV     R5,DPH
        POP     DPH
        CFI CFA_SP SP+-1
        POP     DPL
        CFI CFA_SP SP+0
        MOV     A,#0xe
        LCALL   ?MOVE_LONG8_XDATA_XDATA
//  363   uint8 ShowHumiBuf[ ]="humidity=xx";
        MOV     DPTR,#`?<Constant "humidity=xx">`
        PUSH    DPL
        CFI CFA_SP SP+-1
        PUSH    DPH
        CFI CFA_SP SP+-2
        MOV     DPL,?XSP + 0
        MOV     DPH,?XSP + 1
        MOV     R4,DPL
        MOV     R5,DPH
        POP     DPH
        CFI CFA_SP SP+-1
        POP     DPL
        CFI CFA_SP SP+0
        MOV     A,#0xc
        LCALL   ?MOVE_LONG8_XDATA_XDATA
//  364   uint8 i=0;
//  365  
//  366   switch ( pkt->clusterId )
        MOV     DPL,R2
        MOV     DPH,R3
        INC     DPTR
        INC     DPTR
        INC     DPTR
        INC     DPTR
        MOVX    A,@DPTR
        XRL     A,#0x4
        JNZ     ??SampleApp_MessageMSGCB_0
        INC     DPTR
        MOVX    A,@DPTR
??SampleApp_MessageMSGCB_0:
        JZ      $+5
        LJMP    ??SampleApp_MessageMSGCB_1 & 0xFFFF
//  367   {
//  368     case SAMPLEAPP_POINT_TO_POINT_CLUSTERID:
//  369         //
//  370         ShowTemperatureBuf[11] = pkt->cmd.Data[0]/10 + 0x30;//HEX 转成ASCII
        MOV     A,R2
        ADD     A,#0x21
        MOV     R0,A
        MOV     A,R3
        ADDC    A,#0x0
        MOV     R1,A
        MOV     A,R0
        MOV     R6,A
        MOV     A,R1
        MOV     R7,A
        MOV     B,#0xa
        MOV     DPL,R6
        MOV     DPH,R7
        MOVX    A,@DPTR
        MOV     R0,A
        INC     DPTR
        MOVX    A,@DPTR
        MOV     DPH,A
        MOV     DPL,R0
        MOVX    A,@DPTR
        DIV     AB
        ADD     A,#0x30
        PUSH    A
        CFI CFA_SP SP+-1
        MOV     A,#0x17
        LCALL   ?XSTACK_DISP0_8
        POP     A
        CFI CFA_SP SP+0
        MOVX    @DPTR,A
//  371         ShowTemperatureBuf[12] = pkt->cmd.Data[0]%10 + 0x30;//HEX 转成ASCII 
        MOV     DPL,R6
        MOV     DPH,R7
        MOVX    A,@DPTR
        MOV     R0,A
        INC     DPTR
        MOVX    A,@DPTR
        MOV     DPH,A
        MOV     DPL,R0
        MOVX    A,@DPTR
        MOV     B,#0xa
        DIV     AB
        MOV     A,B
        ADD     A,#0x30
        PUSH    A
        CFI CFA_SP SP+-1
        MOV     A,#0x18
        LCALL   ?XSTACK_DISP0_8
        POP     A
        CFI CFA_SP SP+0
        MOVX    @DPTR,A
//  372         printf("Temperature=%d\r\n",pkt->cmd.Data[0]);//串口打印
        ; Setup parameters for call to function printf
        MOV     DPL,R6
        MOV     DPH,R7
        MOVX    A,@DPTR
        MOV     R0,A
        INC     DPTR
        MOVX    A,@DPTR
        MOV     DPH,A
        MOV     DPL,R0
        MOVX    A,@DPTR
        MOV     ?V0 + 0,A
        MOV     ?V0 + 1,#0x0
        MOV     R0,#?V0 + 0
        LCALL   ?PUSH_XSTACK_I_TWO
        CFI CFA_XSP16 add(XSP16, 38)
        MOV     R2,#`?<Constant "Temperature=%d\\r\\n">` & 0xff
        MOV     R3,#(`?<Constant "Temperature=%d\\r\\n">` >> 8) & 0xff
        LCALL   ??printf?relay
        MOV     A,#0x2
        LCALL   ?DEALLOC_XSTACK8
        CFI CFA_XSP16 add(XSP16, 36)
//  373         OLED_P8x16Str(0,4,ShowTemperatureBuf);//OLED屏显示 
        ; Setup parameters for call to function OLED_P8x16Str
        MOV     A,#0xc
        LCALL   ?XSTACK_DISP0_8
        MOV     R4,DPL
        MOV     R5,DPH
        MOV     R2,#0x4
        MOV     R1,#0x0
        LCALL   ??OLED_P8x16Str?relay
//  374         
//  375         ShowHumiBuf[8] = pkt->cmd.Data[1]/10 + 0x30;//HEX 转成ASCII
        MOV     B,#0xa
        MOV     DPL,R6
        MOV     DPH,R7
        MOVX    A,@DPTR
        MOV     R0,A
        INC     DPTR
        MOVX    A,@DPTR
        MOV     DPH,A
        MOV     DPL,R0
        INC     DPTR
        MOVX    A,@DPTR
        DIV     AB
        ADD     A,#0x30
        PUSH    A
        CFI CFA_SP SP+-1
        MOV     A,#0x8
        LCALL   ?XSTACK_DISP0_8
        POP     A
        CFI CFA_SP SP+0
        MOVX    @DPTR,A
//  376         ShowHumiBuf[9] = pkt->cmd.Data[1]%10 + 0x30;//HEX 转成ASCII 
        MOV     DPL,R6
        MOV     DPH,R7
        MOVX    A,@DPTR
        MOV     R0,A
        INC     DPTR
        MOVX    A,@DPTR
        MOV     DPH,A
        MOV     DPL,R0
        INC     DPTR
        MOVX    A,@DPTR
        MOV     B,#0xa
        DIV     AB
        MOV     A,B
        ADD     A,#0x30
        PUSH    A
        CFI CFA_SP SP+-1
        MOV     A,#0x9
        LCALL   ?XSTACK_DISP0_8
        POP     A
        CFI CFA_SP SP+0
        MOVX    @DPTR,A
//  377         printf("Humidity=%d\r\n",pkt->cmd.Data[1]);//串口打印        
        ; Setup parameters for call to function printf
        MOV     DPL,R6
        MOV     DPH,R7
        MOVX    A,@DPTR
        MOV     R0,A
        INC     DPTR
        MOVX    A,@DPTR
        MOV     DPH,A
        MOV     DPL,R0
        INC     DPTR
        MOVX    A,@DPTR
        MOV     ?V0 + 0,A
        MOV     R0,#?V0 + 0
        LCALL   ?PUSH_XSTACK_I_TWO
        CFI CFA_XSP16 add(XSP16, 38)
        MOV     R2,#`?<Constant "Humidity=%d\\r\\n">` & 0xff
        MOV     R3,#(`?<Constant "Humidity=%d\\r\\n">` >> 8) & 0xff
        LCALL   ??printf?relay
        MOV     A,#0x2
        LCALL   ?DEALLOC_XSTACK8
        CFI CFA_XSP16 add(XSP16, 36)
//  378         OLED_P8x16Str(0,5,ShowHumiBuf);//OLED屏显示  
        ; Setup parameters for call to function OLED_P8x16Str
        MOV     DPL,?XSP + 0
        MOV     DPH,?XSP + 1
        MOV     R4,DPL
        MOV     R5,DPH
        MOV     R2,#0x5
        MOV     R1,#0x0
        LCALL   ??OLED_P8x16Str?relay
//  379 #if WIFI_CHANNEL_EABLE
//  380         //sprintf(WiFiSendBuf,"%d%d%d%d",pkt->cmd.Data[0],pkt->cmd.Data[1],0,0);
//  381         WiFiSendBuf[i++] = pkt->cmd.Data[0]/10 + 0x30;
        MOV     B,#0xa
        MOV     DPL,R6
        MOV     DPH,R7
        MOVX    A,@DPTR
        MOV     R0,A
        INC     DPTR
        MOVX    A,@DPTR
        MOV     DPH,A
        MOV     DPL,R0
        MOVX    A,@DPTR
        DIV     AB
        ADD     A,#0x30
        MOV     DPTR,#WiFiSendBuf
        MOVX    @DPTR,A
//  382         WiFiSendBuf[i++] = pkt->cmd.Data[0]%10 + 0x30;    
        MOV     DPL,R6
        MOV     DPH,R7
        MOVX    A,@DPTR
        MOV     R0,A
        INC     DPTR
        MOVX    A,@DPTR
        MOV     DPH,A
        MOV     DPL,R0
        MOVX    A,@DPTR
        MOV     B,#0xa
        DIV     AB
        MOV     A,B
        ADD     A,#0x30
        MOV     DPTR,#WiFiSendBuf + 1
        MOVX    @DPTR,A
//  383         WiFiSendBuf[i++] = pkt->cmd.Data[1]/10 + 0x30;
        MOV     B,#0xa
        MOV     DPL,R6
        MOV     DPH,R7
        MOVX    A,@DPTR
        MOV     R0,A
        INC     DPTR
        MOVX    A,@DPTR
        MOV     DPH,A
        MOV     DPL,R0
        INC     DPTR
        MOVX    A,@DPTR
        DIV     AB
        ADD     A,#0x30
        MOV     DPTR,#WiFiSendBuf + 2
        MOVX    @DPTR,A
//  384         WiFiSendBuf[i++] = pkt->cmd.Data[1]%10 + 0x30;        
        MOV     DPL,R6
        MOV     DPH,R7
        MOVX    A,@DPTR
        MOV     R0,A
        INC     DPTR
        MOVX    A,@DPTR
        MOV     DPH,A
        MOV     DPL,R0
        INC     DPTR
        MOVX    A,@DPTR
        MOV     B,#0xa
        DIV     AB
        MOV     A,B
        ADD     A,#0x30
        MOV     DPTR,#WiFiSendBuf + 3
        MOVX    @DPTR,A
//  385         
//  386         WiFiSendBuf[i++] = 0x30;
        INC     DPTR
        MOV     A,#0x30
        MOVX    @DPTR,A
//  387         WiFiSendBuf[i++] = 0x30; 
        INC     DPTR
        MOVX    @DPTR,A
//  388         WiFiSendBuf[i++] = 0x30;
        INC     DPTR
        MOVX    @DPTR,A
//  389         WiFiSendBuf[i++] = 0x30;         
        INC     DPTR
        MOVX    @DPTR,A
//  390         SendToWiFiNetwork(WiFiSendBuf,i);
        ; Setup parameters for call to function SendToWiFiNetwork
        MOV     R1,#0x8
        MOV     R2,#WiFiSendBuf & 0xff
        MOV     R3,#(WiFiSendBuf >> 8) & 0xff
        LCALL   ??SendToWiFiNetwork?relay
//  391 #endif        
//  392       break;
//  393   }
//  394 }
??SampleApp_MessageMSGCB_1:
        MOV     A,#0x1a
        LCALL   ?DEALLOC_XSTACK8
        CFI CFA_XSP16 add(XSP16, 10)
        MOV     R7,#0x2
        LJMP    ?BANKED_LEAVE_XDATA
        CFI EndBlock cfiBlock2
//  395 /*
//  396 终端发送温湿度值
//  397 */

        RSEG BANKED_CODE:CODE:NOROOT(0)
//  398 void PointToPoint_SendTemperature(void)
PointToPoint_SendTemperature:
        CFI Block cfiBlock3 Using cfiCommon0
        CFI Function PointToPoint_SendTemperature
        CODE
//  399 {
        FUNCALL PointToPoint_SendTemperature, SHT2x_GetTemp
        LOCFRAME ISTACK, 0, STACK
        LOCFRAME PSTACK, 0, STACK
        LOCFRAME XSTACK, 12, STACK
        LOCFRAME IOVERLAY, 0, STATIC
        LOCFRAME DOVERLAY, 0, STATIC
        ARGFRAME ISTACK, 0, STACK
        ARGFRAME PSTACK, 0, STACK
        ARGFRAME XSTACK, 12, STACK
        ARGFRAME IOVERLAY, 0, STATIC
        ARGFRAME DOVERLAY, 0, STATIC
        FUNCALL PointToPoint_SendTemperature, SHT2x_GetHumi
        LOCFRAME ISTACK, 0, STACK
        LOCFRAME PSTACK, 0, STACK
        LOCFRAME XSTACK, 12, STACK
        LOCFRAME IOVERLAY, 0, STATIC
        LOCFRAME DOVERLAY, 0, STATIC
        ARGFRAME ISTACK, 0, STACK
        ARGFRAME PSTACK, 0, STACK
        ARGFRAME XSTACK, 12, STACK
        ARGFRAME IOVERLAY, 0, STATIC
        ARGFRAME DOVERLAY, 0, STATIC
        FUNCALL PointToPoint_SendTemperature, AF_DataRequest
        LOCFRAME ISTACK, 0, STACK
        LOCFRAME PSTACK, 0, STACK
        LOCFRAME XSTACK, 21, STACK
        LOCFRAME IOVERLAY, 0, STATIC
        LOCFRAME DOVERLAY, 0, STATIC
        ARGFRAME ISTACK, 0, STACK
        ARGFRAME PSTACK, 0, STACK
        ARGFRAME XSTACK, 21, STACK
        ARGFRAME IOVERLAY, 0, STATIC
        ARGFRAME DOVERLAY, 0, STATIC
        FUNCALL PointToPoint_SendTemperature, printf
        LOCFRAME ISTACK, 0, STACK
        LOCFRAME PSTACK, 0, STACK
        LOCFRAME XSTACK, 12, STACK
        LOCFRAME IOVERLAY, 0, STATIC
        LOCFRAME DOVERLAY, 0, STATIC
        ARGFRAME ISTACK, 0, STACK
        ARGFRAME PSTACK, 0, STACK
        ARGFRAME XSTACK, 12, STACK
        ARGFRAME IOVERLAY, 0, STATIC
        ARGFRAME DOVERLAY, 0, STATIC
        MOV     A,#-0xa
        LCALL   ?BANKED_ENTER_XDATA
        CFI DPH0 load(1, XDATA, add(CFA_XSP16, literal(-1)))
        CFI DPL0 load(1, XDATA, add(CFA_XSP16, literal(-2)))
        CFI ?BRET_EXT load(1, XDATA, add(CFA_XSP16, literal(-3)))
        CFI ?RET_HIGH load(1, XDATA, add(CFA_XSP16, literal(-4)))
        CFI ?RET_LOW load(1, XDATA, add(CFA_XSP16, literal(-5)))
        CFI R7 load(1, XDATA, add(CFA_XSP16, literal(-6)))
        CFI V1 load(1, XDATA, add(CFA_XSP16, literal(-7)))
        CFI V0 load(1, XDATA, add(CFA_XSP16, literal(-8)))
        CFI VB load(1, XDATA, add(CFA_XSP16, literal(-9)))
        CFI R6 load(1, XDATA, add(CFA_XSP16, literal(-10)))
        CFI CFA_SP SP+0
        CFI CFA_XSP16 add(XSP16, 10)
        ; Saved register size: 10
        ; Auto size: 2
        MOV     A,#-0x2
        LCALL   ?ALLOC_XSTACK8
        CFI CFA_XSP16 add(XSP16, 12)
//  400   uint8 sendbuf[2];
//  401   sendbuf[0] = SHT2x_GetTemp();//获取温度值
        ; Setup parameters for call to function SHT2x_GetTemp
        LCALL   ??SHT2x_GetTemp?relay
        MOV     A,R1
        MOV     DPL,?XSP + 0
        MOV     DPH,?XSP + 1
        MOVX    @DPTR,A
//  402   sendbuf[1] = SHT2x_GetHumi();//获取湿度值  
        ; Setup parameters for call to function SHT2x_GetHumi
        LCALL   ??SHT2x_GetHumi?relay
        MOV     A,R1
        PUSH    A
        CFI CFA_SP SP+-1
        MOV     A,#0x1
        LCALL   ?XSTACK_DISP0_8
        POP     A
        CFI CFA_SP SP+0
        MOVX    @DPTR,A
//  403   if ( AF_DataRequest( &Point_To_Point_DstAddr,
//  404                        &SampleApp_epDesc,
//  405                        SAMPLEAPP_POINT_TO_POINT_CLUSTERID,
//  406                        2,
//  407                        sendbuf,
//  408                        &SampleApp_TransID,
//  409                        AF_DISCV_ROUTE,
//  410                        AF_DEFAULT_RADIUS ) == afStatus_SUCCESS )
        ; Setup parameters for call to function AF_DataRequest
        MOV     ?V0 + 0,#0x1e
        MOV     R0,#?V0 + 0
        LCALL   ?PUSH_XSTACK_I_ONE
        CFI CFA_XSP16 add(XSP16, 13)
        MOV     ?V0 + 0,#SampleApp_TransID & 0xff
        MOV     ?V0 + 1,#(SampleApp_TransID >> 8) & 0xff
        MOV     R0,#?V0 + 0
        LCALL   ?PUSH_XSTACK_I_TWO
        CFI CFA_XSP16 add(XSP16, 15)
        MOV     A,#0x3
        LCALL   ?XSTACK_DISP0_8
        MOV     ?V0 + 0,DPL
        MOV     ?V0 + 1,DPH
        MOV     R0,#?V0 + 0
        LCALL   ?PUSH_XSTACK_I_TWO
        CFI CFA_XSP16 add(XSP16, 17)
        MOV     ?V0 + 0,#0x2
        MOV     ?V0 + 1,#0x0
        MOV     R0,#?V0 + 0
        LCALL   ?PUSH_XSTACK_I_TWO
        CFI CFA_XSP16 add(XSP16, 19)
        MOV     ?V0 + 0,#0x4
        MOV     R0,#?V0 + 0
        LCALL   ?PUSH_XSTACK_I_TWO
        CFI CFA_XSP16 add(XSP16, 21)
        MOV     R1,#0x20
        MOV     R4,#SampleApp_epDesc & 0xff
        MOV     R5,#(SampleApp_epDesc >> 8) & 0xff
        MOV     R2,#Point_To_Point_DstAddr & 0xff
        MOV     R3,#(Point_To_Point_DstAddr >> 8) & 0xff
        LCALL   ??AF_DataRequest?relay
        MOV     A,#0x9
        LCALL   ?DEALLOC_XSTACK8
        CFI CFA_XSP16 add(XSP16, 12)
        MOV     A,R1
        JNZ     ??PointToPoint_SendTemperature_0
//  411   {
//  412     printf("tx success\r\n");//串口打印提示，发送成功
        ; Setup parameters for call to function printf
        MOV     R2,#`?<Constant "tx success\\r\\n">` & 0xff
        MOV     R3,#(`?<Constant "tx success\\r\\n">` >> 8) & 0xff
        LCALL   ??printf?relay
//  413   }
//  414 }
??PointToPoint_SendTemperature_0:
        MOV     A,#0x2
        LCALL   ?DEALLOC_XSTACK8
        CFI CFA_XSP16 add(XSP16, 10)
        MOV     R7,#0x2
        LJMP    ?BANKED_LEAVE_XDATA
        CFI EndBlock cfiBlock3

        RSEG XDATA_ID:CODE:NOROOT(0)
`?<Initializer for SendTemperatureIndicate>`:
        DATA8
        DB 1

        RSEG BANK_RELAYS:CODE:REORDER:NOROOT(0)
??SampleApp_Init?relay:
        LCALL   ?BDISPATCH
        DATA
        DC24    SampleApp_Init

        RSEG BANK_RELAYS:CODE:REORDER:NOROOT(0)
??SampleApp_ProcessEvent?relay:
        LCALL   ?BDISPATCH
        DATA
        DC24    SampleApp_ProcessEvent

        RSEG BANK_RELAYS:CODE:REORDER:NOROOT(0)
??SampleApp_MessageMSGCB?relay:
        LCALL   ?BDISPATCH
        DATA
        DC24    SampleApp_MessageMSGCB

        RSEG BANK_RELAYS:CODE:REORDER:NOROOT(0)
??PointToPoint_SendTemperature?relay:
        LCALL   ?BDISPATCH
        DATA
        DC24    PointToPoint_SendTemperature

        RSEG XDATA_ROM_C:CONST:REORDER:NOROOT(0)
        DATA8
`?<Constant "i am end device\\r\\n">`:
        DB "i am end device\015\012"

        RSEG XDATA_ROM_C:CONST:REORDER:NOROOT(0)
        DATA8
`?<Constant "end device">`:
        DB "end device"

        RSEG XDATA_ROM_C:CONST:REORDER:NOROOT(0)
        DATA8
`?<Constant "hello world\\r\\n">`:
        DB "hello world\015\012"

        RSEG XDATA_ROM_C:CONST:REORDER:NOROOT(0)
        DATA8
`?<Constant "coord ready!">`:
        DB "coord ready!"

        RSEG XDATA_ROM_C:CONST:REORDER:NOROOT(0)
        DATA8
`?<Constant "send temperature\\r\\n">`:
        DB "send temperature\015\012"

        RSEG XDATA_ROM_C:CONST:REORDER:NOROOT(0)
        DATA8
`?<Constant "temperture=xx">`:
        DB "temperture=xx"

        RSEG XDATA_ROM_C:CONST:REORDER:NOROOT(0)
        DATA8
`?<Constant "humidity=xx">`:
        DB "humidity=xx"

        RSEG XDATA_ROM_C:CONST:REORDER:NOROOT(0)
        DATA8
`?<Constant "Temperature=%d\\r\\n">`:
        DB "Temperature=%d\015\012"

        RSEG XDATA_ROM_C:CONST:REORDER:NOROOT(0)
        DATA8
`?<Constant "Humidity=%d\\r\\n">`:
        DB "Humidity=%d\015\012"

        RSEG XDATA_ROM_C:CONST:REORDER:NOROOT(0)
        DATA8
`?<Constant "tx success\\r\\n">`:
        DB "tx success\015\012"

        END
//  415 
//  416 
//  417 
//  418 /*********************************************************************
//  419 *********************************************************************/
// 
// 919 bytes in segment BANKED_CODE
//  24 bytes in segment BANK_RELAYS
//   1 byte  in segment XDATA_I
//   1 byte  in segment XDATA_ID
// 161 bytes in segment XDATA_ROM_C
//  77 bytes in segment XDATA_Z
// 
// 944 bytes of CODE  memory
// 161 bytes of CONST memory
//  78 bytes of XDATA memory
//
//Errors: none
//Warnings: none
