###############################################################################
#                                                                             #
# IAR C/C++ Compiler V8.10.3.10338/W32 for 8051         18/Dec/2020  11:23:22 #
# Copyright 2004-2011 IAR Systems AB.                                         #
#                                                                             #
#    Core               =  plain                                              #
#    Code model         =  banked                                             #
#    Data model         =  large                                              #
#    Calling convention =  xdata reentrant                                    #
#    Constant location  =  data_rom                                           #
#    Dptr setup         =  1,16                                               #
#    Source file        =  C:\Users\Administrator\Desktop\eps\ZigBeeÕ®–≈ µ—È\ #
#                          4.ZigBeeÕ¯¬Á¥´ ‰PM2.5 µ—È\Components\mt\MT.c       #
#    Command line       =  -f C:\Users\Administrator\Desktop\eps\ZigBeeÕ®–≈ µ #
#                          —È\4.ZigBeeÕ¯¬Á¥´ ‰PM2.5 µ—È\Projects\zstack\Sampl #
#                          es\SampleApp\CC2530DB\..\..\..\Tools\CC2530DB\f8wE #
#                          ndev.cfg (-DCPU32MHZ -DROOT=__near_func            #
#                          -DBLINK_LEDS) -f C:\Users\Administrator\Desktop\ep #
#                          s\ZigBeeÕ®–≈ µ—È\4.ZigBeeÕ¯¬Á¥´ ‰PM2.5 µ—È\Project #
#                          s\zstack\Samples\SampleApp\CC2530DB\..\..\..\Tools #
#                          \CC2530DB\f8wConfig.cfg (-DSECURE=0                #
#                          -DZG_SECURE_DYNAMIC=0 -DREFLECTOR                  #
#                          -DDEFAULT_CHANLIST=0x00000800                      #
#                          -DZDAPP_CONFIG_PAN_ID=0xFF11                       #
#                          -DNWK_START_DELAY=100 -DEXTENDED_JOINING_RANDOM_MA #
#                          SK=0x007F -DBEACON_REQUEST_DELAY=100               #
#                          -DBEACON_REQ_DELAY_MASK=0x00FF                     #
#                          -DROUTE_EXPIRY_TIME=30 -DAPSC_ACK_WAIT_DURATION_PO #
#                          LLED=3000 -DNWK_INDIRECT_MSG_TIMEOUT=7             #
#                          -DMAX_RREQ_ENTRIES=8 -DAPSC_MAX_FRAME_RETRIES=3    #
#                          -DNWK_MAX_DATA_RETRIES=2                           #
#                          -DMAX_POLL_FAILURE_RETRIES=2 -DMAX_BCAST=9         #
#                          -DAPS_MAX_GROUPS=16 -DMAX_RTG_ENTRIES=40           #
#                          -DNWK_MAX_BINDING_ENTRIES=4                        #
#                          -DMAX_BINDING_CLUSTER_IDS=4 "-DDEFAULT_KEY={0x01,  #
#                          0x03, 0x05, 0x07, 0x09, 0x0B, 0x0D, 0x0F, 0x00,    #
#                          0x02, 0x04, 0x06, 0x08, 0x0A, 0x0C, 0x0D}"         #
#                          -DMAC_MAX_FRAME_SIZE=116 "-DCONST=const __code"    #
#                          -DGENERIC=__generic -DRFD_RCVC_ALWAYS_ON=FALSE     #
#                          -DPOLL_RATE=1000 -DQUEUED_POLL_RATE=100            #
#                          -DRESPONSE_POLL_RATE=100) -DREJOIN_POLL_RATE=440   #
#                          C:\Users\Administrator\Desktop\eps\ZigBeeÕ®–≈ µ—È\ #
#                          4.ZigBeeÕ¯¬Á¥´ ‰PM2.5 µ—È\Components\mt\MT.c -D    #
#                          NWK_AUTO_POLL -D ZTOOL_P1 -D MT_SYS_FUNC -D        #
#                          MT_ZDO_FUNC -D LCD_SUPPORTED=DEBUG -lC             #
#                          C:\Users\Administrator\Desktop\eps\ZigBeeÕ®–≈ µ—È\ #
#                          4.ZigBeeÕ¯¬Á¥´ ‰PM2.5 µ—È\Projects\zstack\Samples\ #
#                          SampleApp\CC2530DB\EndDeviceEB\List\ -lA           #
#                          C:\Users\Administrator\Desktop\eps\ZigBeeÕ®–≈ µ—È\ #
#                          4.ZigBeeÕ¯¬Á¥´ ‰PM2.5 µ—È\Projects\zstack\Samples\ #
#                          SampleApp\CC2530DB\EndDeviceEB\List\               #
#                          --diag_suppress Pe001,Pa010 -o                     #
#                          C:\Users\Administrator\Desktop\eps\ZigBeeÕ®–≈ µ—È\ #
#                          4.ZigBeeÕ¯¬Á¥´ ‰PM2.5 µ—È\Projects\zstack\Samples\ #
#                          SampleApp\CC2530DB\EndDeviceEB\Obj\ -e             #
#                          --no_unroll --no_inline --no_tbaa --debug          #
#                          --core=plain --dptr=16,1 --data_model=large        #
#                          --code_model=banked --calling_convention=xdata_ree #
#                          ntrant --place_constants=data_rom                  #
#                          --nr_virtual_regs 16 -I C:\Users\Administrator\Des #
#                          ktop\eps\ZigBeeÕ®–≈ µ—È\4.ZigBeeÕ¯¬Á¥´ ‰PM2.5 µ—È\ #
#                          Projects\zstack\Samples\SampleApp\CC2530DB\ -I     #
#                          C:\Users\Administrator\Desktop\eps\ZigBeeÕ®–≈ µ—È\ #
#                          4.ZigBeeÕ¯¬Á¥´ ‰PM2.5 µ—È\Projects\zstack\Samples\ #
#                          SampleApp\CC2530DB\..\SOURCE\ -I                   #
#                          C:\Users\Administrator\Desktop\eps\ZigBeeÕ®–≈ µ—È\ #
#                          4.ZigBeeÕ¯¬Á¥´ ‰PM2.5 µ—È\Projects\zstack\Samples\ #
#                          SampleApp\CC2530DB\..\..\..\ZMAIN\TI2530DB\ -I     #
#                          C:\Users\Administrator\Desktop\eps\ZigBeeÕ®–≈ µ—È\ #
#                          4.ZigBeeÕ¯¬Á¥´ ‰PM2.5 µ—È\Projects\zstack\Samples\ #
#                          SampleApp\CC2530DB\..\..\..\..\..\COMPONENTS\MT\   #
#                          -I C:\Users\Administrator\Desktop\eps\ZigBeeÕ®–≈ µ #
#                          —È\4.ZigBeeÕ¯¬Á¥´ ‰PM2.5 µ—È\Projects\zstack\Sampl #
#                          es\SampleApp\CC2530DB\..\..\..\..\..\COMPONENTS\HA #
#                          L\INCLUDE\ -I C:\Users\Administrator\Desktop\eps\Z #
#                          igBeeÕ®–≈ µ—È\4.ZigBeeÕ¯¬Á¥´ ‰PM2.5 µ—È\Projects\z #
#                          stack\Samples\SampleApp\CC2530DB\..\..\..\..\..\CO #
#                          MPONENTS\HAL\TARGET\CC2530EB\ -I                   #
#                          C:\Users\Administrator\Desktop\eps\ZigBeeÕ®–≈ µ—È\ #
#                          4.ZigBeeÕ¯¬Á¥´ ‰PM2.5 µ—È\Projects\zstack\Samples\ #
#                          SampleApp\CC2530DB\..\..\..\..\..\COMPONENTS\OSAL\ #
#                          MCU\CCSOC\ -I C:\Users\Administrator\Desktop\eps\Z #
#                          igBeeÕ®–≈ µ—È\4.ZigBeeÕ¯¬Á¥´ ‰PM2.5 µ—È\Projects\z #
#                          stack\Samples\SampleApp\CC2530DB\..\..\..\..\..\CO #
#                          MPONENTS\OSAL\INCLUDE\ -I                          #
#                          C:\Users\Administrator\Desktop\eps\ZigBeeÕ®–≈ µ—È\ #
#                          4.ZigBeeÕ¯¬Á¥´ ‰PM2.5 µ—È\Projects\zstack\Samples\ #
#                          SampleApp\CC2530DB\..\..\..\..\..\COMPONENTS\STACK #
#                          \AF\ -I C:\Users\Administrator\Desktop\eps\ZigBeeÕ #
#                          ®–≈ µ—È\4.ZigBeeÕ¯¬Á¥´ ‰PM2.5 µ—È\Projects\zstack\ #
#                          Samples\SampleApp\CC2530DB\..\..\..\..\..\COMPONEN #
#                          TS\STACK\NWK\ -I C:\Users\Administrator\Desktop\ep #
#                          s\ZigBeeÕ®–≈ µ—È\4.ZigBeeÕ¯¬Á¥´ ‰PM2.5 µ—È\Project #
#                          s\zstack\Samples\SampleApp\CC2530DB\..\..\..\..\.. #
#                          \COMPONENTS\STACK\SEC\ -I                          #
#                          C:\Users\Administrator\Desktop\eps\ZigBeeÕ®–≈ µ—È\ #
#                          4.ZigBeeÕ¯¬Á¥´ ‰PM2.5 µ—È\Projects\zstack\Samples\ #
#                          SampleApp\CC2530DB\..\..\..\..\..\COMPONENTS\STACK #
#                          \SAPI\ -I C:\Users\Administrator\Desktop\eps\ZigBe #
#                          eÕ®–≈ µ—È\4.ZigBeeÕ¯¬Á¥´ ‰PM2.5 µ—È\Projects\zstac #
#                          k\Samples\SampleApp\CC2530DB\..\..\..\..\..\COMPON #
#                          ENTS\STACK\SYS\ -I C:\Users\Administrator\Desktop\ #
#                          eps\ZigBeeÕ®–≈ µ—È\4.ZigBeeÕ¯¬Á¥´ ‰PM2.5 µ—È\Proje #
#                          cts\zstack\Samples\SampleApp\CC2530DB\..\..\..\..\ #
#                          ..\COMPONENTS\STACK\ZDO\ -I                        #
#                          C:\Users\Administrator\Desktop\eps\ZigBeeÕ®–≈ µ—È\ #
#                          4.ZigBeeÕ¯¬Á¥´ ‰PM2.5 µ—È\Projects\zstack\Samples\ #
#                          SampleApp\CC2530DB\..\..\..\..\..\COMPONENTS\ZMAC\ #
#                          F8W\ -I C:\Users\Administrator\Desktop\eps\ZigBeeÕ #
#                          ®–≈ µ—È\4.ZigBeeÕ¯¬Á¥´ ‰PM2.5 µ—È\Projects\zstack\ #
#                          Samples\SampleApp\CC2530DB\..\..\..\..\..\COMPONEN #
#                          TS\ZMAC\ -I C:\Users\Administrator\Desktop\eps\Zig #
#                          BeeÕ®–≈ µ—È\4.ZigBeeÕ¯¬Á¥´ ‰PM2.5 µ—È\Projects\zst #
#                          ack\Samples\SampleApp\CC2530DB\..\..\..\..\..\COMP #
#                          ONENTS\SERVICES\SADDR\ -I                          #
#                          C:\Users\Administrator\Desktop\eps\ZigBeeÕ®–≈ µ—È\ #
#                          4.ZigBeeÕ¯¬Á¥´ ‰PM2.5 µ—È\Projects\zstack\Samples\ #
#                          SampleApp\CC2530DB\..\..\..\..\..\COMPONENTS\SERVI #
#                          CES\SDATA\ -I C:\Users\Administrator\Desktop\eps\Z #
#                          igBeeÕ®–≈ µ—È\4.ZigBeeÕ¯¬Á¥´ ‰PM2.5 µ—È\Projects\z #
#                          stack\Samples\SampleApp\CC2530DB\..\..\..\..\..\CO #
#                          MPONENTS\MAC\INCLUDE\ -I                           #
#                          C:\Users\Administrator\Desktop\eps\ZigBeeÕ®–≈ µ—È\ #
#                          4.ZigBeeÕ¯¬Á¥´ ‰PM2.5 µ—È\Projects\zstack\Samples\ #
#                          SampleApp\CC2530DB\..\..\..\..\..\COMPONENTS\MAC\H #
#                          IGH_LEVEL\ -I C:\Users\Administrator\Desktop\eps\Z #
#                          igBeeÕ®–≈ µ—È\4.ZigBeeÕ¯¬Á¥´ ‰PM2.5 µ—È\Projects\z #
#                          stack\Samples\SampleApp\CC2530DB\..\..\..\..\..\CO #
#                          MPONENTS\MAC\LOW_LEVEL\srf04\ -I                   #
#                          C:\Users\Administrator\Desktop\eps\ZigBeeÕ®–≈ µ—È\ #
#                          4.ZigBeeÕ¯¬Á¥´ ‰PM2.5 µ—È\Projects\zstack\Samples\ #
#                          SampleApp\CC2530DB\..\..\..\..\..\COMPONENTS\MAC\L #
#                          OW_LEVEL\srf04\SINGLE_CHIP\ -I                     #
#                          C:\Users\Administrator\Desktop\eps\ZigBeeÕ®–≈ µ—È\ #
#                          4.ZigBeeÕ¯¬Á¥´ ‰PM2.5 µ—È\Projects\zstack\Samples\ #
#                          SampleApp\CC2530DB\..\..\..\..\..\COMPONENTS\HARDW #
#                          ARE\ -Om                                           #
#    List file          =  C:\Users\Administrator\Desktop\eps\ZigBeeÕ®–≈ µ—È\ #
#                          4.ZigBeeÕ¯¬Á¥´ ‰PM2.5 µ—È\Projects\zstack\Samples\ #
#                          SampleApp\CC2530DB\EndDeviceEB\List\MT.lst         #
#    Object file        =  C:\Users\Administrator\Desktop\eps\ZigBeeÕ®–≈ µ—È\ #
#                          4.ZigBeeÕ¯¬Á¥´ ‰PM2.5 µ—È\Projects\zstack\Samples\ #
#                          SampleApp\CC2530DB\EndDeviceEB\Obj\MT.r51          #
#                                                                             #
#                                                                             #
###############################################################################

C:\Users\Administrator\Desktop\eps\ZigBeeÕ®–≈ µ—È\4.ZigBeeÕ¯¬Á¥´ ‰PM2.5 µ—È\Components\mt\MT.c
      1          /***************************************************************************************************
      2            Filename:       MTEL.c
      3            Revised:        $Date: 2009-10-28 00:05:19 -0700 (Wed, 28 Oct 2009) $
      4            Revision:       $Revision: 20998 $
      5          
      6            Description:    MonitorTest Event Loop functions.  Everything in the
      7                            MonitorTest Task (except the serial driver).
      8          
      9            Copyright 2007 Texas Instruments Incorporated. All rights reserved.
     10          
     11            IMPORTANT: Your use of this Software is limited to those specific rights
     12            granted under the terms of a software license agreement between the user
     13            who downloaded the software, his/her employer (which must be your employer)
     14            and Texas Instruments Incorporated (the "License").  You may not use this
     15            Software unless you agree to abide by the terms of the License. The License
     16            limits your use, and you acknowledge, that the Software may not be modified,
     17            copied or distributed unless embedded on a Texas Instruments microcontroller
     18            or used solely and exclusively in conjunction with a Texas Instruments radio
     19            frequency transceiver, which is integrated into your product.  Other than for
     20            the foregoing purpose, you may not use, reproduce, copy, prepare derivative
     21            works of, modify, distribute, perform, display or sell this Software and/or
     22            its documentation for any purpose.
     23          
     24            YOU FURTHER ACKNOWLEDGE AND AGREE THAT THE SOFTWARE AND DOCUMENTATION ARE
     25            PROVIDED ìAS ISî WITHOUT WARRANTY OF ANY KIND, EITHER EXPRESS OR IMPLIED,
     26            INCLUDING WITHOUT LIMITATION, ANY WARRANTY OF MERCHANTABILITY, TITLE,
     27            NON-INFRINGEMENT AND FITNESS FOR A PARTICULAR PURPOSE. IN NO EVENT SHALL
     28            TEXAS INSTRUMENTS OR ITS LICENSORS BE LIABLE OR OBLIGATED UNDER CONTRACT,
     29            NEGLIGENCE, STRICT LIABILITY, CONTRIBUTION, BREACH OF WARRANTY, OR OTHER
     30            LEGAL EQUITABLE THEORY ANY DIRECT OR INDIRECT DAMAGES OR EXPENSES
     31            INCLUDING BUT NOT LIMITED TO ANY INCIDENTAL, SPECIAL, INDIRECT, PUNITIVE
     32            OR CONSEQUENTIAL DAMAGES, LOST PROFITS OR LOST DATA, COST OF PROCUREMENT
     33            OF SUBSTITUTE GOODS, TECHNOLOGY, SERVICES, OR ANY CLAIMS BY THIRD PARTIES
     34            (INCLUDING BUT NOT LIMITED TO ANY DEFENSE THEREOF), OR OTHER SIMILAR COSTS.
     35          
     36            Should you have any questions regarding your right to use this Software,
     37            contact Texas Instruments Incorporated at www.TI.com.
     38          
     39           ***************************************************************************************************/
     40          
     41          
     42          /***************************************************************************************************
     43           * INCLUDES
     44           ***************************************************************************************************/
     45          #include "ZComDef.h"
     46          #include "MT.h"
     47          #include "MT_APP.h"
     48          #include "MT_DEBUG.h"
     49          #include "MT_UTIL.h"
     50          #include "MT_SYS.h"
     51          #include "MT_SAPI.h"
     52          #include "AF.h"
     53          
     54          #include "OnBoard.h"
     55          #include "OSAL.h"
     56          #include "OSAL_Memory.h"
     57          #include "OSAL_Nv.h"
     58          
     59          #include "DebugTrace.h"
     60          #include "ZMAC.h"
     61          
     62          #if !defined ( NONWK )
     63            #include "NLMEDE.h"
     64            #include "nwk_bufs.h"
     65            #include "ZDObject.h"
     66            #include "ssp.h"
     67            #include "nwk_util.h"
     68          #endif
     69          
     70          #if defined( MT_MAC_FUNC ) || defined( MT_MAC_CB_FUNC )
     71            #include "MT_MAC.h"
     72          #endif
     73          #if defined( MT_NWK_FUNC ) || defined( MT_NWK_CB_FUNC )
     74            #include "MT_NWK.h"
     75            #include "nwk.h"
     76            #include "nwk_bufs.h"
     77          #endif
     78          #if defined( MT_AF_FUNC ) || defined( MT_AF_CB_FUNC )
     79            #include "MT_AF.h"
     80          #endif
     81          #if defined( MT_USER_TEST_FUNC )
     82            #include "AF.h"
     83          #endif
     84          #if defined( MT_ZDO_FUNC )
     85            #include "MT_ZDO.h"
     86          #endif
     87          #if defined (MT_SAPI_FUNC)
     88          	#include "MT_SAPI.h"
     89          #endif
     90          #if defined( APP_TP )
     91           #include "TestProfile.h"
     92          #endif
     93          #if defined( APP_TP2 )
     94           #include "TestProfile2.h"
     95          #endif
     96          
     97          #if defined(APP_TGEN)
     98            #include "TrafficGenApp.h"
     99          #endif
    100          #if defined(APP_DEBUG)
    101          	#include "DebugApp.h"
    102          #endif
    103          #if defined (NWK_TEST)
    104          	#include "HWTTApp.h"
    105          #endif
    106          
    107          /* HAL */
    108          #include "hal_uart.h"
    109          #include "hal_led.h"
    110          #include "hal_key.h"
    111          #include "MT_UART.h"
    112          
    113          /***************************************************************************************************
    114           * MACROS
    115           ***************************************************************************************************/
    116          #define MTEL_DEBUG_INFO( nParams, p1, p2, p3 ) DEBUG_INFO( COMPID_MTEL, nParams, p1, p2, p3 )
    117          
    118          #define MT_ERROR_SRSP_LEN   3
    119          
    120          /***************************************************************************************************
    121           * CONSTANTS
    122           ***************************************************************************************************/

   \                                 In  segment XDATA_I, align 1, keep-with-next
    123          mtProcessMsg_t mtProcessIncoming[] =
   \                     mtProcessIncoming:
   \   000000                DS 20
   \   000014                REQUIRE `?<Initializer for mtProcessIncoming>`
   \   000014                REQUIRE __INIT_XDATA_I
    124          {
    125            NULL,
    126          
    127          #if defined (MT_SYS_FUNC)
    128            MT_SysCommandProcessing,
    129          #else
    130            NULL,
    131          #endif
    132          
    133          #if defined (MT_MAC_FUNC)
    134            MT_MacCommandProcessing,
    135          #else
    136            NULL,
    137          #endif
    138          
    139          #if defined (MT_NWK_FUNC)
    140            MT_NwkCommandProcessing,
    141          #else
    142            NULL,
    143          #endif
    144          
    145          #if defined (MT_AF_FUNC)
    146            MT_AfCommandProcessing,
    147          #else
    148            NULL,
    149          #endif
    150          
    151          #if defined (MT_ZDO_FUNC)
    152            MT_ZdoCommandProcessing,
    153          #else
    154            NULL,
    155          #endif
    156          
    157          #if defined (MT_SAPI_FUNC)
    158            MT_SapiCommandProcessing,
    159          #else
    160            NULL,
    161          #endif
    162          
    163          #if defined (MT_UTIL_FUNC)
    164            MT_UtilCommandProcessing,
    165          #else
    166            NULL,
    167          #endif
    168          
    169          #if defined (MT_DEBUG_FUNC)
    170            MT_DebugCommandProcessing,
    171          #else
    172            NULL,
    173          #endif
    174          
    175          #if defined (MT_APP_FUNC)
    176            MT_AppCommandProcessing,
    177          #else
    178            NULL,
    179          #endif
    180          
    181          };
    182          
    183          /***************************************************************************************************
    184           * TYPEDEFS
    185           ***************************************************************************************************/
    186          
    187          /***************************************************************************************************
    188           * GLOBAL VARIABLES
    189           ***************************************************************************************************/

   \                                 In  segment XDATA_Z, align 1, keep-with-next
    190          UINT16 save_cmd;
   \                     save_cmd:
   \   000000                DS 2
   \   000002                REQUIRE __INIT_XDATA_Z
    191          

   \                                 In  segment XDATA_Z, align 1, keep-with-next
    192          byte MT_TaskID;
   \                     MT_TaskID:
   \   000000                DS 1
   \   000001                REQUIRE __INIT_XDATA_Z

   \                                 In  segment XDATA_Z, align 1, keep-with-next
    193          byte debugThreshold;
   \                     debugThreshold:
   \   000000                DS 1
   \   000001                REQUIRE __INIT_XDATA_Z

   \                                 In  segment XDATA_Z, align 1, keep-with-next
    194          byte debugCompId;
   \                     debugCompId:
   \   000000                DS 1
   \   000001                REQUIRE __INIT_XDATA_Z
    195          
    196          /***************************************************************************************************
    197           * EXTERNAL FUNCTIONS
    198           ***************************************************************************************************/
    199          extern unsigned int mac_sim_eventLoop( void );
    200          
    201          #ifdef MACSIM
    202          extern void MACSIM_TranslateMsg( byte *buf, byte bLen );  /*  Used to pass Zignet message */
    203          #endif
    204          
    205          
    206          /***************************************************************************************************
    207           * LOCAL VARIABLES
    208           ***************************************************************************************************/
    209          
    210          /***************************************************************************************************
    211           * LOCAL FUNCTIONS
    212           ***************************************************************************************************/
    213          void MT_MsgQueueInit( void );
    214          void MT_ResetMsgQueue( void );
    215          byte MT_QueueMsg( byte *msg , byte len );
    216          void MT_ProcessQueue( void );
    217          
    218          #if defined ( MT_USER_TEST_FUNC )
    219          void MT_ProcessAppUserCmd( byte *pData );
    220          #endif
    221          
    222          /***************************************************************************************************
    223           * @fn      MT_Init()
    224           *
    225           * @brief   Initialize MT.
    226           *
    227           * @param   uint8 taskId - taskId
    228           *
    229           * @return  void
    230           ***************************************************************************************************/

   \                                 In  segment BANKED_CODE, align 1, keep-with-next
    231          void MT_Init(uint8 taskID)
   \                     MT_Init:
    232          {
   \   000000   74F7         MOV     A,#-0x9
   \   000002   12....       LCALL   ?BANKED_ENTER_XDATA
   \   000005                ; Saved register size: 9
   \   000005                ; Auto size: 0
   \   000005   E9           MOV     A,R1
    233            MT_TaskID = taskID;
   \   000006   90....       MOV     DPTR,#MT_TaskID
   \   000009   F0           MOVX    @DPTR,A
    234            debugThreshold = 0;
   \   00000A   90....       MOV     DPTR,#debugThreshold
   \   00000D   E4           CLR     A
   \   00000E   F0           MOVX    @DPTR,A
    235            debugCompId = 0;
   \   00000F   90....       MOV     DPTR,#debugCompId
   \   000012   F0           MOVX    @DPTR,A
    236            
    237          #if defined (MT_ZDO_FUNC)
    238            MT_ZdoInit();
   \   000013                ; Setup parameters for call to function MT_ZdoInit
   \   000013   12....       LCALL   ??MT_ZdoInit?relay
    239          #endif
    240            MT_SysResetInd();
   \   000016                ; Setup parameters for call to function MT_SysResetInd
   \   000016   12....       LCALL   ??MT_SysResetInd?relay
    241          }
   \   000019   7F01         MOV     R7,#0x1
   \   00001B   02....       LJMP    ?BANKED_LEAVE_XDATA
    242          
    243          /***************************************************************************************************
    244           * @fn      MT_BuildSPIMsg
    245           *
    246           * @brief
    247           *
    248           *   Format an SPI message.
    249           *
    250           * @param   UINT16 cmd - command id
    251           * @param   byte *msg - pointer to message buffer
    252           * @param   byte dataLen - length of data field
    253           * @param   byte *pData - pointer to data field
    254           *
    255           * @return  void
    256           ***************************************************************************************************/

   \                                 In  segment BANKED_CODE, align 1, keep-with-next
    257          void MT_BuildSPIMsg( uint8 cmdType, uint8 cmdId, byte *msg, byte dataLen, byte *pData )
   \                     MT_BuildSPIMsg:
    258          {
   \   000000   74F0         MOV     A,#-0x10
   \   000002   12....       LCALL   ?BANKED_ENTER_XDATA
   \   000005                ; Saved register size: 16
   \   000005                ; Auto size: 0
   \   000005   EC           MOV     A,R4
   \   000006   FE           MOV     R6,A
   \   000007   ED           MOV     A,R5
   \   000008   FF           MOV     R7,A
   \   000009   7410         MOV     A,#0x10
   \   00000B   12....       LCALL   ?XSTACK_DISP0_8
   \   00000E   E0           MOVX    A,@DPTR
   \   00000F   F5..         MOV     ?V0 + 0,A
   \   000011   A3           INC     DPTR
   \   000012   E0           MOVX    A,@DPTR
   \   000013   F5..         MOV     ?V0 + 1,A
    259            /* Fill in the CMD and Data Length */
    260            *msg++ = dataLen;
   \   000015   8E82         MOV     DPL,R6
   \   000017   8F83         MOV     DPH,R7
   \   000019   EB           MOV     A,R3
   \   00001A   F0           MOVX    @DPTR,A
   \   00001B   A3           INC     DPTR
    261            *msg++ = cmdType;
   \   00001C   E9           MOV     A,R1
   \   00001D   F0           MOVX    @DPTR,A
   \   00001E   A3           INC     DPTR
    262            *msg++ = cmdId;
   \   00001F   EA           MOV     A,R2
   \   000020   F0           MOVX    @DPTR,A
   \   000021   A3           INC     DPTR
   \   000022   AE82         MOV     R6,DPL
   \   000024   AF83         MOV     R7,DPH
    263          
    264            /* Fill in the data */
    265            if ( pData )
   \   000026   E5..         MOV     A,?V0 + 0
   \   000028   45..         ORL     A,?V0 + 1
   \   00002A   6020         JZ      ??MT_BuildSPIMsg_0
    266            {
    267              osal_memcpy( msg, pData, dataLen );
   \   00002C                ; Setup parameters for call to function osal_memcpy
   \   00002C   85....       MOV     ?V0 + 4,?V0 + 0
   \   00002F   85....       MOV     ?V0 + 5,?V0 + 1
   \   000032   75..00       MOV     ?V0 + 6,#0x0
   \   000035   78..         MOV     R0,#?V0 + 4
   \   000037   12....       LCALL   ?PUSH_XSTACK_I_THREE
   \   00003A   8B..         MOV     ?V0 + 0,R3
   \   00003C   AC..         MOV     R4,?V0 + 0
   \   00003E   7D00         MOV     R5,#0x0
   \   000040   EE           MOV     A,R6
   \   000041   FA           MOV     R2,A
   \   000042   EF           MOV     A,R7
   \   000043   FB           MOV     R3,A
   \   000044   12....       LCALL   ??osal_memcpy?relay
   \   000047   7403         MOV     A,#0x3
   \   000049   12....       LCALL   ?DEALLOC_XSTACK8
    268            }
    269          }
   \                     ??MT_BuildSPIMsg_0:
   \   00004C   7F08         MOV     R7,#0x8
   \   00004E   02....       LJMP    ?BANKED_LEAVE_XDATA
    270          
    271          /***************************************************************************************************
    272           * @fn      MT_BuildAndSendZToolResponse
    273           *
    274           * @brief   Build and send a ZTOOL msg
    275           * @param   uint8 cmdType - include type and subsystem
    276           *          uint8 cmdId - command ID
    277           *          byte dataLen
    278           *          byte *pData
    279           *
    280           * @return  void
    281           ***************************************************************************************************/

   \                                 In  segment BANKED_CODE, align 1, keep-with-next
    282          void MT_BuildAndSendZToolResponse(uint8 cmdType, uint8 cmdId, uint8 dataLen, uint8 *pData)
   \                     MT_BuildAndSendZToolResponse:
    283          {
   \   000000   74F0         MOV     A,#-0x10
   \   000002   12....       LCALL   ?BANKED_ENTER_XDATA
   \   000005                ; Saved register size: 16
   \   000005                ; Auto size: 0
   \   000005   89..         MOV     ?V0 + 1,R1
   \   000007   8A..         MOV     ?V0 + 4,R2
   \   000009   8B..         MOV     ?V0 + 0,R3
   \   00000B   8C..         MOV     ?V0 + 2,R4
   \   00000D   8D..         MOV     ?V0 + 3,R5
    284            uint8 *msg_ptr;
    285          
    286            /* Allocate memory including SOP and FCS */
    287            msg_ptr = MT_TransportAlloc((mtRpcCmdType_t)(cmdType & 0xE0), dataLen);
   \   00000F                ; Setup parameters for call to function MT_TransportAlloc
   \   00000F   AA..         MOV     R2,?V0 + 0
   \   000011   74E0         MOV     A,#-0x20
   \   000013   55..         ANL     A,?V0 + 1
   \   000015   F9           MOV     R1,A
   \   000016   12....       LCALL   ??MT_TransportAlloc?relay
   \   000019   8A..         MOV     ?V0 + 6,R2
   \   00001B   8B..         MOV     ?V0 + 7,R3
   \   00001D   AE..         MOV     R6,?V0 + 6
   \   00001F   AF..         MOV     R7,?V0 + 7
    288          
    289            if (msg_ptr)
   \   000021   EE           MOV     A,R6
   \   000022   4F           ORL     A,R7
   \   000023   601E         JZ      ??MT_BuildAndSendZToolResponse_0
    290            {
    291              /* Build the message */
    292              MT_BuildSPIMsg(cmdType, cmdId, msg_ptr, dataLen, pData);
   \   000025                ; Setup parameters for call to function MT_BuildSPIMsg
   \   000025   78..         MOV     R0,#?V0 + 2
   \   000027   12....       LCALL   ?PUSH_XSTACK_I_TWO
   \   00002A   AB..         MOV     R3,?V0 + 0
   \   00002C   EE           MOV     A,R6
   \   00002D   FC           MOV     R4,A
   \   00002E   EF           MOV     A,R7
   \   00002F   FD           MOV     R5,A
   \   000030   AA..         MOV     R2,?V0 + 4
   \   000032   A9..         MOV     R1,?V0 + 1
   \   000034   12....       LCALL   ??MT_BuildSPIMsg?relay
   \   000037   7402         MOV     A,#0x2
   \   000039   12....       LCALL   ?DEALLOC_XSTACK8
    293              /* Send out the msg */
    294              MT_TransportSend(msg_ptr);
   \   00003C                ; Setup parameters for call to function MT_TransportSend
   \   00003C   EE           MOV     A,R6
   \   00003D   FA           MOV     R2,A
   \   00003E   EF           MOV     A,R7
   \   00003F   FB           MOV     R3,A
   \   000040   12....       LCALL   ??MT_TransportSend?relay
    295            }
    296          }
   \                     ??MT_BuildAndSendZToolResponse_0:
   \   000043   7F08         MOV     R7,#0x8
   \   000045   02....       LJMP    ?BANKED_LEAVE_XDATA
    297          
    298          /***************************************************************************************************
    299           * @fn      MT_ProcessIncoming
    300           *
    301           * @brief  Process Incoming Message.
    302           *
    303           * @param   byte *pBuf - pointer to event message
    304           *
    305           * @return  void
    306           ***************************************************************************************************/

   \                                 In  segment BANKED_CODE, align 1, keep-with-next
    307          void MT_ProcessIncoming(uint8 *pBuf)
   \                     MT_ProcessIncoming:
    308          {
   \   000000   74F6         MOV     A,#-0xa
   \   000002   12....       LCALL   ?BANKED_ENTER_XDATA
   \   000005                ; Saved register size: 10
   \   000005                ; Auto size: 3
   \   000005   74FD         MOV     A,#-0x3
   \   000007   12....       LCALL   ?ALLOC_XSTACK8
    309            mtProcessMsg_t  func;
    310            uint8           rsp[MT_ERROR_SRSP_LEN];
    311          
    312            /* pre-build response message:  | status | cmd0 | cmd1 | */
    313            rsp[1] = pBuf[MT_RPC_POS_CMD0];
   \   00000A   8A82         MOV     DPL,R2
   \   00000C   8B83         MOV     DPH,R3
   \   00000E   A3           INC     DPTR
   \   00000F   E0           MOVX    A,@DPTR
   \   000010   F5..         MOV     ?V0 + 0,A
   \   000012   7401         MOV     A,#0x1
   \   000014   12....       LCALL   ?XSTACK_DISP0_8
   \   000017   E5..         MOV     A,?V0 + 0
   \   000019   F0           MOVX    @DPTR,A
    314            rsp[2] = pBuf[MT_RPC_POS_CMD1];
   \   00001A   8A82         MOV     DPL,R2
   \   00001C   8B83         MOV     DPH,R3
   \   00001E   A3           INC     DPTR
   \   00001F   A3           INC     DPTR
   \   000020   E0           MOVX    A,@DPTR
   \   000021   C0E0         PUSH    A
   \   000023   7402         MOV     A,#0x2
   \   000025   12....       LCALL   ?XSTACK_DISP0_8
   \   000028   D0E0         POP     A
   \   00002A   F0           MOVX    @DPTR,A
    315          
    316            /* check length */
    317            if (pBuf[MT_RPC_POS_LEN] > MT_RPC_DATA_MAX)
   \   00002B   8A82         MOV     DPL,R2
   \   00002D   8B83         MOV     DPH,R3
   \   00002F   E0           MOVX    A,@DPTR
   \   000030   C3           CLR     C
   \   000031   94FE         SUBB    A,#-0x2
   \   000033   400A         JC      ??MT_ProcessIncoming_0
    318            {
    319              rsp[0] = MT_RPC_ERR_LENGTH;
   \   000035   85..82       MOV     DPL,?XSP + 0
   \   000038   85..83       MOV     DPH,?XSP + 1
   \   00003B   7404         MOV     A,#0x4
   \   00003D   803E         SJMP    ??MT_ProcessIncoming_1
    320            }
    321            /* check subsystem range */
    322            else if ((rsp[1] & MT_RPC_SUBSYSTEM_MASK) < MT_RPC_SYS_MAX)
   \                     ??MT_ProcessIncoming_0:
   \   00003F   741F         MOV     A,#0x1f
   \   000041   55..         ANL     A,?V0 + 0
   \   000043   C3           CLR     C
   \   000044   940A         SUBB    A,#0xa
   \   000046   502D         JNC     ??MT_ProcessIncoming_2
    323            {
    324              /* look up processing function */
    325              func = mtProcessIncoming[rsp[1] & MT_RPC_SUBSYSTEM_MASK];
   \   000048   E5..         MOV     A,?V0 + 0
   \   00004A   541F         ANL     A,#0x1f
   \   00004C   C3           CLR     C
   \   00004D   33           RLC     A
   \   00004E   F8           MOV     R0,A
   \   00004F   74..         MOV     A,#mtProcessIncoming & 0xff
   \   000051   28           ADD     A,R0
   \   000052   F582         MOV     DPL,A
   \   000054   74..         MOV     A,#(mtProcessIncoming >> 8) & 0xff
   \   000056   3400         ADDC    A,#0x0
   \   000058   F583         MOV     DPH,A
   \   00005A   E0           MOVX    A,@DPTR
   \   00005B   F8           MOV     R0,A
   \   00005C   A3           INC     DPTR
   \   00005D   E0           MOVX    A,@DPTR
   \   00005E   F9           MOV     R1,A
   \   00005F   8882         MOV     DPL,R0
   \   000061   8983         MOV     DPH,R1
    326              if (func)
   \   000063   E582         MOV     A,DPL
   \   000065   4583         ORL     A,DPH
   \   000067   600C         JZ      ??MT_ProcessIncoming_2
    327              {
    328                /* execute processing function */
    329                rsp[0] = (*func)(pBuf);
   \   000069                ; Setup parameters for indirect call
   \   000069   12....       LCALL   ?CALL_IND
   \   00006C   E9           MOV     A,R1
   \   00006D   85..82       MOV     DPL,?XSP + 0
   \   000070   85..83       MOV     DPH,?XSP + 1
   \   000073   8008         SJMP    ??MT_ProcessIncoming_1
    330              }
    331              else
    332              {
    333                rsp[0] = MT_RPC_ERR_SUBSYSTEM;
   \                     ??MT_ProcessIncoming_2:
   \   000075   85..82       MOV     DPL,?XSP + 0
   \   000078   85..83       MOV     DPH,?XSP + 1
   \   00007B   7401         MOV     A,#0x1
   \                     ??MT_ProcessIncoming_1:
   \   00007D   F0           MOVX    @DPTR,A
    334              }
    335            }
    336            else
    337            {
    338              rsp[0] = MT_RPC_ERR_SUBSYSTEM;
    339            }
    340          
    341            /* if error and this was an SREQ, send error message */
    342            if ((rsp[0] != MT_RPC_SUCCESS) && ((rsp[1] & MT_RPC_CMD_TYPE_MASK) == MT_RPC_CMD_SREQ))
   \   00007E   E0           MOVX    A,@DPTR
   \   00007F   601F         JZ      ??MT_ProcessIncoming_3
   \   000081   7401         MOV     A,#0x1
   \   000083   12....       LCALL   ?XSTACK_DISP0_8
   \   000086   E0           MOVX    A,@DPTR
   \   000087   54E0         ANL     A,#0xe0
   \   000089   6420         XRL     A,#0x20
   \   00008B   7013         JNZ     ??MT_ProcessIncoming_3
    343            {
    344              MT_BuildAndSendZToolResponse(((uint8)MT_RPC_CMD_SRSP | (uint8)MT_RPC_SYS_RES0), 0, MT_ERROR_SRSP_LEN, rsp);
   \   00008D                ; Setup parameters for call to function MT_BuildAndSendZToolResponse
   \   00008D   85..82       MOV     DPL,?XSP + 0
   \   000090   85..83       MOV     DPH,?XSP + 1
   \   000093   AC82         MOV     R4,DPL
   \   000095   AD83         MOV     R5,DPH
   \   000097   7B03         MOV     R3,#0x3
   \   000099   7A00         MOV     R2,#0x0
   \   00009B   7960         MOV     R1,#0x60
   \   00009D   12....       LCALL   ??MT_BuildAndSendZToolResponse?relay
    345            }
    346          }
   \                     ??MT_ProcessIncoming_3:
   \   0000A0   7403         MOV     A,#0x3
   \   0000A2   12....       LCALL   ?DEALLOC_XSTACK8
   \   0000A5   7F02         MOV     R7,#0x2
   \   0000A7   02....       LJMP    ?BANKED_LEAVE_XDATA
    347          
    348          
    349          /***************************************************************************************************
    350           * @fn      MTProcessAppRspMsg
    351           *
    352           * @brief   Process the User App Response Message
    353           *
    354           * @param   data - output serial buffer.  The first byte must be the
    355           *          endpoint that send this message.
    356           * @param   len - data length
    357           *
    358           * @return  none
    359           ***************************************************************************************************/

   \                                 In  segment BANKED_CODE, align 1, keep-with-next
    360          void MTProcessAppRspMsg( byte *pData, byte len )
   \                     MTProcessAppRspMsg:
    361          {
   \   000000   74F7         MOV     A,#-0x9
   \   000002   12....       LCALL   ?BANKED_ENTER_XDATA
   \   000005                ; Saved register size: 9
   \   000005                ; Auto size: 0
   \   000005   EA           MOV     A,R2
   \   000006   FC           MOV     R4,A
   \   000007   EB           MOV     A,R3
   \   000008   FD           MOV     R5,A
   \   000009   E9           MOV     A,R1
    362            /* Send out Reset Response message */
    363            MT_BuildAndSendZToolResponse( ((uint8)MT_RPC_CMD_SRSP | (uint8)MT_RPC_SYS_APP), MT_APP_RSP, len, pData );
   \   00000A                ; Setup parameters for call to function MT_BuildAndSendZToolResponse
   \   00000A   FB           MOV     R3,A
   \   00000B   7A80         MOV     R2,#-0x80
   \   00000D   7969         MOV     R1,#0x69
   \   00000F   12....       LCALL   ??MT_BuildAndSendZToolResponse?relay
    364          }
   \   000012   7F01         MOV     R7,#0x1
   \   000014   02....       LJMP    ?BANKED_LEAVE_XDATA
    365          
    366          
    367          /***************************************************************************************************
    368           * @fn      MT_ReverseBytes
    369           *
    370           * @brief
    371           *
    372           *   Reverses bytes within an array
    373           *
    374           * @param   data - ptr to data buffer to reverse
    375           * @param    len - number of bytes in buffer
    376           *
    377           * @return  void
    378           ***************************************************************************************************/

   \                                 In  segment BANKED_CODE, align 1, keep-with-next
    379          void MT_ReverseBytes( byte *pData, byte len )
   \                     MT_ReverseBytes:
    380          {
   \   000000   74F4         MOV     A,#-0xc
   \   000002   12....       LCALL   ?BANKED_ENTER_XDATA
   \   000005                ; Saved register size: 12
   \   000005                ; Auto size: 0
   \   000005   E9           MOV     A,R1
   \   000006   FE           MOV     R6,A
    381            byte i,j;
    382            byte temp;
    383          
    384            for ( i = 0, j = len-1; len > 1; len-=2 )
   \   000007   75..00       MOV     ?V0 + 2,#0x0
   \   00000A   74FF         MOV     A,#-0x1
   \   00000C   2E           ADD     A,R6
   \   00000D   FF           MOV     R7,A
   \   00000E   8032         SJMP    ??MT_ReverseBytes_0
    385            {
    386              temp = pData[i];
   \                     ??MT_ReverseBytes_1:
   \   000010   85....       MOV     ?V0 + 0,?V0 + 2
   \   000013   EA           MOV     A,R2
   \   000014   25..         ADD     A,?V0 + 0
   \   000016   F8           MOV     R0,A
   \   000017   EB           MOV     A,R3
   \   000018   3400         ADDC    A,#0x0
   \   00001A   F9           MOV     R1,A
   \   00001B   8882         MOV     DPL,R0
   \   00001D   8983         MOV     DPH,R1
   \   00001F   E0           MOVX    A,@DPTR
   \   000020   F5..         MOV     ?V0 + 3,A
    387              pData[i++] = pData[j];
   \   000022   8F..         MOV     ?V0 + 0,R7
   \   000024   EA           MOV     A,R2
   \   000025   25..         ADD     A,?V0 + 0
   \   000027   FC           MOV     R4,A
   \   000028   EB           MOV     A,R3
   \   000029   3400         ADDC    A,#0x0
   \   00002B   FD           MOV     R5,A
   \   00002C   8C82         MOV     DPL,R4
   \   00002E   8D83         MOV     DPH,R5
   \   000030   E0           MOVX    A,@DPTR
   \   000031   8882         MOV     DPL,R0
   \   000033   8983         MOV     DPH,R1
   \   000035   F0           MOVX    @DPTR,A
   \   000036   05..         INC     ?V0 + 2
    388              pData[j--] = temp;
   \   000038   8C82         MOV     DPL,R4
   \   00003A   8D83         MOV     DPH,R5
   \   00003C   E5..         MOV     A,?V0 + 3
   \   00003E   F0           MOVX    @DPTR,A
   \   00003F   1F           DEC     R7
    389            }
   \   000040   1E           DEC     R6
   \   000041   1E           DEC     R6
   \                     ??MT_ReverseBytes_0:
   \   000042   EE           MOV     A,R6
   \   000043   C3           CLR     C
   \   000044   9402         SUBB    A,#0x2
   \   000046   50C8         JNC     ??MT_ReverseBytes_1
    390          }
   \   000048   7F04         MOV     R7,#0x4
   \   00004A   02....       LJMP    ?BANKED_LEAVE_XDATA
    391          
    392          
    393          /***************************************************************************************************
    394           * @fn      MT_Word2Buf
    395           *
    396           * @brief   Copy a uint16 array to a byte array, little endian.
    397           *
    398           * @param   pBuf - byte array
    399           * @param   pWord - uint16 array
    400           * @param   len - length of uint16 array
    401           *
    402           * @return  pointer to end of byte array
    403           ***************************************************************************************************/

   \                                 In  segment BANKED_CODE, align 1, keep-with-next
    404          uint8 *MT_Word2Buf( uint8 *pBuf, uint16 *pWord, uint8 len )
   \                     MT_Word2Buf:
    405          {
   \   000000   74F7         MOV     A,#-0x9
   \   000002   12....       LCALL   ?BANKED_ENTER_XDATA
   \   000005                ; Saved register size: 9
   \   000005                ; Auto size: 0
   \   000005   8027         SJMP    ??MT_Word2Buf_0
    406            while ( len-- > 0 )
    407            {
    408              *pBuf++ = LO_UINT16( *pWord );
   \                     ??MT_Word2Buf_1:
   \   000007   8C82         MOV     DPL,R4
   \   000009   8D83         MOV     DPH,R5
   \   00000B   E0           MOVX    A,@DPTR
   \   00000C   8A82         MOV     DPL,R2
   \   00000E   8B83         MOV     DPH,R3
   \   000010   F0           MOVX    @DPTR,A
   \   000011   A3           INC     DPTR
   \   000012   AA82         MOV     R2,DPL
   \   000014   AB83         MOV     R3,DPH
    409              *pBuf++ = HI_UINT16( *pWord );
   \   000016   8C82         MOV     DPL,R4
   \   000018   8D83         MOV     DPH,R5
   \   00001A   A3           INC     DPTR
   \   00001B   E0           MOVX    A,@DPTR
   \   00001C   8A82         MOV     DPL,R2
   \   00001E   8B83         MOV     DPH,R3
   \   000020   F0           MOVX    @DPTR,A
   \   000021   A3           INC     DPTR
   \   000022   0A           INC     R2
   \   000023   AB83         MOV     R3,DPH
    410              pWord++;
   \   000025   EC           MOV     A,R4
   \   000026   2402         ADD     A,#0x2
   \   000028   0C           INC     R4
   \   000029   0C           INC     R4
   \   00002A   ED           MOV     A,R5
   \   00002B   3400         ADDC    A,#0x0
   \   00002D   FD           MOV     R5,A
    411            }
   \                     ??MT_Word2Buf_0:
   \   00002E   E9           MOV     A,R1
   \   00002F   F8           MOV     R0,A
   \   000030   74FF         MOV     A,#-0x1
   \   000032   28           ADD     A,R0
   \   000033   19           DEC     R1
   \   000034   04           INC     A
   \   000035   70D0         JNZ     ??MT_Word2Buf_1
    412          
    413            return pBuf;
   \   000037   7F01         MOV     R7,#0x1
   \   000039   02....       LJMP    ?BANKED_LEAVE_XDATA
    414          }
    415          /***************************************************************************************************
    416           * @fn      MT_BuildEndpointDesc
    417           *
    418           * @brief   Build endpoint descriptor and simple descriptor structure from incoming buffer
    419           *
    420           * @param   pBuf - byte array
    421           *
    422           * @return  epDesc - pointer to the endpoint descriptor
    423           ***************************************************************************************************/

   \                                 In  segment BANKED_CODE, align 1, keep-with-next
    424          uint8 MT_BuildEndpointDesc( uint8 *pBuf, void *param )
   \                     MT_BuildEndpointDesc:
    425          {
   \   000000   74F2         MOV     A,#-0xe
   \   000002   12....       LCALL   ?BANKED_ENTER_XDATA
   \   000005                ; Saved register size: 14
   \   000005                ; Auto size: 0
   \   000005   EA           MOV     A,R2
   \   000006   FE           MOV     R6,A
   \   000007   EB           MOV     A,R3
   \   000008   FF           MOV     R7,A
   \   000009   8C..         MOV     ?V0 + 0,R4
   \   00000B   8D..         MOV     ?V0 + 1,R5
    426            uint8 i;
    427            uint8 ret = ZSuccess;
   \   00000D   75..00       MOV     ?V0 + 2,#0x0
    428            endPointDesc_t *epDesc;
    429          
    430            epDesc = (endPointDesc_t *)param;
    431            /* check if this endpoint is already registered */
    432            if ( afFindEndPointDesc( *pBuf ) != NULL )
   \   000010                ; Setup parameters for call to function afFindEndPointDesc
   \   000010   8E82         MOV     DPL,R6
   \   000012   8F83         MOV     DPH,R7
   \   000014   E0           MOVX    A,@DPTR
   \   000015   F9           MOV     R1,A
   \   000016   12....       LCALL   ??afFindEndPointDesc?relay
   \   000019   8B..         MOV     ?V0 + 5,R3
   \   00001B   EA           MOV     A,R2
   \   00001C   45..         ORL     A,?V0 + 5
   \   00001E   6006         JZ      ??MT_BuildEndpointDesc_0
    433            {
    434              ret = ZApsDuplicateEntry;
   \   000020   75..B8       MOV     ?V0 + 2,#-0x48
   \   000023   02....       LJMP    ??MT_BuildEndpointDesc_1 & 0xFFFF
    435            }
    436            else if ( epDesc )
   \                     ??MT_BuildEndpointDesc_0:
   \   000026   E5..         MOV     A,?V0 + 0
   \   000028   45..         ORL     A,?V0 + 1
   \   00002A   7003         JNZ     $+5
   \   00002C   02....       LJMP    ??MT_BuildEndpointDesc_1 & 0xFFFF
    437            {
    438              epDesc->endPoint = *pBuf;
   \   00002F   8E82         MOV     DPL,R6
   \   000031   8F83         MOV     DPH,R7
   \   000033   E0           MOVX    A,@DPTR
   \   000034   85..82       MOV     DPL,?V0 + 0
   \   000037   85..83       MOV     DPH,?V0 + 1
   \   00003A   F0           MOVX    @DPTR,A
    439          
    440              /* Ignore the latency reqs */
    441              epDesc->latencyReq = noLatencyReqs;
   \   00003B   A3           INC     DPTR
   \   00003C   A3           INC     DPTR
   \   00003D   A3           INC     DPTR
   \   00003E   A3           INC     DPTR
   \   00003F   A3           INC     DPTR
   \   000040   E4           CLR     A
   \   000041   F0           MOVX    @DPTR,A
    442          
    443              /* allocate memory for the simple descriptor */
    444              epDesc->simpleDesc = (SimpleDescriptionFormat_t *) osal_mem_alloc(sizeof(SimpleDescriptionFormat_t));
   \   000042   E5..         MOV     A,?V0 + 0
   \   000044   2403         ADD     A,#0x3
   \   000046   F5..         MOV     ?V0 + 0,A
   \   000048   E5..         MOV     A,?V0 + 1
   \   00004A   3400         ADDC    A,#0x0
   \   00004C   F5..         MOV     ?V0 + 1,A
   \   00004E                ; Setup parameters for call to function osal_mem_alloc
   \   00004E   7A0C         MOV     R2,#0xc
   \   000050   7B00         MOV     R3,#0x0
   \   000052   12....       LCALL   ??osal_mem_alloc?relay
   \   000055   85..82       MOV     DPL,?V0 + 0
   \   000058   85..83       MOV     DPH,?V0 + 1
   \   00005B   EA           MOV     A,R2
   \   00005C   F0           MOVX    @DPTR,A
   \   00005D   A3           INC     DPTR
   \   00005E   EB           MOV     A,R3
   \   00005F   F0           MOVX    @DPTR,A
    445              if (epDesc->simpleDesc)
   \   000060   85..82       MOV     DPL,?V0 + 0
   \   000063   85..83       MOV     DPH,?V0 + 1
   \   000066   E0           MOVX    A,@DPTR
   \   000067   F8           MOV     R0,A
   \   000068   A3           INC     DPTR
   \   000069   E0           MOVX    A,@DPTR
   \   00006A   F9           MOV     R1,A
   \   00006B   E8           MOV     A,R0
   \   00006C   49           ORL     A,R1
   \   00006D   7003         JNZ     $+5
   \   00006F   02....       LJMP    ??MT_BuildEndpointDesc_2 & 0xFFFF
    446              {
    447                /* Endpoint */
    448                epDesc->simpleDesc->EndPoint = *pBuf++;
   \   000072   8E82         MOV     DPL,R6
   \   000074   8F83         MOV     DPH,R7
   \   000076   E0           MOVX    A,@DPTR
   \   000077   C0E0         PUSH    A
   \   000079   85..82       MOV     DPL,?V0 + 0
   \   00007C   85..83       MOV     DPH,?V0 + 1
   \   00007F   E0           MOVX    A,@DPTR
   \   000080   F8           MOV     R0,A
   \   000081   A3           INC     DPTR
   \   000082   E0           MOVX    A,@DPTR
   \   000083   F583         MOV     DPH,A
   \   000085   8882         MOV     DPL,R0
   \   000087   D0E0         POP     A
   \   000089   F0           MOVX    @DPTR,A
   \   00008A   8E82         MOV     DPL,R6
   \   00008C   8F83         MOV     DPH,R7
   \   00008E   A3           INC     DPTR
   \   00008F   AE82         MOV     R6,DPL
   \   000091   AF83         MOV     R7,DPH
    449          
    450                /* AppProfId */
    451                epDesc->simpleDesc->AppProfId = BUILD_UINT16(pBuf[0], pBuf[1]);
   \   000093   E0           MOVX    A,@DPTR
   \   000094   FA           MOV     R2,A
   \   000095   A3           INC     DPTR
   \   000096   E0           MOVX    A,@DPTR
   \   000097   F9           MOV     R1,A
   \   000098   EA           MOV     A,R2
   \   000099   F8           MOV     R0,A
   \   00009A   85..82       MOV     DPL,?V0 + 0
   \   00009D   85..83       MOV     DPH,?V0 + 1
   \   0000A0   E0           MOVX    A,@DPTR
   \   0000A1   FA           MOV     R2,A
   \   0000A2   A3           INC     DPTR
   \   0000A3   E0           MOVX    A,@DPTR
   \   0000A4   F583         MOV     DPH,A
   \   0000A6   8A82         MOV     DPL,R2
   \   0000A8   A3           INC     DPTR
   \   0000A9   E8           MOV     A,R0
   \   0000AA   F0           MOVX    @DPTR,A
   \   0000AB   A3           INC     DPTR
   \   0000AC   E9           MOV     A,R1
   \   0000AD   F0           MOVX    @DPTR,A
    452                pBuf += sizeof(uint16);
   \   0000AE   EE           MOV     A,R6
   \   0000AF   2402         ADD     A,#0x2
   \   0000B1   0E           INC     R6
   \   0000B2   0E           INC     R6
   \   0000B3   EF           MOV     A,R7
   \   0000B4   3400         ADDC    A,#0x0
   \   0000B6   FF           MOV     R7,A
    453          
    454                /* AppDeviceId */
    455                epDesc->simpleDesc->AppDeviceId = BUILD_UINT16(pBuf[0],pBuf[1]);
   \   0000B7   8E82         MOV     DPL,R6
   \   0000B9   8F83         MOV     DPH,R7
   \   0000BB   E0           MOVX    A,@DPTR
   \   0000BC   FA           MOV     R2,A
   \   0000BD   A3           INC     DPTR
   \   0000BE   E0           MOVX    A,@DPTR
   \   0000BF   F9           MOV     R1,A
   \   0000C0   EA           MOV     A,R2
   \   0000C1   F8           MOV     R0,A
   \   0000C2   85..82       MOV     DPL,?V0 + 0
   \   0000C5   85..83       MOV     DPH,?V0 + 1
   \   0000C8   E0           MOVX    A,@DPTR
   \   0000C9   FA           MOV     R2,A
   \   0000CA   A3           INC     DPTR
   \   0000CB   E0           MOVX    A,@DPTR
   \   0000CC   F583         MOV     DPH,A
   \   0000CE   8A82         MOV     DPL,R2
   \   0000D0   A3           INC     DPTR
   \   0000D1   A3           INC     DPTR
   \   0000D2   A3           INC     DPTR
   \   0000D3   E8           MOV     A,R0
   \   0000D4   F0           MOVX    @DPTR,A
   \   0000D5   A3           INC     DPTR
   \   0000D6   E9           MOV     A,R1
   \   0000D7   F0           MOVX    @DPTR,A
    456                pBuf += sizeof(uint16);
   \   0000D8   EE           MOV     A,R6
   \   0000D9   2402         ADD     A,#0x2
   \   0000DB   0E           INC     R6
   \   0000DC   0E           INC     R6
   \   0000DD   EF           MOV     A,R7
   \   0000DE   3400         ADDC    A,#0x0
   \   0000E0   FF           MOV     R7,A
    457          
    458                /* AppDevVer */
    459                epDesc->simpleDesc->AppDevVer = (*pBuf++) & AF_APP_DEV_VER_MASK ;
   \   0000E1   8E82         MOV     DPL,R6
   \   0000E3   8F83         MOV     DPH,R7
   \   0000E5   E0           MOVX    A,@DPTR
   \   0000E6   540F         ANL     A,#0xf
   \   0000E8   F8           MOV     R0,A
   \   0000E9   A3           INC     DPTR
   \   0000EA   0E           INC     R6
   \   0000EB   AF83         MOV     R7,DPH
   \   0000ED   85..82       MOV     DPL,?V0 + 0
   \   0000F0   85..83       MOV     DPH,?V0 + 1
   \   0000F3   E0           MOVX    A,@DPTR
   \   0000F4   F9           MOV     R1,A
   \   0000F5   A3           INC     DPTR
   \   0000F6   E0           MOVX    A,@DPTR
   \   0000F7   F583         MOV     DPH,A
   \   0000F9   8982         MOV     DPL,R1
   \   0000FB   A3           INC     DPTR
   \   0000FC   A3           INC     DPTR
   \   0000FD   A3           INC     DPTR
   \   0000FE   A3           INC     DPTR
   \   0000FF   A3           INC     DPTR
   \   000100   E0           MOVX    A,@DPTR
   \   000101   54F0         ANL     A,#0xf0
   \   000103   48           ORL     A,R0
   \   000104   C0E0         PUSH    A
   \   000106   85..82       MOV     DPL,?V0 + 0
   \   000109   85..83       MOV     DPH,?V0 + 1
   \   00010C   E0           MOVX    A,@DPTR
   \   00010D   F8           MOV     R0,A
   \   00010E   A3           INC     DPTR
   \   00010F   E0           MOVX    A,@DPTR
   \   000110   F583         MOV     DPH,A
   \   000112   8882         MOV     DPL,R0
   \   000114   A3           INC     DPTR
   \   000115   A3           INC     DPTR
   \   000116   A3           INC     DPTR
   \   000117   A3           INC     DPTR
   \   000118   A3           INC     DPTR
   \   000119   D0E0         POP     A
   \   00011B   F0           MOVX    @DPTR,A
    460          
    461                /* LatencyReq */
    462                pBuf++;
   \   00011C   8E82         MOV     DPL,R6
   \   00011E   8F83         MOV     DPH,R7
   \   000120   A3           INC     DPTR
   \   000121   0E           INC     R6
   \   000122   AF83         MOV     R7,DPH
    463          
    464                /* AppNumInClusters */
    465                epDesc->simpleDesc->AppNumInClusters = *pBuf++;
   \   000124   E0           MOVX    A,@DPTR
   \   000125   C0E0         PUSH    A
   \   000127   85..82       MOV     DPL,?V0 + 0
   \   00012A   85..83       MOV     DPH,?V0 + 1
   \   00012D   E0           MOVX    A,@DPTR
   \   00012E   F8           MOV     R0,A
   \   00012F   A3           INC     DPTR
   \   000130   E0           MOVX    A,@DPTR
   \   000131   F583         MOV     DPH,A
   \   000133   8882         MOV     DPL,R0
   \   000135   A3           INC     DPTR
   \   000136   A3           INC     DPTR
   \   000137   A3           INC     DPTR
   \   000138   A3           INC     DPTR
   \   000139   A3           INC     DPTR
   \   00013A   A3           INC     DPTR
   \   00013B   D0E0         POP     A
   \   00013D   F0           MOVX    @DPTR,A
   \   00013E   8E82         MOV     DPL,R6
   \   000140   8F83         MOV     DPH,R7
   \   000142   A3           INC     DPTR
   \   000143   0E           INC     R6
   \   000144   AF83         MOV     R7,DPH
    466                if (epDesc->simpleDesc->AppNumInClusters)
   \   000146   85..82       MOV     DPL,?V0 + 0
   \   000149   85..83       MOV     DPH,?V0 + 1
   \   00014C   E0           MOVX    A,@DPTR
   \   00014D   F8           MOV     R0,A
   \   00014E   A3           INC     DPTR
   \   00014F   E0           MOVX    A,@DPTR
   \   000150   F583         MOV     DPH,A
   \   000152   8882         MOV     DPL,R0
   \   000154   A3           INC     DPTR
   \   000155   A3           INC     DPTR
   \   000156   A3           INC     DPTR
   \   000157   A3           INC     DPTR
   \   000158   A3           INC     DPTR
   \   000159   A3           INC     DPTR
   \   00015A   E0           MOVX    A,@DPTR
   \   00015B   7003         JNZ     $+5
   \   00015D   02....       LJMP    ??MT_BuildEndpointDesc_3 & 0xFFFF
    467                {
    468                  epDesc->simpleDesc->pAppInClusterList = (uint16 *)
    469                            osal_mem_alloc((epDesc->simpleDesc->AppNumInClusters)*sizeof(uint16));
   \   000160                ; Setup parameters for call to function osal_mem_alloc
   \   000160   85..82       MOV     DPL,?V0 + 0
   \   000163   85..83       MOV     DPH,?V0 + 1
   \   000166   E0           MOVX    A,@DPTR
   \   000167   F8           MOV     R0,A
   \   000168   A3           INC     DPTR
   \   000169   E0           MOVX    A,@DPTR
   \   00016A   F583         MOV     DPH,A
   \   00016C   8882         MOV     DPL,R0
   \   00016E   A3           INC     DPTR
   \   00016F   A3           INC     DPTR
   \   000170   A3           INC     DPTR
   \   000171   A3           INC     DPTR
   \   000172   A3           INC     DPTR
   \   000173   A3           INC     DPTR
   \   000174   E0           MOVX    A,@DPTR
   \   000175   C3           CLR     C
   \   000176   33           RLC     A
   \   000177   FA           MOV     R2,A
   \   000178   E4           CLR     A
   \   000179   33           RLC     A
   \   00017A   FB           MOV     R3,A
   \   00017B   12....       LCALL   ??osal_mem_alloc?relay
   \   00017E   85..82       MOV     DPL,?V0 + 0
   \   000181   85..83       MOV     DPH,?V0 + 1
   \   000184   E0           MOVX    A,@DPTR
   \   000185   F8           MOV     R0,A
   \   000186   A3           INC     DPTR
   \   000187   E0           MOVX    A,@DPTR
   \   000188   F583         MOV     DPH,A
   \   00018A   8882         MOV     DPL,R0
   \   00018C   A3           INC     DPTR
   \   00018D   A3           INC     DPTR
   \   00018E   A3           INC     DPTR
   \   00018F   A3           INC     DPTR
   \   000190   A3           INC     DPTR
   \   000191   A3           INC     DPTR
   \   000192   A3           INC     DPTR
   \   000193   EA           MOV     A,R2
   \   000194   F0           MOVX    @DPTR,A
   \   000195   A3           INC     DPTR
   \   000196   EB           MOV     A,R3
   \   000197   F0           MOVX    @DPTR,A
    470                  if ( epDesc->simpleDesc->pAppInClusterList )
   \   000198   85..82       MOV     DPL,?V0 + 0
   \   00019B   85..83       MOV     DPH,?V0 + 1
   \   00019E   E0           MOVX    A,@DPTR
   \   00019F   F8           MOV     R0,A
   \   0001A0   A3           INC     DPTR
   \   0001A1   E0           MOVX    A,@DPTR
   \   0001A2   F583         MOV     DPH,A
   \   0001A4   8882         MOV     DPL,R0
   \   0001A6   A3           INC     DPTR
   \   0001A7   A3           INC     DPTR
   \   0001A8   A3           INC     DPTR
   \   0001A9   A3           INC     DPTR
   \   0001AA   A3           INC     DPTR
   \   0001AB   A3           INC     DPTR
   \   0001AC   A3           INC     DPTR
   \   0001AD   E0           MOVX    A,@DPTR
   \   0001AE   F8           MOV     R0,A
   \   0001AF   A3           INC     DPTR
   \   0001B0   E0           MOVX    A,@DPTR
   \   0001B1   F9           MOV     R1,A
   \   0001B2   E8           MOV     A,R0
   \   0001B3   49           ORL     A,R1
   \   0001B4   6062         JZ      ??MT_BuildEndpointDesc_4
    471                  {
    472                    for (i=0; i<(epDesc->simpleDesc->AppNumInClusters); i++)
   \   0001B6   7B00         MOV     R3,#0x0
   \                     ??MT_BuildEndpointDesc_5:
   \   0001B8   85..82       MOV     DPL,?V0 + 0
   \   0001BB   85..83       MOV     DPH,?V0 + 1
   \   0001BE   E0           MOVX    A,@DPTR
   \   0001BF   F8           MOV     R0,A
   \   0001C0   A3           INC     DPTR
   \   0001C1   E0           MOVX    A,@DPTR
   \   0001C2   F583         MOV     DPH,A
   \   0001C4   8882         MOV     DPL,R0
   \   0001C6   A3           INC     DPTR
   \   0001C7   A3           INC     DPTR
   \   0001C8   A3           INC     DPTR
   \   0001C9   A3           INC     DPTR
   \   0001CA   A3           INC     DPTR
   \   0001CB   A3           INC     DPTR
   \   0001CC   E0           MOVX    A,@DPTR
   \   0001CD   F8           MOV     R0,A
   \   0001CE   EB           MOV     A,R3
   \   0001CF   C3           CLR     C
   \   0001D0   98           SUBB    A,R0
   \   0001D1   5048         JNC     ??MT_BuildEndpointDesc_3
    473                    {
    474                      epDesc->simpleDesc->pAppInClusterList[i] = BUILD_UINT16(*pBuf, *(pBuf+1));
   \   0001D3   8E82         MOV     DPL,R6
   \   0001D5   8F83         MOV     DPH,R7
   \   0001D7   E0           MOVX    A,@DPTR
   \   0001D8   FC           MOV     R4,A
   \   0001D9   A3           INC     DPTR
   \   0001DA   E0           MOVX    A,@DPTR
   \   0001DB   F9           MOV     R1,A
   \   0001DC   EC           MOV     A,R4
   \   0001DD   2400         ADD     A,#0x0
   \   0001DF   E4           CLR     A
   \   0001E0   39           ADDC    A,R1
   \   0001E1   FD           MOV     R5,A
   \   0001E2   EB           MOV     A,R3
   \   0001E3   33           RLC     A
   \   0001E4   F8           MOV     R0,A
   \   0001E5   E4           CLR     A
   \   0001E6   33           RLC     A
   \   0001E7   F9           MOV     R1,A
   \   0001E8   85..82       MOV     DPL,?V0 + 0
   \   0001EB   85..83       MOV     DPH,?V0 + 1
   \   0001EE   E0           MOVX    A,@DPTR
   \   0001EF   FA           MOV     R2,A
   \   0001F0   A3           INC     DPTR
   \   0001F1   E0           MOVX    A,@DPTR
   \   0001F2   F583         MOV     DPH,A
   \   0001F4   8A82         MOV     DPL,R2
   \   0001F6   A3           INC     DPTR
   \   0001F7   A3           INC     DPTR
   \   0001F8   A3           INC     DPTR
   \   0001F9   A3           INC     DPTR
   \   0001FA   A3           INC     DPTR
   \   0001FB   A3           INC     DPTR
   \   0001FC   A3           INC     DPTR
   \   0001FD   E0           MOVX    A,@DPTR
   \   0001FE   28           ADD     A,R0
   \   0001FF   FA           MOV     R2,A
   \   000200   A3           INC     DPTR
   \   000201   E0           MOVX    A,@DPTR
   \   000202   39           ADDC    A,R1
   \   000203   8A82         MOV     DPL,R2
   \   000205   F583         MOV     DPH,A
   \   000207   EC           MOV     A,R4
   \   000208   F0           MOVX    @DPTR,A
   \   000209   A3           INC     DPTR
   \   00020A   ED           MOV     A,R5
   \   00020B   F0           MOVX    @DPTR,A
    475                      pBuf += 2;
   \   00020C   EE           MOV     A,R6
   \   00020D   2402         ADD     A,#0x2
   \   00020F   0E           INC     R6
   \   000210   0E           INC     R6
   \   000211   EF           MOV     A,R7
   \   000212   3400         ADDC    A,#0x0
   \   000214   FF           MOV     R7,A
    476                    }
   \   000215   0B           INC     R3
   \   000216   80A0         SJMP    ??MT_BuildEndpointDesc_5
    477                  }
    478                  else
    479                  {
    480                    ret = ZMemError;
   \                     ??MT_BuildEndpointDesc_4:
   \   000218   75..10       MOV     ?V0 + 2,#0x10
    481                  }
    482                }
    483          
    484                /* AppNumOutClusters */
    485                epDesc->simpleDesc->AppNumOutClusters = *pBuf++;
   \                     ??MT_BuildEndpointDesc_3:
   \   00021B   8E82         MOV     DPL,R6
   \   00021D   8F83         MOV     DPH,R7
   \   00021F   E0           MOVX    A,@DPTR
   \   000220   C0E0         PUSH    A
   \   000222   85..82       MOV     DPL,?V0 + 0
   \   000225   85..83       MOV     DPH,?V0 + 1
   \   000228   E0           MOVX    A,@DPTR
   \   000229   F8           MOV     R0,A
   \   00022A   A3           INC     DPTR
   \   00022B   E0           MOVX    A,@DPTR
   \   00022C   F583         MOV     DPH,A
   \   00022E   8882         MOV     DPL,R0
   \   000230   A3           INC     DPTR
   \   000231   A3           INC     DPTR
   \   000232   A3           INC     DPTR
   \   000233   A3           INC     DPTR
   \   000234   A3           INC     DPTR
   \   000235   A3           INC     DPTR
   \   000236   A3           INC     DPTR
   \   000237   A3           INC     DPTR
   \   000238   A3           INC     DPTR
   \   000239   D0E0         POP     A
   \   00023B   F0           MOVX    @DPTR,A
   \   00023C   8E82         MOV     DPL,R6
   \   00023E   8F83         MOV     DPH,R7
   \   000240   A3           INC     DPTR
   \   000241   AE82         MOV     R6,DPL
   \   000243   AF83         MOV     R7,DPH
    486                if (epDesc->simpleDesc->AppNumOutClusters)
   \   000245   85..82       MOV     DPL,?V0 + 0
   \   000248   85..83       MOV     DPH,?V0 + 1
   \   00024B   E0           MOVX    A,@DPTR
   \   00024C   F8           MOV     R0,A
   \   00024D   A3           INC     DPTR
   \   00024E   E0           MOVX    A,@DPTR
   \   00024F   F583         MOV     DPH,A
   \   000251   8882         MOV     DPL,R0
   \   000253   A3           INC     DPTR
   \   000254   A3           INC     DPTR
   \   000255   A3           INC     DPTR
   \   000256   A3           INC     DPTR
   \   000257   A3           INC     DPTR
   \   000258   A3           INC     DPTR
   \   000259   A3           INC     DPTR
   \   00025A   A3           INC     DPTR
   \   00025B   A3           INC     DPTR
   \   00025C   E0           MOVX    A,@DPTR
   \   00025D   7003         JNZ     $+5
   \   00025F   02....       LJMP    ??MT_BuildEndpointDesc_6 & 0xFFFF
    487                {
    488                  epDesc->simpleDesc->pAppOutClusterList = (uint16 *)
    489                                    osal_mem_alloc((epDesc->simpleDesc->AppNumOutClusters)*sizeof(uint16));
   \   000262                ; Setup parameters for call to function osal_mem_alloc
   \   000262   85..82       MOV     DPL,?V0 + 0
   \   000265   85..83       MOV     DPH,?V0 + 1
   \   000268   E0           MOVX    A,@DPTR
   \   000269   F8           MOV     R0,A
   \   00026A   A3           INC     DPTR
   \   00026B   E0           MOVX    A,@DPTR
   \   00026C   F583         MOV     DPH,A
   \   00026E   8882         MOV     DPL,R0
   \   000270   A3           INC     DPTR
   \   000271   A3           INC     DPTR
   \   000272   A3           INC     DPTR
   \   000273   A3           INC     DPTR
   \   000274   A3           INC     DPTR
   \   000275   A3           INC     DPTR
   \   000276   A3           INC     DPTR
   \   000277   A3           INC     DPTR
   \   000278   A3           INC     DPTR
   \   000279   E0           MOVX    A,@DPTR
   \   00027A   C3           CLR     C
   \   00027B   33           RLC     A
   \   00027C   FA           MOV     R2,A
   \   00027D   E4           CLR     A
   \   00027E   33           RLC     A
   \   00027F   FB           MOV     R3,A
   \   000280   12....       LCALL   ??osal_mem_alloc?relay
   \   000283   85..82       MOV     DPL,?V0 + 0
   \   000286   85..83       MOV     DPH,?V0 + 1
   \   000289   E0           MOVX    A,@DPTR
   \   00028A   F8           MOV     R0,A
   \   00028B   A3           INC     DPTR
   \   00028C   E0           MOVX    A,@DPTR
   \   00028D   F583         MOV     DPH,A
   \   00028F   8882         MOV     DPL,R0
   \   000291   A3           INC     DPTR
   \   000292   A3           INC     DPTR
   \   000293   A3           INC     DPTR
   \   000294   A3           INC     DPTR
   \   000295   A3           INC     DPTR
   \   000296   A3           INC     DPTR
   \   000297   A3           INC     DPTR
   \   000298   A3           INC     DPTR
   \   000299   A3           INC     DPTR
   \   00029A   A3           INC     DPTR
   \   00029B   EA           MOV     A,R2
   \   00029C   F0           MOVX    @DPTR,A
   \   00029D   A3           INC     DPTR
   \   00029E   EB           MOV     A,R3
   \   00029F   F0           MOVX    @DPTR,A
    490                  if (epDesc->simpleDesc->pAppOutClusterList)
   \   0002A0   85..82       MOV     DPL,?V0 + 0
   \   0002A3   85..83       MOV     DPH,?V0 + 1
   \   0002A6   E0           MOVX    A,@DPTR
   \   0002A7   F8           MOV     R0,A
   \   0002A8   A3           INC     DPTR
   \   0002A9   E0           MOVX    A,@DPTR
   \   0002AA   F583         MOV     DPH,A
   \   0002AC   8882         MOV     DPL,R0
   \   0002AE   A3           INC     DPTR
   \   0002AF   A3           INC     DPTR
   \   0002B0   A3           INC     DPTR
   \   0002B1   A3           INC     DPTR
   \   0002B2   A3           INC     DPTR
   \   0002B3   A3           INC     DPTR
   \   0002B4   A3           INC     DPTR
   \   0002B5   A3           INC     DPTR
   \   0002B6   A3           INC     DPTR
   \   0002B7   A3           INC     DPTR
   \   0002B8   E0           MOVX    A,@DPTR
   \   0002B9   F8           MOV     R0,A
   \   0002BA   A3           INC     DPTR
   \   0002BB   E0           MOVX    A,@DPTR
   \   0002BC   F9           MOV     R1,A
   \   0002BD   E8           MOV     A,R0
   \   0002BE   49           ORL     A,R1
   \   0002BF   6068         JZ      ??MT_BuildEndpointDesc_7
    491                  {
    492                    for (i=0; i<(epDesc->simpleDesc->AppNumOutClusters); i++)
   \   0002C1   7B00         MOV     R3,#0x0
   \                     ??MT_BuildEndpointDesc_8:
   \   0002C3   85..82       MOV     DPL,?V0 + 0
   \   0002C6   85..83       MOV     DPH,?V0 + 1
   \   0002C9   E0           MOVX    A,@DPTR
   \   0002CA   F8           MOV     R0,A
   \   0002CB   A3           INC     DPTR
   \   0002CC   E0           MOVX    A,@DPTR
   \   0002CD   F583         MOV     DPH,A
   \   0002CF   8882         MOV     DPL,R0
   \   0002D1   A3           INC     DPTR
   \   0002D2   A3           INC     DPTR
   \   0002D3   A3           INC     DPTR
   \   0002D4   A3           INC     DPTR
   \   0002D5   A3           INC     DPTR
   \   0002D6   A3           INC     DPTR
   \   0002D7   A3           INC     DPTR
   \   0002D8   A3           INC     DPTR
   \   0002D9   A3           INC     DPTR
   \   0002DA   E0           MOVX    A,@DPTR
   \   0002DB   F8           MOV     R0,A
   \   0002DC   EB           MOV     A,R3
   \   0002DD   C3           CLR     C
   \   0002DE   98           SUBB    A,R0
   \   0002DF   504B         JNC     ??MT_BuildEndpointDesc_6
    493                    {
    494                      epDesc->simpleDesc->pAppOutClusterList[i] = BUILD_UINT16(*pBuf, *(pBuf+1));
   \   0002E1   8E82         MOV     DPL,R6
   \   0002E3   8F83         MOV     DPH,R7
   \   0002E5   E0           MOVX    A,@DPTR
   \   0002E6   FC           MOV     R4,A
   \   0002E7   A3           INC     DPTR
   \   0002E8   E0           MOVX    A,@DPTR
   \   0002E9   F9           MOV     R1,A
   \   0002EA   EC           MOV     A,R4
   \   0002EB   2400         ADD     A,#0x0
   \   0002ED   E4           CLR     A
   \   0002EE   39           ADDC    A,R1
   \   0002EF   FD           MOV     R5,A
   \   0002F0   EB           MOV     A,R3
   \   0002F1   33           RLC     A
   \   0002F2   F8           MOV     R0,A
   \   0002F3   E4           CLR     A
   \   0002F4   33           RLC     A
   \   0002F5   F9           MOV     R1,A
   \   0002F6   85..82       MOV     DPL,?V0 + 0
   \   0002F9   85..83       MOV     DPH,?V0 + 1
   \   0002FC   E0           MOVX    A,@DPTR
   \   0002FD   FA           MOV     R2,A
   \   0002FE   A3           INC     DPTR
   \   0002FF   E0           MOVX    A,@DPTR
   \   000300   F583         MOV     DPH,A
   \   000302   8A82         MOV     DPL,R2
   \   000304   A3           INC     DPTR
   \   000305   A3           INC     DPTR
   \   000306   A3           INC     DPTR
   \   000307   A3           INC     DPTR
   \   000308   A3           INC     DPTR
   \   000309   A3           INC     DPTR
   \   00030A   A3           INC     DPTR
   \   00030B   A3           INC     DPTR
   \   00030C   A3           INC     DPTR
   \   00030D   A3           INC     DPTR
   \   00030E   E0           MOVX    A,@DPTR
   \   00030F   28           ADD     A,R0
   \   000310   FA           MOV     R2,A
   \   000311   A3           INC     DPTR
   \   000312   E0           MOVX    A,@DPTR
   \   000313   39           ADDC    A,R1
   \   000314   8A82         MOV     DPL,R2
   \   000316   F583         MOV     DPH,A
   \   000318   EC           MOV     A,R4
   \   000319   F0           MOVX    @DPTR,A
   \   00031A   A3           INC     DPTR
   \   00031B   ED           MOV     A,R5
   \   00031C   F0           MOVX    @DPTR,A
    495                      pBuf += 2;
   \   00031D   EE           MOV     A,R6
   \   00031E   2402         ADD     A,#0x2
   \   000320   0E           INC     R6
   \   000321   0E           INC     R6
   \   000322   EF           MOV     A,R7
   \   000323   3400         ADDC    A,#0x0
   \   000325   FF           MOV     R7,A
    496                    }
   \   000326   0B           INC     R3
   \   000327   809A         SJMP    ??MT_BuildEndpointDesc_8
    497                  }
    498                  else
    499                  {
    500                    ret = ZMemError;
   \                     ??MT_BuildEndpointDesc_7:
   \   000329   75..10       MOV     ?V0 + 2,#0x10
    501                  }
    502                }
    503          
    504                /* if any list cannot be allocated...free all */
    505                if ( ret == ZMemError )
   \                     ??MT_BuildEndpointDesc_6:
   \   00032C   7410         MOV     A,#0x10
   \   00032E   65..         XRL     A,?V0 + 2
   \   000330   6003         JZ      $+5
   \   000332   02....       LJMP    ??MT_BuildEndpointDesc_1 & 0xFFFF
    506                {
    507                  if (epDesc->simpleDesc->pAppInClusterList)
   \   000335   85..82       MOV     DPL,?V0 + 0
   \   000338   85..83       MOV     DPH,?V0 + 1
   \   00033B   E0           MOVX    A,@DPTR
   \   00033C   F8           MOV     R0,A
   \   00033D   A3           INC     DPTR
   \   00033E   E0           MOVX    A,@DPTR
   \   00033F   F583         MOV     DPH,A
   \   000341   8882         MOV     DPL,R0
   \   000343   A3           INC     DPTR
   \   000344   A3           INC     DPTR
   \   000345   A3           INC     DPTR
   \   000346   A3           INC     DPTR
   \   000347   A3           INC     DPTR
   \   000348   A3           INC     DPTR
   \   000349   A3           INC     DPTR
   \   00034A   E0           MOVX    A,@DPTR
   \   00034B   F8           MOV     R0,A
   \   00034C   A3           INC     DPTR
   \   00034D   E0           MOVX    A,@DPTR
   \   00034E   F9           MOV     R1,A
   \   00034F   E8           MOV     A,R0
   \   000350   49           ORL     A,R1
   \   000351   601D         JZ      ??MT_BuildEndpointDesc_9
    508                  {
    509                    osal_mem_free(epDesc->simpleDesc->pAppInClusterList);
   \   000353                ; Setup parameters for call to function osal_mem_free
   \   000353   85..82       MOV     DPL,?V0 + 0
   \   000356   85..83       MOV     DPH,?V0 + 1
   \   000359   E0           MOVX    A,@DPTR
   \   00035A   F8           MOV     R0,A
   \   00035B   A3           INC     DPTR
   \   00035C   E0           MOVX    A,@DPTR
   \   00035D   F583         MOV     DPH,A
   \   00035F   8882         MOV     DPL,R0
   \   000361   A3           INC     DPTR
   \   000362   A3           INC     DPTR
   \   000363   A3           INC     DPTR
   \   000364   A3           INC     DPTR
   \   000365   A3           INC     DPTR
   \   000366   A3           INC     DPTR
   \   000367   A3           INC     DPTR
   \   000368   E0           MOVX    A,@DPTR
   \   000369   FA           MOV     R2,A
   \   00036A   A3           INC     DPTR
   \   00036B   E0           MOVX    A,@DPTR
   \   00036C   FB           MOV     R3,A
   \   00036D   12....       LCALL   ??osal_mem_free?relay
    510                  }
    511          
    512                  if (epDesc->simpleDesc->AppNumOutClusters)
   \                     ??MT_BuildEndpointDesc_9:
   \   000370   85..82       MOV     DPL,?V0 + 0
   \   000373   85..83       MOV     DPH,?V0 + 1
   \   000376   E0           MOVX    A,@DPTR
   \   000377   F8           MOV     R0,A
   \   000378   A3           INC     DPTR
   \   000379   E0           MOVX    A,@DPTR
   \   00037A   F583         MOV     DPH,A
   \   00037C   8882         MOV     DPL,R0
   \   00037E   A3           INC     DPTR
   \   00037F   A3           INC     DPTR
   \   000380   A3           INC     DPTR
   \   000381   A3           INC     DPTR
   \   000382   A3           INC     DPTR
   \   000383   A3           INC     DPTR
   \   000384   A3           INC     DPTR
   \   000385   A3           INC     DPTR
   \   000386   A3           INC     DPTR
   \   000387   E0           MOVX    A,@DPTR
   \   000388   6020         JZ      ??MT_BuildEndpointDesc_10
    513                  {
    514                    osal_mem_free(epDesc->simpleDesc->pAppOutClusterList);
   \   00038A                ; Setup parameters for call to function osal_mem_free
   \   00038A   85..82       MOV     DPL,?V0 + 0
   \   00038D   85..83       MOV     DPH,?V0 + 1
   \   000390   E0           MOVX    A,@DPTR
   \   000391   F8           MOV     R0,A
   \   000392   A3           INC     DPTR
   \   000393   E0           MOVX    A,@DPTR
   \   000394   F583         MOV     DPH,A
   \   000396   8882         MOV     DPL,R0
   \   000398   A3           INC     DPTR
   \   000399   A3           INC     DPTR
   \   00039A   A3           INC     DPTR
   \   00039B   A3           INC     DPTR
   \   00039C   A3           INC     DPTR
   \   00039D   A3           INC     DPTR
   \   00039E   A3           INC     DPTR
   \   00039F   A3           INC     DPTR
   \   0003A0   A3           INC     DPTR
   \   0003A1   A3           INC     DPTR
   \   0003A2   E0           MOVX    A,@DPTR
   \   0003A3   FA           MOV     R2,A
   \   0003A4   A3           INC     DPTR
   \   0003A5   E0           MOVX    A,@DPTR
   \   0003A6   FB           MOV     R3,A
   \   0003A7   12....       LCALL   ??osal_mem_free?relay
    515                  }
    516          
    517                  osal_mem_free(epDesc->simpleDesc);
   \                     ??MT_BuildEndpointDesc_10:
   \   0003AA                ; Setup parameters for call to function osal_mem_free
   \   0003AA   85..82       MOV     DPL,?V0 + 0
   \   0003AD   85..83       MOV     DPH,?V0 + 1
   \   0003B0   E0           MOVX    A,@DPTR
   \   0003B1   FA           MOV     R2,A
   \   0003B2   A3           INC     DPTR
   \   0003B3   E0           MOVX    A,@DPTR
   \   0003B4   FB           MOV     R3,A
   \   0003B5   12....       LCALL   ??osal_mem_free?relay
   \   0003B8   8003         SJMP    ??MT_BuildEndpointDesc_1
    518                }
    519              }
    520              else
    521              {
    522                ret = ZMemError;
   \                     ??MT_BuildEndpointDesc_2:
   \   0003BA   75..10       MOV     ?V0 + 2,#0x10
    523              }
    524            }
    525          
    526            return ret;
   \                     ??MT_BuildEndpointDesc_1:
   \   0003BD   A9..         MOV     R1,?V0 + 2
   \   0003BF   7F06         MOV     R7,#0x6
   \   0003C1   02....       LJMP    ?BANKED_LEAVE_XDATA
    527          }

   \                                 In  segment XDATA_ID, align 1, keep-with-next
   \                     `?<Initializer for mtProcessIncoming>`:
   \   000000   0000         DW 0H
   \   000002   ....         DW ??MT_SysCommandProcessing?relay
   \   000004   0000         DW 0H
   \   000006   0000         DW 0H
   \   000008   0000         DW 0H
   \   00000A   ....         DW ??MT_ZdoCommandProcessing?relay
   \   00000C   0000         DW 0H
   \   00000E   0000         DW 0H
   \   000010   0000         DW 0H
   \   000012   0000         DW 0H

   \                                 In  segment BANK_RELAYS, align 1
   \                     ??MT_Init?relay:
   \   000000   12....       LCALL   ?BDISPATCH
   \   000003   ......       DC24    MT_Init

   \                                 In  segment BANK_RELAYS, align 1
   \                     ??MT_BuildSPIMsg?relay:
   \   000000   12....       LCALL   ?BDISPATCH
   \   000003   ......       DC24    MT_BuildSPIMsg

   \                                 In  segment BANK_RELAYS, align 1
   \                     ??MT_BuildAndSendZToolResponse?relay:
   \   000000   12....       LCALL   ?BDISPATCH
   \   000003   ......       DC24    MT_BuildAndSendZToolResponse

   \                                 In  segment BANK_RELAYS, align 1
   \                     ??MT_ProcessIncoming?relay:
   \   000000   12....       LCALL   ?BDISPATCH
   \   000003   ......       DC24    MT_ProcessIncoming

   \                                 In  segment BANK_RELAYS, align 1
   \                     ??MTProcessAppRspMsg?relay:
   \   000000   12....       LCALL   ?BDISPATCH
   \   000003   ......       DC24    MTProcessAppRspMsg

   \                                 In  segment BANK_RELAYS, align 1
   \                     ??MT_ReverseBytes?relay:
   \   000000   12....       LCALL   ?BDISPATCH
   \   000003   ......       DC24    MT_ReverseBytes

   \                                 In  segment BANK_RELAYS, align 1
   \                     ??MT_Word2Buf?relay:
   \   000000   12....       LCALL   ?BDISPATCH
   \   000003   ......       DC24    MT_Word2Buf

   \                                 In  segment BANK_RELAYS, align 1
   \                     ??MT_BuildEndpointDesc?relay:
   \   000000   12....       LCALL   ?BDISPATCH
   \   000003   ......       DC24    MT_BuildEndpointDesc
    528          /***************************************************************************************************
    529          ***************************************************************************************************/

   Maximum stack usage in bytes:

     Function                       ISTACK PSTACK XSTACK
     --------                       ------ ------ ------
     MTProcessAppRspMsg                 0      0      9
       -> MT_BuildAndSendZToolResponse
                                        0      0     18
     MT_BuildAndSendZToolResponse       0      0     31
       -> MT_TransportAlloc             0      0     32
       -> MT_BuildSPIMsg                0      0     36
       -> MT_TransportSend              0      0     32
     MT_BuildEndpointDesc               1      0     14
       -> afFindEndPointDesc            0      0     28
       -> osal_mem_alloc                0      0     28
       -> osal_mem_alloc                0      0     28
       -> osal_mem_alloc                0      0     28
       -> osal_mem_free                 0      0     28
       -> osal_mem_free                 0      0     28
       -> osal_mem_free                 0      0     28
     MT_BuildSPIMsg                     1      0     37
       -> osal_memcpy                   0      0     38
     MT_Init                            0      0      9
       -> MT_ZdoInit                    0      0     18
       -> MT_SysResetInd                0      0     18
     MT_ProcessIncoming                 1      0     13
       -> MT_BuildAndSendZToolResponse
                                        0      0     26
     MT_ReverseBytes                    1      0     12
     MT_Word2Buf                        1      0      9


   Segment part sizes:

     Function/Label                       Bytes
     --------------                       -----
     mtProcessIncoming                      20
     save_cmd                                2
     MT_TaskID                               1
     debugThreshold                          1
     debugCompId                             1
     MT_Init                                30
     MT_BuildSPIMsg                         81
     MT_BuildAndSendZToolResponse           72
     MT_ProcessIncoming                    170
     MTProcessAppRspMsg                     23
     MT_ReverseBytes                        77
     MT_Word2Buf                            60
     MT_BuildEndpointDesc                  964
     ?<Initializer for mtProcessIncoming>   20
     ??MT_Init?relay                         6
     ??MT_BuildSPIMsg?relay                  6
     ??MT_BuildAndSendZToolResponse?relay    6
     ??MT_ProcessIncoming?relay              6
     ??MTProcessAppRspMsg?relay              6
     ??MT_ReverseBytes?relay                 6
     ??MT_Word2Buf?relay                     6
     ??MT_BuildEndpointDesc?relay            6

 
 1 477 bytes in segment BANKED_CODE
    48 bytes in segment BANK_RELAYS
    20 bytes in segment XDATA_I
    20 bytes in segment XDATA_ID
     5 bytes in segment XDATA_Z
 
 1 545 bytes of CODE  memory
    25 bytes of XDATA memory

Errors: none
Warnings: none
