///////////////////////////////////////////////////////////////////////////////
//                                                                            /
// IAR C/C++ Compiler V8.10.3.10338/W32 for 8051        18/Dec/2020  11:23:22 /
// Copyright 2004-2011 IAR Systems AB.                                        /
//                                                                            /
//    Core               =  plain                                             /
//    Code model         =  banked                                            /
//    Data model         =  large                                             /
//    Calling convention =  xdata reentrant                                   /
//    Constant location  =  data_rom                                          /
//    Dptr setup         =  1,16                                              /
//    Source file        =  C:\Users\Administrator\Desktop\eps\ZigBeeÍ¨ÐÅÊµÑé /
//                          \4.ZigBeeÍøÂç´«ÊäPM2.5ÊµÑé\Components\mt\MT_AF.c  /
//    Command line       =  -f C:\Users\Administrator\Desktop\eps\ZigBeeÍ¨ÐÅÊ /
//                          µÑé\4.ZigBeeÍøÂç´«ÊäPM2.5ÊµÑé\Projects\zstack\Sam /
//                          ples\SampleApp\CC2530DB\..\..\..\Tools\CC2530DB\f /
//                          8wEndev.cfg (-DCPU32MHZ -DROOT=__near_func        /
//                          -DBLINK_LEDS) -f C:\Users\Administrator\Desktop\e /
//                          ps\ZigBeeÍ¨ÐÅÊµÑé\4.ZigBeeÍøÂç´«ÊäPM2.5ÊµÑé\Proje /
//                          cts\zstack\Samples\SampleApp\CC2530DB\..\..\..\To /
//                          ols\CC2530DB\f8wConfig.cfg (-DSECURE=0            /
//                          -DZG_SECURE_DYNAMIC=0 -DREFLECTOR                 /
//                          -DDEFAULT_CHANLIST=0x00000800                     /
//                          -DZDAPP_CONFIG_PAN_ID=0xFF11                      /
//                          -DNWK_START_DELAY=100 -DEXTENDED_JOINING_RANDOM_M /
//                          ASK=0x007F -DBEACON_REQUEST_DELAY=100             /
//                          -DBEACON_REQ_DELAY_MASK=0x00FF                    /
//                          -DROUTE_EXPIRY_TIME=30 -DAPSC_ACK_WAIT_DURATION_P /
//                          OLLED=3000 -DNWK_INDIRECT_MSG_TIMEOUT=7           /
//                          -DMAX_RREQ_ENTRIES=8 -DAPSC_MAX_FRAME_RETRIES=3   /
//                          -DNWK_MAX_DATA_RETRIES=2                          /
//                          -DMAX_POLL_FAILURE_RETRIES=2 -DMAX_BCAST=9        /
//                          -DAPS_MAX_GROUPS=16 -DMAX_RTG_ENTRIES=40          /
//                          -DNWK_MAX_BINDING_ENTRIES=4                       /
//                          -DMAX_BINDING_CLUSTER_IDS=4                       /
//                          "-DDEFAULT_KEY={0x01, 0x03, 0x05, 0x07, 0x09,     /
//                          0x0B, 0x0D, 0x0F, 0x00, 0x02, 0x04, 0x06, 0x08,   /
//                          0x0A, 0x0C, 0x0D}" -DMAC_MAX_FRAME_SIZE=116       /
//                          "-DCONST=const __code" -DGENERIC=__generic        /
//                          -DRFD_RCVC_ALWAYS_ON=FALSE -DPOLL_RATE=1000       /
//                          -DQUEUED_POLL_RATE=100 -DRESPONSE_POLL_RATE=100)  /
//                          -DREJOIN_POLL_RATE=440 C:\Users\Administrator\Des /
//                          ktop\eps\ZigBeeÍ¨ÐÅÊµÑé\4.ZigBeeÍøÂç´«ÊäPM2.5ÊµÑé /
//                          \Components\mt\MT_AF.c -D NWK_AUTO_POLL -D        /
//                          ZTOOL_P1 -D MT_SYS_FUNC -D MT_ZDO_FUNC -D         /
//                          LCD_SUPPORTED=DEBUG -lC                           /
//                          C:\Users\Administrator\Desktop\eps\ZigBeeÍ¨ÐÅÊµÑé /
//                          \4.ZigBeeÍøÂç´«ÊäPM2.5ÊµÑé\Projects\zstack\Sample /
//                          s\SampleApp\CC2530DB\EndDeviceEB\List\ -lA        /
//                          C:\Users\Administrator\Desktop\eps\ZigBeeÍ¨ÐÅÊµÑé /
//                          \4.ZigBeeÍøÂç´«ÊäPM2.5ÊµÑé\Projects\zstack\Sample /
//                          s\SampleApp\CC2530DB\EndDeviceEB\List\            /
//                          --diag_suppress Pe001,Pa010 -o                    /
//                          C:\Users\Administrator\Desktop\eps\ZigBeeÍ¨ÐÅÊµÑé /
//                          \4.ZigBeeÍøÂç´«ÊäPM2.5ÊµÑé\Projects\zstack\Sample /
//                          s\SampleApp\CC2530DB\EndDeviceEB\Obj\ -e          /
//                          --no_unroll --no_inline --no_tbaa --debug         /
//                          --core=plain --dptr=16,1 --data_model=large       /
//                          --code_model=banked --calling_convention=xdata_re /
//                          entrant --place_constants=data_rom                /
//                          --nr_virtual_regs 16 -I                           /
//                          C:\Users\Administrator\Desktop\eps\ZigBeeÍ¨ÐÅÊµÑé /
//                          \4.ZigBeeÍøÂç´«ÊäPM2.5ÊµÑé\Projects\zstack\Sample /
//                          s\SampleApp\CC2530DB\ -I                          /
//                          C:\Users\Administrator\Desktop\eps\ZigBeeÍ¨ÐÅÊµÑé /
//                          \4.ZigBeeÍøÂç´«ÊäPM2.5ÊµÑé\Projects\zstack\Sample /
//                          s\SampleApp\CC2530DB\..\SOURCE\ -I                /
//                          C:\Users\Administrator\Desktop\eps\ZigBeeÍ¨ÐÅÊµÑé /
//                          \4.ZigBeeÍøÂç´«ÊäPM2.5ÊµÑé\Projects\zstack\Sample /
//                          s\SampleApp\CC2530DB\..\..\..\ZMAIN\TI2530DB\ -I  /
//                          C:\Users\Administrator\Desktop\eps\ZigBeeÍ¨ÐÅÊµÑé /
//                          \4.ZigBeeÍøÂç´«ÊäPM2.5ÊµÑé\Projects\zstack\Sample /
//                          s\SampleApp\CC2530DB\..\..\..\..\..\COMPONENTS\MT /
//                          \ -I C:\Users\Administrator\Desktop\eps\ZigBeeÍ¨Ð /
//                          ÅÊµÑé\4.ZigBeeÍøÂç´«ÊäPM2.5ÊµÑé\Projects\zstack\S /
//                          amples\SampleApp\CC2530DB\..\..\..\..\..\COMPONEN /
//                          TS\HAL\INCLUDE\ -I C:\Users\Administrator\Desktop /
//                          \eps\ZigBeeÍ¨ÐÅÊµÑé\4.ZigBeeÍøÂç´«ÊäPM2.5ÊµÑé\Pro /
//                          jects\zstack\Samples\SampleApp\CC2530DB\..\..\..\ /
//                          ..\..\COMPONENTS\HAL\TARGET\CC2530EB\ -I          /
//                          C:\Users\Administrator\Desktop\eps\ZigBeeÍ¨ÐÅÊµÑé /
//                          \4.ZigBeeÍøÂç´«ÊäPM2.5ÊµÑé\Projects\zstack\Sample /
//                          s\SampleApp\CC2530DB\..\..\..\..\..\COMPONENTS\OS /
//                          AL\MCU\CCSOC\ -I C:\Users\Administrator\Desktop\e /
//                          ps\ZigBeeÍ¨ÐÅÊµÑé\4.ZigBeeÍøÂç´«ÊäPM2.5ÊµÑé\Proje /
//                          cts\zstack\Samples\SampleApp\CC2530DB\..\..\..\.. /
//                          \..\COMPONENTS\OSAL\INCLUDE\ -I                   /
//                          C:\Users\Administrator\Desktop\eps\ZigBeeÍ¨ÐÅÊµÑé /
//                          \4.ZigBeeÍøÂç´«ÊäPM2.5ÊµÑé\Projects\zstack\Sample /
//                          s\SampleApp\CC2530DB\..\..\..\..\..\COMPONENTS\ST /
//                          ACK\AF\ -I C:\Users\Administrator\Desktop\eps\Zig /
//                          BeeÍ¨ÐÅÊµÑé\4.ZigBeeÍøÂç´«ÊäPM2.5ÊµÑé\Projects\zs /
//                          tack\Samples\SampleApp\CC2530DB\..\..\..\..\..\CO /
//                          MPONENTS\STACK\NWK\ -I C:\Users\Administrator\Des /
//                          ktop\eps\ZigBeeÍ¨ÐÅÊµÑé\4.ZigBeeÍøÂç´«ÊäPM2.5ÊµÑé /
//                          \Projects\zstack\Samples\SampleApp\CC2530DB\..\.. /
//                          \..\..\..\COMPONENTS\STACK\SEC\ -I                /
//                          C:\Users\Administrator\Desktop\eps\ZigBeeÍ¨ÐÅÊµÑé /
//                          \4.ZigBeeÍøÂç´«ÊäPM2.5ÊµÑé\Projects\zstack\Sample /
//                          s\SampleApp\CC2530DB\..\..\..\..\..\COMPONENTS\ST /
//                          ACK\SAPI\ -I C:\Users\Administrator\Desktop\eps\Z /
//                          igBeeÍ¨ÐÅÊµÑé\4.ZigBeeÍøÂç´«ÊäPM2.5ÊµÑé\Projects\ /
//                          zstack\Samples\SampleApp\CC2530DB\..\..\..\..\..\ /
//                          COMPONENTS\STACK\SYS\ -I                          /
//                          C:\Users\Administrator\Desktop\eps\ZigBeeÍ¨ÐÅÊµÑé /
//                          \4.ZigBeeÍøÂç´«ÊäPM2.5ÊµÑé\Projects\zstack\Sample /
//                          s\SampleApp\CC2530DB\..\..\..\..\..\COMPONENTS\ST /
//                          ACK\ZDO\ -I C:\Users\Administrator\Desktop\eps\Zi /
//                          gBeeÍ¨ÐÅÊµÑé\4.ZigBeeÍøÂç´«ÊäPM2.5ÊµÑé\Projects\z /
//                          stack\Samples\SampleApp\CC2530DB\..\..\..\..\..\C /
//                          OMPONENTS\ZMAC\F8W\ -I C:\Users\Administrator\Des /
//                          ktop\eps\ZigBeeÍ¨ÐÅÊµÑé\4.ZigBeeÍøÂç´«ÊäPM2.5ÊµÑé /
//                          \Projects\zstack\Samples\SampleApp\CC2530DB\..\.. /
//                          \..\..\..\COMPONENTS\ZMAC\ -I                     /
//                          C:\Users\Administrator\Desktop\eps\ZigBeeÍ¨ÐÅÊµÑé /
//                          \4.ZigBeeÍøÂç´«ÊäPM2.5ÊµÑé\Projects\zstack\Sample /
//                          s\SampleApp\CC2530DB\..\..\..\..\..\COMPONENTS\SE /
//                          RVICES\SADDR\ -I C:\Users\Administrator\Desktop\e /
//                          ps\ZigBeeÍ¨ÐÅÊµÑé\4.ZigBeeÍøÂç´«ÊäPM2.5ÊµÑé\Proje /
//                          cts\zstack\Samples\SampleApp\CC2530DB\..\..\..\.. /
//                          \..\COMPONENTS\SERVICES\SDATA\ -I                 /
//                          C:\Users\Administrator\Desktop\eps\ZigBeeÍ¨ÐÅÊµÑé /
//                          \4.ZigBeeÍøÂç´«ÊäPM2.5ÊµÑé\Projects\zstack\Sample /
//                          s\SampleApp\CC2530DB\..\..\..\..\..\COMPONENTS\MA /
//                          C\INCLUDE\ -I C:\Users\Administrator\Desktop\eps\ /
//                          ZigBeeÍ¨ÐÅÊµÑé\4.ZigBeeÍøÂç´«ÊäPM2.5ÊµÑé\Projects /
//                          \zstack\Samples\SampleApp\CC2530DB\..\..\..\..\.. /
//                          \COMPONENTS\MAC\HIGH_LEVEL\ -I                    /
//                          C:\Users\Administrator\Desktop\eps\ZigBeeÍ¨ÐÅÊµÑé /
//                          \4.ZigBeeÍøÂç´«ÊäPM2.5ÊµÑé\Projects\zstack\Sample /
//                          s\SampleApp\CC2530DB\..\..\..\..\..\COMPONENTS\MA /
//                          C\LOW_LEVEL\srf04\ -I C:\Users\Administrator\Desk /
//                          top\eps\ZigBeeÍ¨ÐÅÊµÑé\4.ZigBeeÍøÂç´«ÊäPM2.5ÊµÑé\ /
//                          Projects\zstack\Samples\SampleApp\CC2530DB\..\..\ /
//                          ..\..\..\COMPONENTS\MAC\LOW_LEVEL\srf04\SINGLE_CH /
//                          IP\ -I C:\Users\Administrator\Desktop\eps\ZigBeeÍ /
//                          ¨ÐÅÊµÑé\4.ZigBeeÍøÂç´«ÊäPM2.5ÊµÑé\Projects\zstack /
//                          \Samples\SampleApp\CC2530DB\..\..\..\..\..\COMPON /
//                          ENTS\HARDWARE\ -Om                                /
//    List file          =  C:\Users\Administrator\Desktop\eps\ZigBeeÍ¨ÐÅÊµÑé /
//                          \4.ZigBeeÍøÂç´«ÊäPM2.5ÊµÑé\Projects\zstack\Sample /
//                          s\SampleApp\CC2530DB\EndDeviceEB\List\MT_AF.s51   /
//                                                                            /
//                                                                            /
///////////////////////////////////////////////////////////////////////////////

        NAME MT_AF

        RTMODEL "__SystemLibrary", "CLib"
        RTMODEL "__calling_convention", "xdata_reentrant"
        RTMODEL "__code_model", "banked"
        RTMODEL "__core", "plain"
        RTMODEL "__data_model", "large"
        RTMODEL "__dptr_size", "16"
        RTMODEL "__extended_stack", "disabled"
        RTMODEL "__location_for_constants", "data"
        RTMODEL "__number_of_dptrs", "1"
        RTMODEL "__rt_version", "1"

        RSEG DOVERLAY:DATA:NOROOT(0)
        RSEG IOVERLAY:IDATA:NOROOT(0)
        RSEG ISTACK:IDATA:NOROOT(0)
        RSEG PSTACK:XDATA:NOROOT(0)
        RSEG XSTACK:XDATA:NOROOT(0)

        EXTERN ?ALLOC_XSTACK8
        EXTERN ?BANKED_ENTER_XDATA
        EXTERN ?BANKED_LEAVE_XDATA
        EXTERN ?BDISPATCH
        EXTERN ?BRET
        EXTERN ?DEALLOC_XSTACK8
        EXTERN ?L_MOV_X
        EXTERN ?PUSH_XSTACK_I_ONE
        EXTERN ?PUSH_XSTACK_I_THREE
        EXTERN ?PUSH_XSTACK_I_TWO
        EXTERN ?UL_SHR
        EXTERN ?V0
        EXTERN ?XSP
        EXTERN ?XSTACK_DISP0_8

        PUBLIC ??MT_AfCommandProcessing?relay
        FUNCTION ??MT_AfCommandProcessing?relay,0203H
        PUBLIC ??MT_AfDataConfirm?relay
        FUNCTION ??MT_AfDataConfirm?relay,0203H
        PUBLIC ??MT_AfDataRequest?relay
        FUNCTION ??MT_AfDataRequest?relay,0203H
        PUBLIC ??MT_AfIncomingMsg?relay
        FUNCTION ??MT_AfIncomingMsg?relay,0203H
        PUBLIC ??MT_AfRegister?relay
        FUNCTION ??MT_AfRegister?relay,0203H
        PUBLIC MT_AfCommandProcessing
        FUNCTION MT_AfCommandProcessing,021203H
        ARGFRAME XSTACK, 0, STACK
        LOCFRAME XSTACK, 9, STACK
        PUBLIC MT_AfDataConfirm
        FUNCTION MT_AfDataConfirm,021203H
        ARGFRAME XSTACK, 0, STACK
        LOCFRAME ISTACK, 3, STACK
        LOCFRAME XSTACK, 3, STACK
        PUBLIC MT_AfDataRequest
        FUNCTION MT_AfDataRequest,021203H
        ARGFRAME XSTACK, 9, STACK
        ARGFRAME IOVERLAY, 0, STATIC
        ARGFRAME DOVERLAY, 0, STATIC
        LOCFRAME ISTACK, 1, STACK
        LOCFRAME XSTACK, 37, STACK
        PUBLIC MT_AfIncomingMsg
        FUNCTION MT_AfIncomingMsg,021203H
        ARGFRAME XSTACK, 0, STACK
        LOCFRAME ISTACK, 1, STACK
        LOCFRAME XSTACK, 22, STACK
        PUBLIC MT_AfRegister
        FUNCTION MT_AfRegister,021203H
        ARGFRAME XSTACK, 9, STACK
        ARGFRAME IOVERLAY, 0, STATIC
        ARGFRAME DOVERLAY, 0, STATIC
        LOCFRAME ISTACK, 1, STACK
        LOCFRAME XSTACK, 15, STACK
        
        CFI Names cfiNames0
        CFI StackFrame CFA_SP SP IDATA
        CFI StackFrame CFA_PSP16 PSP16 XDATA
        CFI StackFrame CFA_XSP16 XSP16 XDATA
        CFI StaticOverlayFrame CFA_IOVERLAY IOVERLAY
        CFI StaticOverlayFrame CFA_DOVERLAY DOVERLAY
        CFI Resource `PSW.CY`:1, `B.BR0`:1, `B.BR1`:1, `B.BR2`:1, `B.BR3`:1
        CFI Resource `B.BR4`:1, `B.BR5`:1, `B.BR6`:1, `B.BR7`:1, `VB.BR8`:1
        CFI Resource `VB.BR9`:1, `VB.BR10`:1, `VB.BR11`:1, `VB.BR12`:1
        CFI Resource `VB.BR13`:1, `VB.BR14`:1, `VB.BR15`:1, VB:8, B:8, A:8
        CFI Resource PSW:8, DPL0:8, DPH0:8, R0:8, R1:8, R2:8, R3:8, R4:8, R5:8
        CFI Resource R6:8, R7:8, V0:8, V1:8, V2:8, V3:8, V4:8, V5:8, V6:8, V7:8
        CFI Resource V8:8, V9:8, V10:8, V11:8, V12:8, V13:8, V14:8, V15:8, SP:8
        CFI Resource PSPH:8, PSPL:8, PSP16:16, XSPH:8, XSPL:8, XSP16:16
        CFI VirtualResource ?RET:24
        CFI Resource ?BRET_EXT:8
        CFI VirtualResource ?RET_HIGH:8, ?RET_LOW:8
        CFI ResourceParts PSP16 PSPH, PSPL
        CFI ResourceParts XSP16 XSPH, XSPL
        CFI ResourceParts ?RET ?BRET_EXT, ?RET_HIGH, ?RET_LOW
        CFI EndNames cfiNames0
        
        CFI Common cfiCommon0 Using cfiNames0
        CFI CodeAlign 1
        CFI DataAlign -1
        CFI ReturnAddress ?RET CODE
        CFI CFA_DOVERLAY Used
        CFI CFA_IOVERLAY Used
        CFI CFA_SP SP+-3
        CFI CFA_PSP16 PSP16+0
        CFI CFA_XSP16 XSP16+0
        CFI `PSW.CY` SameValue
        CFI `B.BR0` SameValue
        CFI `B.BR1` SameValue
        CFI `B.BR2` SameValue
        CFI `B.BR3` SameValue
        CFI `B.BR4` SameValue
        CFI `B.BR5` SameValue
        CFI `B.BR6` SameValue
        CFI `B.BR7` SameValue
        CFI `VB.BR8` SameValue
        CFI `VB.BR9` SameValue
        CFI `VB.BR10` SameValue
        CFI `VB.BR11` SameValue
        CFI `VB.BR12` SameValue
        CFI `VB.BR13` SameValue
        CFI `VB.BR14` SameValue
        CFI `VB.BR15` SameValue
        CFI VB SameValue
        CFI B Undefined
        CFI A Undefined
        CFI PSW SameValue
        CFI DPL0 SameValue
        CFI DPH0 SameValue
        CFI R0 Undefined
        CFI R1 Undefined
        CFI R2 Undefined
        CFI R3 Undefined
        CFI R4 Undefined
        CFI R5 Undefined
        CFI R6 SameValue
        CFI R7 SameValue
        CFI V0 SameValue
        CFI V1 SameValue
        CFI V2 SameValue
        CFI V3 SameValue
        CFI V4 SameValue
        CFI V5 SameValue
        CFI V6 SameValue
        CFI V7 SameValue
        CFI V8 SameValue
        CFI V9 SameValue
        CFI V10 SameValue
        CFI V11 SameValue
        CFI V12 SameValue
        CFI V13 SameValue
        CFI V14 SameValue
        CFI V15 SameValue
        CFI PSPH Undefined
        CFI PSPL Undefined
        CFI XSPH Undefined
        CFI XSPL Undefined
        CFI ?RET Concat
        CFI ?BRET_EXT Frame(CFA_SP, 3)
        CFI ?RET_HIGH Frame(CFA_SP, 2)
        CFI ?RET_LOW Frame(CFA_SP, 1)
        CFI EndCommon cfiCommon0
        
osal_mem_alloc      SYMBOL "osal_mem_alloc"
MT_BuildEndpointDesc SYMBOL "MT_BuildEndpointDesc"
afRegister          SYMBOL "afRegister"
osal_mem_free       SYMBOL "osal_mem_free"
MT_BuildAndSendZToolResponse SYMBOL "MT_BuildAndSendZToolResponse"
osal_memcpy         SYMBOL "osal_memcpy"
afFindEndPointDesc  SYMBOL "afFindEndPointDesc"
AF_DataRequest      SYMBOL "AF_DataRequest"
??AF_DataRequest?relay SYMBOL "?relay", AF_DataRequest
??MT_BuildAndSendZToolResponse?relay SYMBOL "?relay", MT_BuildAndSendZToolResponse
??MT_BuildEndpointDesc?relay SYMBOL "?relay", MT_BuildEndpointDesc
??afFindEndPointDesc?relay SYMBOL "?relay", afFindEndPointDesc
??afRegister?relay  SYMBOL "?relay", afRegister
??osal_mem_alloc?relay SYMBOL "?relay", osal_mem_alloc
??osal_mem_free?relay SYMBOL "?relay", osal_mem_free
??osal_memcpy?relay SYMBOL "?relay", osal_memcpy
MT_AfCommandProcessing SYMBOL "MT_AfCommandProcessing"
??MT_AfCommandProcessing?relay SYMBOL "?relay", MT_AfCommandProcessing
MT_AfDataConfirm    SYMBOL "MT_AfDataConfirm"
??MT_AfDataConfirm?relay SYMBOL "?relay", MT_AfDataConfirm
MT_AfDataRequest    SYMBOL "MT_AfDataRequest"
??MT_AfDataRequest?relay SYMBOL "?relay", MT_AfDataRequest
MT_AfIncomingMsg    SYMBOL "MT_AfIncomingMsg"
??MT_AfIncomingMsg?relay SYMBOL "?relay", MT_AfIncomingMsg
MT_AfRegister       SYMBOL "MT_AfRegister"
??MT_AfRegister?relay SYMBOL "?relay", MT_AfRegister

        EXTERN osal_mem_alloc
        FUNCTION osal_mem_alloc,0202H
        ARGFRAME ISTACK, 0, STACK
        ARGFRAME PSTACK, 0, STACK
        ARGFRAME XSTACK, 19, STACK
        ARGFRAME IOVERLAY, 0, STATIC
        ARGFRAME DOVERLAY, 0, STATIC
        EXTERN MT_BuildEndpointDesc
        FUNCTION MT_BuildEndpointDesc,0202H
        ARGFRAME ISTACK, 0, STACK
        ARGFRAME PSTACK, 0, STACK
        ARGFRAME XSTACK, 15, STACK
        ARGFRAME IOVERLAY, 0, STATIC
        ARGFRAME DOVERLAY, 0, STATIC
        EXTERN afRegister
        FUNCTION afRegister,0202H
        ARGFRAME ISTACK, 0, STACK
        ARGFRAME PSTACK, 0, STACK
        ARGFRAME XSTACK, 15, STACK
        ARGFRAME IOVERLAY, 0, STATIC
        ARGFRAME DOVERLAY, 0, STATIC
        EXTERN osal_mem_free
        FUNCTION osal_mem_free,0202H
        ARGFRAME ISTACK, 0, STACK
        ARGFRAME PSTACK, 0, STACK
        ARGFRAME XSTACK, 19, STACK
        ARGFRAME IOVERLAY, 0, STATIC
        ARGFRAME DOVERLAY, 0, STATIC
        EXTERN MT_BuildAndSendZToolResponse
        FUNCTION MT_BuildAndSendZToolResponse,0202H
        ARGFRAME ISTACK, 2, STACK
        ARGFRAME PSTACK, 0, STACK
        ARGFRAME XSTACK, 28, STACK
        ARGFRAME IOVERLAY, 0, STATIC
        ARGFRAME DOVERLAY, 0, STATIC
        EXTERN osal_memcpy
        FUNCTION osal_memcpy,0202H
        ARGFRAME ISTACK, 0, STACK
        ARGFRAME PSTACK, 0, STACK
        ARGFRAME XSTACK, 31, STACK
        ARGFRAME IOVERLAY, 0, STATIC
        ARGFRAME DOVERLAY, 0, STATIC
        EXTERN afFindEndPointDesc
        FUNCTION afFindEndPointDesc,0202H
        ARGFRAME ISTACK, 0, STACK
        ARGFRAME PSTACK, 0, STACK
        ARGFRAME XSTACK, 28, STACK
        ARGFRAME IOVERLAY, 0, STATIC
        ARGFRAME DOVERLAY, 0, STATIC
        EXTERN AF_DataRequest
        FUNCTION AF_DataRequest,0202H
        ARGFRAME ISTACK, 0, STACK
        ARGFRAME PSTACK, 0, STACK
        ARGFRAME XSTACK, 37, STACK
        ARGFRAME IOVERLAY, 0, STATIC
        ARGFRAME DOVERLAY, 0, STATIC
        EXTERN ??AF_DataRequest?relay
        FUNCTION ??AF_DataRequest?relay,00H
        EXTERN ??MT_BuildAndSendZToolResponse?relay
        FUNCTION ??MT_BuildAndSendZToolResponse?relay,00H
        EXTERN ??MT_BuildEndpointDesc?relay
        FUNCTION ??MT_BuildEndpointDesc?relay,00H
        EXTERN ??afFindEndPointDesc?relay
        FUNCTION ??afFindEndPointDesc?relay,00H
        EXTERN ??afRegister?relay
        FUNCTION ??afRegister?relay,00H
        EXTERN ??osal_mem_alloc?relay
        FUNCTION ??osal_mem_alloc?relay,00H
        EXTERN ??osal_mem_free?relay
        FUNCTION ??osal_mem_free?relay,00H
        EXTERN ??osal_memcpy?relay
        FUNCTION ??osal_memcpy?relay,00H
        EXTERN MT_TaskID

// C:\Users\Administrator\Desktop\eps\ZigBeeÍ¨ÐÅÊµÑé\4.ZigBeeÍøÂç´«ÊäPM2.5ÊµÑé\Components\mt\MT_AF.c
//    1 /**************************************************************************************************
//    2   Filename:       MT_AF.c
//    3   Revised:        $Date: 2010-01-08 16:52:37 -0800 (Fri, 08 Jan 2010) $
//    4   Revision:       $Revision: 21471 $
//    5 
//    6 
//    7   Description:    MonitorTest functions for the AF layer.
//    8 
//    9 
//   10   Copyright 2007-2010 Texas Instruments Incorporated. All rights reserved.
//   11 
//   12   IMPORTANT: Your use of this Software is limited to those specific rights
//   13   granted under the terms of a software license agreement between the user
//   14   who downloaded the software, his/her employer (which must be your employer)
//   15   and Texas Instruments Incorporated (the "License").  You may not use this
//   16   Software unless you agree to abide by the terms of the License. The License
//   17   limits your use, and you acknowledge, that the Software may not be modified,
//   18   copied or distributed unless embedded on a Texas Instruments microcontroller
//   19   or used solely and exclusively in conjunction with a Texas Instruments radio
//   20   frequency transceiver, which is integrated into your product.  Other than for
//   21   the foregoing purpose, you may not use, reproduce, copy, prepare derivative
//   22   works of, modify, distribute, perform, display or sell this Software and/or
//   23   its documentation for any purpose.
//   24 
//   25   YOU FURTHER ACKNOWLEDGE AND AGREE THAT THE SOFTWARE AND DOCUMENTATION ARE
//   26   PROVIDED “AS IS” WITHOUT WARRANTY OF ANY KIND, EITHER EXPRESS OR IMPLIED,
//   27   INCLUDING WITHOUT LIMITATION, ANY WARRANTY OF MERCHANTABILITY, TITLE,
//   28   NON-INFRINGEMENT AND FITNESS FOR A PARTICULAR PURPOSE. IN NO EVENT SHALL
//   29   TEXAS INSTRUMENTS OR ITS LICENSORS BE LIABLE OR OBLIGATED UNDER CONTRACT,
//   30   NEGLIGENCE, STRICT LIABILITY, CONTRIBUTION, BREACH OF WARRANTY, OR OTHER
//   31   LEGAL EQUITABLE THEORY ANY DIRECT OR INDIRECT DAMAGES OR EXPENSES
//   32   INCLUDING BUT NOT LIMITED TO ANY INCIDENTAL, SPECIAL, INDIRECT, PUNITIVE
//   33   OR CONSEQUENTIAL DAMAGES, LOST PROFITS OR LOST DATA, COST OF PROCUREMENT
//   34   OF SUBSTITUTE GOODS, TECHNOLOGY, SERVICES, OR ANY CLAIMS BY THIRD PARTIES
//   35   (INCLUDING BUT NOT LIMITED TO ANY DEFENSE THEREOF), OR OTHER SIMILAR COSTS.
//   36 
//   37   Should you have any questions regarding your right to use this Software,
//   38   contact Texas Instruments Incorporated at www.TI.com.
//   39 
//   40 **************************************************************************************************/
//   41 
//   42 /***************************************************************************************************
//   43  * INCLUDES
//   44  ***************************************************************************************************/
//   45 #include "ZComDef.h"
//   46 #include "OSAL.h"
//   47 #include "MT.h"
//   48 #include "MT_AF.h"
//   49 #include "MT_ZDO.h"
//   50 #include "nwk.h"
//   51 #include "OnBoard.h"
//   52 #include "MT_UART.h"
//   53 
//   54 #if defined INTER_PAN
//   55 #include "stub_aps.h"
//   56 #endif
//   57 
//   58 /***************************************************************************************************
//   59  * GLOBAL VARIABLES
//   60  ***************************************************************************************************/
//   61 
//   62 #if defined ( MT_AF_CB_FUNC )
//   63 uint16 _afCallbackSub;
//   64 #endif
//   65 
//   66 /***************************************************************************************************
//   67  * LOCAL FUNCTIONS
//   68  ***************************************************************************************************/
//   69 void MT_AfRegister(uint8 *pBuf);
//   70 void MT_AfDataRequest(uint8 *pBuf);
//   71 
//   72 #if defined ( ZIGBEE_SOURCE_ROUTING )
//   73 void MT_AfDataRequestSrcRtg(uint8 *pBuf);
//   74 #endif
//   75 
//   76 #if defined INTER_PAN
//   77 static void MT_AfInterPanCtl(uint8 *pBuf);
//   78 #endif
//   79 
//   80 /***************************************************************************************************
//   81  * @fn      MT_afCommandProcessing
//   82  *
//   83  * @brief   Process all the AF commands that are issued by test tool
//   84  *
//   85  * @param   pBuf - pointer to the received buffer
//   86  *
//   87  * @return  status
//   88  ***************************************************************************************************/

        RSEG BANKED_CODE:CODE:NOROOT(0)
//   89 uint8 MT_AfCommandProcessing(uint8 *pBuf)
MT_AfCommandProcessing:
        CFI Block cfiBlock0 Using cfiCommon0
        CFI Function MT_AfCommandProcessing
        CODE
//   90 {
        FUNCALL MT_AfCommandProcessing, MT_AfRegister
        LOCFRAME ISTACK, 0, STACK
        LOCFRAME PSTACK, 0, STACK
        LOCFRAME XSTACK, 9, STACK
        LOCFRAME IOVERLAY, 0, STATIC
        LOCFRAME DOVERLAY, 0, STATIC
        ARGFRAME ISTACK, 0, STACK
        ARGFRAME PSTACK, 0, STACK
        ARGFRAME XSTACK, 9, STACK
        ARGFRAME IOVERLAY, 0, STATIC
        ARGFRAME DOVERLAY, 0, STATIC
        FUNCALL MT_AfCommandProcessing, MT_AfDataRequest
        LOCFRAME ISTACK, 0, STACK
        LOCFRAME PSTACK, 0, STACK
        LOCFRAME XSTACK, 9, STACK
        LOCFRAME IOVERLAY, 0, STATIC
        LOCFRAME DOVERLAY, 0, STATIC
        ARGFRAME ISTACK, 0, STACK
        ARGFRAME PSTACK, 0, STACK
        ARGFRAME XSTACK, 9, STACK
        ARGFRAME IOVERLAY, 0, STATIC
        ARGFRAME DOVERLAY, 0, STATIC
        MOV     A,#-0x9
        LCALL   ?BANKED_ENTER_XDATA
        CFI DPH0 load(1, XDATA, add(CFA_XSP16, literal(-1)))
        CFI DPL0 load(1, XDATA, add(CFA_XSP16, literal(-2)))
        CFI ?BRET_EXT load(1, XDATA, add(CFA_XSP16, literal(-3)))
        CFI ?RET_HIGH load(1, XDATA, add(CFA_XSP16, literal(-4)))
        CFI ?RET_LOW load(1, XDATA, add(CFA_XSP16, literal(-5)))
        CFI R7 load(1, XDATA, add(CFA_XSP16, literal(-6)))
        CFI V0 load(1, XDATA, add(CFA_XSP16, literal(-7)))
        CFI VB load(1, XDATA, add(CFA_XSP16, literal(-8)))
        CFI R6 load(1, XDATA, add(CFA_XSP16, literal(-9)))
        CFI CFA_SP SP+0
        CFI CFA_XSP16 add(XSP16, 9)
        ; Saved register size: 9
        ; Auto size: 0
//   91   uint8 status = MT_RPC_SUCCESS;
        MOV     R6,#0x0
//   92 
//   93   switch (pBuf[MT_RPC_POS_CMD1])
        MOV     DPL,R2
        MOV     DPH,R3
        INC     DPTR
        INC     DPTR
        MOVX    A,@DPTR
        JZ      ??MT_AfCommandProcessing_0
        DEC     A
        JZ      ??MT_AfCommandProcessing_1
        DEC     A
        JZ      ??MT_AfCommandProcessing_1
        SJMP    ??MT_AfCommandProcessing_2
//   94   {
//   95     case MT_AF_REGISTER:
//   96       MT_AfRegister(pBuf);
??MT_AfCommandProcessing_0:
        ; Setup parameters for call to function MT_AfRegister
        LCALL   ??MT_AfRegister?relay
//   97       break;
        SJMP    ??MT_AfCommandProcessing_3
//   98 
//   99     case MT_AF_DATA_REQUEST:
//  100     case MT_AF_DATA_REQUEST_EXT:
//  101       MT_AfDataRequest(pBuf);
??MT_AfCommandProcessing_1:
        ; Setup parameters for call to function MT_AfDataRequest
        LCALL   ??MT_AfDataRequest?relay
//  102       break;
        SJMP    ??MT_AfCommandProcessing_3
//  103       
//  104 #if defined ( ZIGBEE_SOURCE_ROUTING )
//  105     case MT_AF_DATA_REQUEST_SRCRTG:
//  106       MT_AfDataRequestSrcRtg(pBuf);
//  107       break;
//  108 #endif
//  109       
//  110 #if defined INTER_PAN
//  111     case MT_AF_INTER_PAN_CTL:
//  112       MT_AfInterPanCtl(pBuf);
//  113       break; 
//  114 #endif
//  115       
//  116     default:
//  117       status = MT_RPC_ERR_COMMAND_ID;
??MT_AfCommandProcessing_2:
        INC     R6
        INC     R6
//  118       break;
//  119   }
//  120 
//  121   return status;
??MT_AfCommandProcessing_3:
        MOV     A,R6
        MOV     R1,A
        MOV     R7,#0x1
        LJMP    ?BANKED_LEAVE_XDATA
        CFI EndBlock cfiBlock0
//  122 }
//  123 
//  124 /***************************************************************************************************
//  125  * @fn      MT_AfRegister
//  126  *
//  127  * @brief   Process AF Register command
//  128  *
//  129  * @param   pBuf - pointer to the received buffer
//  130  *
//  131  * @return  none
//  132  ***************************************************************************************************/

        RSEG BANKED_CODE:CODE:NOROOT(0)
//  133 void MT_AfRegister(uint8 *pBuf)
MT_AfRegister:
        CFI Block cfiBlock1 Using cfiCommon0
        CFI Function MT_AfRegister
        CODE
//  134 {
        FUNCALL MT_AfRegister, osal_mem_alloc
        LOCFRAME ISTACK, 0, STACK
        LOCFRAME PSTACK, 0, STACK
        LOCFRAME XSTACK, 15, STACK
        LOCFRAME IOVERLAY, 0, STATIC
        LOCFRAME DOVERLAY, 0, STATIC
        ARGFRAME ISTACK, 0, STACK
        ARGFRAME PSTACK, 0, STACK
        ARGFRAME XSTACK, 15, STACK
        ARGFRAME IOVERLAY, 0, STATIC
        ARGFRAME DOVERLAY, 0, STATIC
        FUNCALL MT_AfRegister, MT_BuildEndpointDesc
        LOCFRAME ISTACK, 0, STACK
        LOCFRAME PSTACK, 0, STACK
        LOCFRAME XSTACK, 15, STACK
        LOCFRAME IOVERLAY, 0, STATIC
        LOCFRAME DOVERLAY, 0, STATIC
        ARGFRAME ISTACK, 0, STACK
        ARGFRAME PSTACK, 0, STACK
        ARGFRAME XSTACK, 15, STACK
        ARGFRAME IOVERLAY, 0, STATIC
        ARGFRAME DOVERLAY, 0, STATIC
        FUNCALL MT_AfRegister, afRegister
        LOCFRAME ISTACK, 0, STACK
        LOCFRAME PSTACK, 0, STACK
        LOCFRAME XSTACK, 15, STACK
        LOCFRAME IOVERLAY, 0, STATIC
        LOCFRAME DOVERLAY, 0, STATIC
        ARGFRAME ISTACK, 0, STACK
        ARGFRAME PSTACK, 0, STACK
        ARGFRAME XSTACK, 15, STACK
        ARGFRAME IOVERLAY, 0, STATIC
        ARGFRAME DOVERLAY, 0, STATIC
        FUNCALL MT_AfRegister, osal_mem_free
        LOCFRAME ISTACK, 0, STACK
        LOCFRAME PSTACK, 0, STACK
        LOCFRAME XSTACK, 15, STACK
        LOCFRAME IOVERLAY, 0, STATIC
        LOCFRAME DOVERLAY, 0, STATIC
        ARGFRAME ISTACK, 0, STACK
        ARGFRAME PSTACK, 0, STACK
        ARGFRAME XSTACK, 15, STACK
        ARGFRAME IOVERLAY, 0, STATIC
        ARGFRAME DOVERLAY, 0, STATIC
        FUNCALL MT_AfRegister, MT_BuildAndSendZToolResponse
        LOCFRAME ISTACK, 0, STACK
        LOCFRAME PSTACK, 0, STACK
        LOCFRAME XSTACK, 15, STACK
        LOCFRAME IOVERLAY, 0, STATIC
        LOCFRAME DOVERLAY, 0, STATIC
        ARGFRAME ISTACK, 0, STACK
        ARGFRAME PSTACK, 0, STACK
        ARGFRAME XSTACK, 15, STACK
        ARGFRAME IOVERLAY, 0, STATIC
        ARGFRAME DOVERLAY, 0, STATIC
        MOV     A,#-0xe
        LCALL   ?BANKED_ENTER_XDATA
        CFI DPH0 load(1, XDATA, add(CFA_XSP16, literal(-1)))
        CFI DPL0 load(1, XDATA, add(CFA_XSP16, literal(-2)))
        CFI ?BRET_EXT load(1, XDATA, add(CFA_XSP16, literal(-3)))
        CFI ?RET_HIGH load(1, XDATA, add(CFA_XSP16, literal(-4)))
        CFI ?RET_LOW load(1, XDATA, add(CFA_XSP16, literal(-5)))
        CFI R7 load(1, XDATA, add(CFA_XSP16, literal(-6)))
        CFI V5 load(1, XDATA, add(CFA_XSP16, literal(-7)))
        CFI V4 load(1, XDATA, add(CFA_XSP16, literal(-8)))
        CFI V3 load(1, XDATA, add(CFA_XSP16, literal(-9)))
        CFI V2 load(1, XDATA, add(CFA_XSP16, literal(-10)))
        CFI V1 load(1, XDATA, add(CFA_XSP16, literal(-11)))
        CFI V0 load(1, XDATA, add(CFA_XSP16, literal(-12)))
        CFI VB load(1, XDATA, add(CFA_XSP16, literal(-13)))
        CFI R6 load(1, XDATA, add(CFA_XSP16, literal(-14)))
        CFI CFA_SP SP+0
        CFI CFA_XSP16 add(XSP16, 14)
        ; Saved register size: 14
        ; Auto size: 1
        MOV     A,#-0x1
        LCALL   ?ALLOC_XSTACK8
        CFI CFA_XSP16 add(XSP16, 15)
        MOV     ?V0 + 0,R2
        MOV     ?V0 + 1,R3
//  135   uint8 cmdId;
//  136   uint8 retValue = ZMemError;
        MOV     DPL,?XSP + 0
        MOV     DPH,?XSP + 1
        MOV     A,#0x10
        MOVX    @DPTR,A
//  137   endPointDesc_t *epDesc;
//  138 
//  139   /* parse header */
//  140   cmdId = pBuf[MT_RPC_POS_CMD1];
        MOV     DPL,R2
        MOV     DPH,R3
        INC     DPTR
        INC     DPTR
        MOVX    A,@DPTR
        MOV     ?V0 + 2,A
//  141   pBuf += MT_RPC_FRAME_HDR_SZ;
//  142 
//  143   epDesc = (endPointDesc_t *)osal_mem_alloc(sizeof(endPointDesc_t));
        ; Setup parameters for call to function osal_mem_alloc
        MOV     R2,#0x6
        MOV     R3,#0x0
        LCALL   ??osal_mem_alloc?relay
        MOV     ?V0 + 4,R2
        MOV     ?V0 + 5,R3
        MOV     R6,?V0 + 4
        MOV     R7,?V0 + 5
//  144   if ( epDesc )
        MOV     A,R6
        ORL     A,R7
        JZ      ??MT_AfRegister_0
//  145   {
//  146     epDesc->task_id = &MT_TaskID;
        MOV     DPL,R6
        MOV     DPH,R7
        INC     DPTR
        MOV     A,#MT_TaskID & 0xff
        MOVX    @DPTR,A
        INC     DPTR
        MOV     A,#(MT_TaskID >> 8) & 0xff
        MOVX    @DPTR,A
//  147     retValue = MT_BuildEndpointDesc( pBuf, epDesc );
        ; Setup parameters for call to function MT_BuildEndpointDesc
        MOV     A,R6
        MOV     R4,A
        MOV     A,R7
        MOV     R5,A
        MOV     A,?V0 + 0
        ADD     A,#0x3
        MOV     R2,A
        MOV     A,?V0 + 1
        ADDC    A,#0x0
        MOV     R3,A
        LCALL   ??MT_BuildEndpointDesc?relay
        MOV     A,R1
        MOV     DPL,?XSP + 0
        MOV     DPH,?XSP + 1
        MOVX    @DPTR,A
//  148     if ( retValue == ZSuccess )
        MOVX    A,@DPTR
        JNZ     ??MT_AfRegister_1
//  149     {
//  150       retValue = afRegister( epDesc );
        ; Setup parameters for call to function afRegister
        MOV     A,R6
        MOV     R2,A
        MOV     A,R7
        MOV     R3,A
        LCALL   ??afRegister?relay
        MOV     A,R1
        MOV     DPL,?XSP + 0
        MOV     DPH,?XSP + 1
        MOVX    @DPTR,A
//  151     }
//  152 
//  153     if ( retValue != ZSuccess )
??MT_AfRegister_1:
        MOVX    A,@DPTR
        JZ      ??MT_AfRegister_0
//  154     {
//  155       osal_mem_free( epDesc );
        ; Setup parameters for call to function osal_mem_free
        MOV     A,R6
        MOV     R2,A
        MOV     A,R7
        MOV     R3,A
        LCALL   ??osal_mem_free?relay
//  156     }
//  157   }
//  158 
//  159   /* Build and send back the response */
//  160   MT_BuildAndSendZToolResponse(((uint8)MT_RPC_CMD_SRSP | (uint8)MT_RPC_SYS_AF), cmdId, 1, &retValue);
??MT_AfRegister_0:
        ; Setup parameters for call to function MT_BuildAndSendZToolResponse
        MOV     DPL,?XSP + 0
        MOV     DPH,?XSP + 1
        MOV     R4,DPL
        MOV     R5,DPH
        MOV     R3,#0x1
        MOV     R2,?V0 + 2
        MOV     R1,#0x64
        LCALL   ??MT_BuildAndSendZToolResponse?relay
//  161 }
        MOV     A,#0x1
        LCALL   ?DEALLOC_XSTACK8
        CFI CFA_XSP16 add(XSP16, 14)
        MOV     R7,#0x6
        LJMP    ?BANKED_LEAVE_XDATA
        CFI EndBlock cfiBlock1
//  162 
//  163 /***************************************************************************************************
//  164  * @fn      MT_AfDataRequest
//  165  *
//  166  * @brief   Process AF Register command
//  167  *
//  168  * @param   pBuf - pointer to the received buffer
//  169  *
//  170  * @return  none
//  171  ***************************************************************************************************/

        RSEG BANKED_CODE:CODE:NOROOT(0)
//  172 void MT_AfDataRequest(uint8 *pBuf)
MT_AfDataRequest:
        CFI Block cfiBlock2 Using cfiCommon0
        CFI Function MT_AfDataRequest
        CODE
//  173 {
        FUNCALL MT_AfDataRequest, osal_memcpy
        LOCFRAME ISTACK, 0, STACK
        LOCFRAME PSTACK, 0, STACK
        LOCFRAME XSTACK, 31, STACK
        LOCFRAME IOVERLAY, 0, STATIC
        LOCFRAME DOVERLAY, 0, STATIC
        ARGFRAME ISTACK, 0, STACK
        ARGFRAME PSTACK, 0, STACK
        ARGFRAME XSTACK, 31, STACK
        ARGFRAME IOVERLAY, 0, STATIC
        ARGFRAME DOVERLAY, 0, STATIC
        FUNCALL MT_AfDataRequest, afFindEndPointDesc
        LOCFRAME ISTACK, 0, STACK
        LOCFRAME PSTACK, 0, STACK
        LOCFRAME XSTACK, 28, STACK
        LOCFRAME IOVERLAY, 0, STATIC
        LOCFRAME DOVERLAY, 0, STATIC
        ARGFRAME ISTACK, 0, STACK
        ARGFRAME PSTACK, 0, STACK
        ARGFRAME XSTACK, 28, STACK
        ARGFRAME IOVERLAY, 0, STATIC
        ARGFRAME DOVERLAY, 0, STATIC
        FUNCALL MT_AfDataRequest, AF_DataRequest
        LOCFRAME ISTACK, 0, STACK
        LOCFRAME PSTACK, 0, STACK
        LOCFRAME XSTACK, 37, STACK
        LOCFRAME IOVERLAY, 0, STATIC
        LOCFRAME DOVERLAY, 0, STATIC
        ARGFRAME ISTACK, 0, STACK
        ARGFRAME PSTACK, 0, STACK
        ARGFRAME XSTACK, 37, STACK
        ARGFRAME IOVERLAY, 0, STATIC
        ARGFRAME DOVERLAY, 0, STATIC
        FUNCALL MT_AfDataRequest, MT_BuildAndSendZToolResponse
        LOCFRAME ISTACK, 0, STACK
        LOCFRAME PSTACK, 0, STACK
        LOCFRAME XSTACK, 28, STACK
        LOCFRAME IOVERLAY, 0, STATIC
        LOCFRAME DOVERLAY, 0, STATIC
        ARGFRAME ISTACK, 0, STACK
        ARGFRAME PSTACK, 0, STACK
        ARGFRAME XSTACK, 28, STACK
        ARGFRAME IOVERLAY, 0, STATIC
        ARGFRAME DOVERLAY, 0, STATIC
        MOV     A,#-0xe
        LCALL   ?BANKED_ENTER_XDATA
        CFI DPH0 load(1, XDATA, add(CFA_XSP16, literal(-1)))
        CFI DPL0 load(1, XDATA, add(CFA_XSP16, literal(-2)))
        CFI ?BRET_EXT load(1, XDATA, add(CFA_XSP16, literal(-3)))
        CFI ?RET_HIGH load(1, XDATA, add(CFA_XSP16, literal(-4)))
        CFI ?RET_LOW load(1, XDATA, add(CFA_XSP16, literal(-5)))
        CFI R7 load(1, XDATA, add(CFA_XSP16, literal(-6)))
        CFI V5 load(1, XDATA, add(CFA_XSP16, literal(-7)))
        CFI V4 load(1, XDATA, add(CFA_XSP16, literal(-8)))
        CFI V3 load(1, XDATA, add(CFA_XSP16, literal(-9)))
        CFI V2 load(1, XDATA, add(CFA_XSP16, literal(-10)))
        CFI V1 load(1, XDATA, add(CFA_XSP16, literal(-11)))
        CFI V0 load(1, XDATA, add(CFA_XSP16, literal(-12)))
        CFI VB load(1, XDATA, add(CFA_XSP16, literal(-13)))
        CFI R6 load(1, XDATA, add(CFA_XSP16, literal(-14)))
        CFI CFA_SP SP+0
        CFI CFA_XSP16 add(XSP16, 14)
        ; Saved register size: 14
        ; Auto size: 14
        MOV     A,#-0xe
        LCALL   ?ALLOC_XSTACK8
        CFI CFA_XSP16 add(XSP16, 28)
//  174   uint8 cmd0, cmd1, tempLen = 0;
//  175   uint8 retValue = ZFailure;
        MOV     DPL,?XSP + 0
        MOV     DPH,?XSP + 1
        MOV     A,#0x1
        MOVX    @DPTR,A
//  176   endPointDesc_t *epDesc;
//  177   byte transId;
//  178   afAddrType_t dstAddr;
//  179   cId_t cId;
//  180   byte txOpts, radius, srcEP;
//  181 
//  182   /* Parse header */
//  183   cmd0 = pBuf[MT_RPC_POS_CMD0];
        MOV     DPL,R2
        MOV     DPH,R3
        INC     DPTR
        MOVX    A,@DPTR
        MOV     R7,A
//  184   cmd1 = pBuf[MT_RPC_POS_CMD1];
        MOV     DPL,R2
        MOV     DPH,R3
        INC     DPTR
        INC     DPTR
        MOVX    A,@DPTR
        MOV     R6,A
//  185   pBuf += MT_RPC_FRAME_HDR_SZ;
        MOV     A,R2
        ADD     A,#0x3
        MOV     ?V0 + 4,A
        MOV     A,R3
        ADDC    A,#0x0
        MOV     ?V0 + 5,A
//  186 
//  187   if (cmd1 == MT_AF_DATA_REQUEST_EXT)
        MOV     DPL,?V0 + 4
        MOV     DPH,A
        INC     DPTR
        MOV     ?V0 + 0,DPL
        MOV     ?V0 + 1,DPH
        MOV     A,#0x2
        XRL     A,R6
        JZ      $+5
        LJMP    ??MT_AfDataRequest_0 & 0xFFFF
//  188   {
//  189     dstAddr.addrMode = (afAddrMode_t)*pBuf++;
        MOV     DPL,?V0 + 4
        MOV     DPH,?V0 + 5
        MOVX    A,@DPTR
        MOV     R0,A
        PUSH    A
        CFI CFA_SP SP+-1
        MOV     A,#0xa
        LCALL   ?XSTACK_DISP0_8
        POP     A
        CFI CFA_SP SP+0
        MOVX    @DPTR,A
        MOV     ?V0 + 4,?V0 + 0
        MOV     ?V0 + 5,?V0 + 1
//  190 
//  191     if (dstAddr.addrMode == afAddr64Bit)
        MOV     A,#0x3
        XRL     A,R0
        JNZ     ??MT_AfDataRequest_1
//  192     {
//  193       (void)osal_memcpy(dstAddr.addr.extAddr, pBuf, Z_EXTADDR_LEN);
        ; Setup parameters for call to function osal_memcpy
        MOV     ?V0 + 2,#0x0
        MOV     R0,#?V0 + 0
        LCALL   ?PUSH_XSTACK_I_THREE
        CFI CFA_XSP16 add(XSP16, 31)
        MOV     R4,#0x8
        MOV     R5,#0x0
        MOV     A,#0x5
        LCALL   ?XSTACK_DISP0_8
        MOV     R2,DPL
        MOV     R3,DPH
        LCALL   ??osal_memcpy?relay
        MOV     A,#0x3
        LCALL   ?DEALLOC_XSTACK8
        CFI CFA_XSP16 add(XSP16, 28)
        SJMP    ??MT_AfDataRequest_2
//  194     }
//  195     else
//  196     {
//  197       dstAddr.addr.shortAddr = BUILD_UINT16(pBuf[0], pBuf[1]);
??MT_AfDataRequest_1:
        MOV     DPL,?V0 + 4
        MOV     DPH,?V0 + 5
        MOVX    A,@DPTR
        MOV     R2,A
        INC     DPTR
        MOVX    A,@DPTR
        MOV     R1,A
        MOV     A,R2
        MOV     R0,A
        MOV     A,#0x2
        LCALL   ?XSTACK_DISP0_8
        MOV     A,R0
        MOVX    @DPTR,A
        INC     DPTR
        MOV     A,R1
        MOVX    @DPTR,A
//  198     }
//  199     pBuf += Z_EXTADDR_LEN;
??MT_AfDataRequest_2:
        MOV     A,?V0 + 4
        ADD     A,#0x8
        MOV     ?V0 + 4,A
        MOV     A,?V0 + 5
        ADDC    A,#0x0
        MOV     ?V0 + 5,A
//  200 
//  201     dstAddr.endPoint = *pBuf++;
        MOV     DPL,?V0 + 4
        MOV     DPH,A
        MOVX    A,@DPTR
        PUSH    A
        CFI CFA_SP SP+-1
        MOV     A,#0xb
        LCALL   ?XSTACK_DISP0_8
        POP     A
        CFI CFA_SP SP+0
        MOVX    @DPTR,A
        MOV     DPL,?V0 + 4
        MOV     DPH,?V0 + 5
        INC     DPTR
        MOV     ?V0 + 4,DPL
        MOV     ?V0 + 5,DPH
//  202     dstAddr.panId = BUILD_UINT16(pBuf[0], pBuf[1]);
        MOVX    A,@DPTR
        MOV     R2,A
        INC     DPTR
        MOVX    A,@DPTR
        MOV     R1,A
        MOV     A,R2
        MOV     R0,A
        MOV     A,#0xc
        LCALL   ?XSTACK_DISP0_8
        MOV     A,R0
        MOVX    @DPTR,A
        INC     DPTR
        MOV     A,R1
        MOVX    @DPTR,A
//  203     pBuf += 2;
        MOV     A,?V0 + 4
        ADD     A,#0x2
        MOV     ?V0 + 4,A
        MOV     A,?V0 + 5
        ADDC    A,#0x0
        MOV     ?V0 + 5,A
        SJMP    ??MT_AfDataRequest_3
//  204   }
//  205   else
//  206   {
//  207     /* Destination address */
//  208     dstAddr.addrMode = afAddr16Bit;
??MT_AfDataRequest_0:
        MOV     A,#0xa
        LCALL   ?XSTACK_DISP0_8
        MOV     A,#0x2
        MOVX    @DPTR,A
//  209     dstAddr.addr.shortAddr = BUILD_UINT16(pBuf[0], pBuf[1]);
        MOV     DPL,?V0 + 4
        MOV     DPH,?V0 + 5
        MOVX    A,@DPTR
        MOV     R2,A
        MOV     DPL,?V0 + 0
        MOV     DPH,?V0 + 1
        MOVX    A,@DPTR
        MOV     R1,A
        MOV     A,R2
        MOV     R0,A
        MOV     A,#0x2
        LCALL   ?XSTACK_DISP0_8
        MOV     A,R0
        MOVX    @DPTR,A
        INC     DPTR
        MOV     A,R1
        MOVX    @DPTR,A
//  210     pBuf += 2;
        MOV     A,?V0 + 4
        ADD     A,#0x2
        MOV     ?V0 + 4,A
        MOV     A,?V0 + 5
        ADDC    A,#0x0
        MOV     ?V0 + 5,A
//  211 
//  212     /* Destination endpoint */
//  213     dstAddr.endPoint = *pBuf++;
        MOV     DPL,?V0 + 4
        MOV     DPH,A
        MOVX    A,@DPTR
        PUSH    A
        CFI CFA_SP SP+-1
        MOV     A,#0xb
        LCALL   ?XSTACK_DISP0_8
        POP     A
        CFI CFA_SP SP+0
        MOVX    @DPTR,A
        MOV     DPL,?V0 + 4
        MOV     DPH,?V0 + 5
        INC     DPTR
        MOV     ?V0 + 4,DPL
        MOV     ?V0 + 5,DPH
//  214     dstAddr.panId = 0;
        MOV     A,#0xc
        LCALL   ?XSTACK_DISP0_8
        CLR     A
        MOVX    @DPTR,A
        INC     DPTR
        MOVX    @DPTR,A
//  215   }
//  216 
//  217   /* Source endpoint */
//  218   srcEP = *pBuf++;
??MT_AfDataRequest_3:
        MOV     DPL,?V0 + 4
        MOV     DPH,?V0 + 5
        MOVX    A,@DPTR
        MOV     R1,A
        INC     DPTR
        MOV     ?V0 + 4,DPL
        MOV     ?V0 + 5,DPH
//  219   epDesc = afFindEndPointDesc( srcEP );
        ; Setup parameters for call to function afFindEndPointDesc
        LCALL   ??afFindEndPointDesc?relay
        MOV     ?V0 + 0,R2
        MOV     ?V0 + 1,R3
        MOV     R4,?V0 + 0
        MOV     R5,?V0 + 1
//  220 
//  221   /* ClusterId */
//  222   cId = BUILD_UINT16(pBuf[0], pBuf[1]);
        MOV     DPL,?V0 + 4
        MOV     DPH,?V0 + 5
        MOVX    A,@DPTR
        MOV     R2,A
        INC     DPTR
        MOVX    A,@DPTR
        MOV     R1,A
        MOV     A,R2
        ADD     A,#0x0
        MOV     ?V0 + 2,A
        CLR     A
        ADDC    A,R1
        MOV     ?V0 + 3,A
//  223   pBuf +=2;
        MOV     A,?V0 + 4
        ADD     A,#0x2
        MOV     ?V0 + 4,A
        MOV     A,?V0 + 5
        ADDC    A,#0x0
        MOV     ?V0 + 5,A
//  224 
//  225   /* TransId */
//  226   transId = *pBuf++;
        MOV     DPL,?V0 + 4
        MOV     DPH,A
        MOVX    A,@DPTR
        PUSH    A
        CFI CFA_SP SP+-1
        MOV     A,#0x1
        LCALL   ?XSTACK_DISP0_8
        POP     A
        CFI CFA_SP SP+0
        MOVX    @DPTR,A
        MOV     DPL,?V0 + 4
        MOV     DPH,?V0 + 5
        INC     DPTR
//  227 
//  228   /* TxOption */
//  229   txOpts = *pBuf++;
        MOVX    A,@DPTR
        MOV     R1,A
        INC     DPTR
//  230 
//  231   /* Radius */
//  232   radius = *pBuf++;
        MOVX    A,@DPTR
        MOV     R0,A
        INC     DPTR
//  233 
//  234   /* Length */
//  235   tempLen = *pBuf++;
        MOVX    A,@DPTR
        MOV     R2,A
        INC     DPTR
        MOV     ?V0 + 4,DPL
        MOV     ?V0 + 5,DPH
//  236 
//  237   if ( epDesc == NULL )
        MOV     A,R4
        ORL     A,R5
        JNZ     ??MT_AfDataRequest_4
//  238   {
//  239     retValue = afStatus_INVALID_PARAMETER;
        MOV     DPL,?XSP + 0
        MOV     DPH,?XSP + 1
        MOV     A,#0x2
        SJMP    ??MT_AfDataRequest_5
//  240   }
//  241   else
//  242   {
//  243     retValue = AF_DataRequest( &dstAddr, epDesc, cId, tempLen, pBuf, &transId, txOpts, radius );
??MT_AfDataRequest_4:
        ; Setup parameters for call to function AF_DataRequest
        MOV     A,R0
        MOV     ?V0 + 0,A
        MOV     R0,#?V0 + 0
        LCALL   ?PUSH_XSTACK_I_ONE
        CFI CFA_XSP16 add(XSP16, 29)
        MOV     A,#0x2
        LCALL   ?XSTACK_DISP0_8
        MOV     ?V0 + 0,DPL
        MOV     ?V0 + 1,DPH
        MOV     R0,#?V0 + 0
        LCALL   ?PUSH_XSTACK_I_TWO
        CFI CFA_XSP16 add(XSP16, 31)
        MOV     R0,#?V0 + 4
        LCALL   ?PUSH_XSTACK_I_TWO
        CFI CFA_XSP16 add(XSP16, 33)
        MOV     ?V0 + 0,R2
        MOV     ?V0 + 1,#0x0
        MOV     R0,#?V0 + 0
        LCALL   ?PUSH_XSTACK_I_TWO
        CFI CFA_XSP16 add(XSP16, 35)
        MOV     R0,#?V0 + 2
        LCALL   ?PUSH_XSTACK_I_TWO
        CFI CFA_XSP16 add(XSP16, 37)
        MOV     A,#0xb
        LCALL   ?XSTACK_DISP0_8
        MOV     R2,DPL
        MOV     R3,DPH
        LCALL   ??AF_DataRequest?relay
        MOV     A,#0x9
        LCALL   ?DEALLOC_XSTACK8
        CFI CFA_XSP16 add(XSP16, 28)
        MOV     A,R1
        MOV     DPL,?XSP + 0
        MOV     DPH,?XSP + 1
??MT_AfDataRequest_5:
        MOVX    @DPTR,A
//  244   }
//  245 
//  246   if (MT_RPC_CMD_SREQ == (cmd0 & MT_RPC_CMD_TYPE_MASK))
        MOV     A,#-0x20
        ANL     A,R7
        XRL     A,#0x20
        JNZ     ??MT_AfDataRequest_6
//  247   {
//  248     MT_BuildAndSendZToolResponse(((uint8)MT_RPC_CMD_SRSP|(uint8)MT_RPC_SYS_AF), cmd1, 1, &retValue);
        ; Setup parameters for call to function MT_BuildAndSendZToolResponse
        MOV     R4,DPL
        MOV     R5,DPH
        MOV     R3,#0x1
        MOV     A,R6
        MOV     R2,A
        MOV     R1,#0x64
        LCALL   ??MT_BuildAndSendZToolResponse?relay
//  249   }
//  250 }
??MT_AfDataRequest_6:
        MOV     A,#0xe
        LCALL   ?DEALLOC_XSTACK8
        CFI CFA_XSP16 add(XSP16, 14)
        MOV     R7,#0x6
        LJMP    ?BANKED_LEAVE_XDATA
        CFI EndBlock cfiBlock2
//  251 
//  252 
//  253 #if defined ( ZIGBEE_SOURCE_ROUTING )
//  254 
//  255 /***************************************************************************************************
//  256  * @fn      MT_AfDataRequestSrcRtg
//  257  *
//  258  * @brief   Process AF Register command
//  259  *
//  260  * @param   pBuf - pointer to the received buffer
//  261  *
//  262  * @return  none
//  263  ***************************************************************************************************/
//  264 void MT_AfDataRequestSrcRtg(uint8 *pBuf)
//  265 {
//  266   uint8 cmdId, dataLen = 0;
//  267   uint8 retValue = ZFailure;
//  268   endPointDesc_t *epDesc;
//  269   byte transId;
//  270   afAddrType_t dstAddr;
//  271   cId_t cId;
//  272   byte txOpts, radius, srcEP, relayCnt;
//  273   uint16 *pRelayList;
//  274   uint8 i;
//  275 
//  276   /* parse header */
//  277   cmdId = pBuf[MT_RPC_POS_CMD1];
//  278   pBuf += MT_RPC_FRAME_HDR_SZ;
//  279 
//  280   /* Destination address */
//  281   /* Initialize the panID field to zero to avoid inter-pan */
//  282   osal_memset( &dstAddr, 0, sizeof(afAddrType_t) ); 
//  283   dstAddr.addrMode = afAddr16Bit;
//  284   dstAddr.addr.shortAddr = BUILD_UINT16(pBuf[0], pBuf[1]);
//  285   pBuf += 2;
//  286 
//  287   /* Destination endpoint */
//  288   dstAddr.endPoint = *pBuf++;
//  289 
//  290   /* Source endpoint */
//  291   srcEP = *pBuf++;
//  292   epDesc = afFindEndPointDesc( srcEP );
//  293 
//  294   /* ClusterId */
//  295   cId = BUILD_UINT16(pBuf[0], pBuf[1]);
//  296   pBuf +=2;
//  297 
//  298   /* TransId */
//  299   transId = *pBuf++;
//  300 
//  301   /* TxOption */
//  302   txOpts = *pBuf++;
//  303 
//  304   /* Radius */
//  305   radius = *pBuf++;
//  306   
//  307   /* Source route relay count */
//  308   relayCnt = *pBuf++;
//  309   
//  310   /* Convert the source route relay list */
//  311   if( (pRelayList = osal_mem_alloc( relayCnt * sizeof( uint16 ))) != NULL )
//  312   {
//  313     for( i = 0; i < relayCnt; i++ )
//  314     {
//  315       pRelayList[i]  = BUILD_UINT16( pBuf[0], pBuf[1] );
//  316       pBuf += 2;
//  317     }
//  318   
//  319     /* Data payload Length */
//  320     dataLen = *pBuf++;
//  321 
//  322     if ( epDesc == NULL )
//  323     {
//  324       retValue = afStatus_INVALID_PARAMETER;
//  325     }
//  326     else
//  327     {
//  328       retValue = AF_DataRequestSrcRtg( &dstAddr, epDesc, cId, dataLen, pBuf, 
//  329                                      &transId, txOpts, radius, relayCnt, pRelayList );
//  330     }
//  331     
//  332     /* Free the memory allocated */
//  333     osal_mem_free( pRelayList );
//  334   }
//  335   else
//  336   {
//  337     retValue = afStatus_MEM_FAIL;
//  338   }
//  339     
//  340 
//  341   /* Build and send back the response */
//  342   MT_BuildAndSendZToolResponse(((uint8)MT_RPC_CMD_SRSP | (uint8)MT_RPC_SYS_AF), cmdId, 1, &retValue);
//  343 }
//  344 #endif
//  345 
//  346 #if defined INTER_PAN
//  347 /***************************************************************************************************
//  348  * @fn      MT_AfInterPanCtl
//  349  *
//  350  * @brief   Process the AF Inter Pan control command.
//  351  *
//  352  * @param   pBuf - pointer to the received buffer
//  353  *
//  354  * @return  none
//  355  ***************************************************************************************************/
//  356 static void MT_AfInterPanCtl(uint8 *pBuf)
//  357 {
//  358   uint8 cmd, rtrn;
//  359   uint16 panId;
//  360   endPointDesc_t *pEP;
//  361   
//  362   cmd = pBuf[MT_RPC_POS_CMD1];
//  363   pBuf += MT_RPC_FRAME_HDR_SZ;
//  364 
//  365   switch (*pBuf++)  // Inter-pan request parameter.
//  366   {
//  367   case InterPanClr:
//  368     rtrn = StubAPS_SetIntraPanChannel();           // Switch channel back to the NIB channel.
//  369     break;
//  370 
//  371   case InterPanSet:
//  372     rtrn = StubAPS_SetInterPanChannel(*pBuf);      // Set channel for inter-pan communication.
//  373     break;
//  374 
//  375   case InterPanReg:
//  376     if ((pEP = afFindEndPointDesc(*pBuf)))
//  377     {
//  378       StubAPS_RegisterApp(pEP);
//  379       rtrn = SUCCESS;
//  380     }
//  381     else
//  382     {
//  383       rtrn = FAILURE;
//  384     }
//  385     break;
//  386 
//  387   case InterPanChk:
//  388     panId = BUILD_UINT16(pBuf[0], pBuf[1]);
//  389     rtrn = (StubAPS_InterPan(panId, pBuf[2])) ? ZSuccess : ZFailure;
//  390     break;
//  391 
//  392   default:
//  393     rtrn = afStatus_INVALID_PARAMETER;
//  394     break;
//  395   }
//  396 
//  397   MT_BuildAndSendZToolResponse(((uint8)MT_RPC_CMD_SRSP | (uint8)MT_RPC_SYS_AF), cmd, 1, &rtrn);
//  398 }
//  399 #endif
//  400 
//  401 /***************************************************************************************************
//  402  * @fn      MT_AfDataConfirm
//  403  *
//  404  * @brief   Process
//  405  *
//  406  * @param   pBuf - pointer to the received buffer
//  407  *
//  408  * @return  none
//  409  ***************************************************************************************************/

        RSEG BANKED_CODE:CODE:NOROOT(0)
//  410 void MT_AfDataConfirm(afDataConfirm_t *pMsg)
MT_AfDataConfirm:
        CFI Block cfiBlock3 Using cfiCommon0
        CFI Function MT_AfDataConfirm
        CODE
//  411 {
        FUNCALL MT_AfDataConfirm, MT_BuildAndSendZToolResponse
        LOCFRAME ISTACK, 2, STACK
        LOCFRAME PSTACK, 0, STACK
        LOCFRAME XSTACK, 3, STACK
        LOCFRAME IOVERLAY, 0, STATIC
        LOCFRAME DOVERLAY, 0, STATIC
        ARGFRAME ISTACK, 2, STACK
        ARGFRAME PSTACK, 0, STACK
        ARGFRAME XSTACK, 3, STACK
        ARGFRAME IOVERLAY, 0, STATIC
        ARGFRAME DOVERLAY, 0, STATIC
        PUSH    DPL
        CFI DPL0 Frame(CFA_SP, 4)
        CFI CFA_SP SP+-4
        PUSH    DPH
        CFI DPH0 Frame(CFA_SP, 5)
        CFI CFA_SP SP+-5
        ; Saved register size: 2
        ; Auto size: 3
        MOV     A,#-0x3
        LCALL   ?ALLOC_XSTACK8
        CFI CFA_XSP16 add(XSP16, 3)
//  412   uint8 retArray[3];
//  413 
//  414   retArray[0] = pMsg->hdr.status;
        MOV     DPL,R2
        MOV     DPH,R3
        INC     DPTR
        MOVX    A,@DPTR
        MOV     DPL,?XSP + 0
        MOV     DPH,?XSP + 1
        MOVX    @DPTR,A
//  415   retArray[1] = pMsg->endpoint;
        MOV     DPL,R2
        MOV     DPH,R3
        INC     DPTR
        INC     DPTR
        MOVX    A,@DPTR
        PUSH    A
        CFI CFA_SP SP+-6
        MOV     A,#0x1
        LCALL   ?XSTACK_DISP0_8
        POP     A
        CFI CFA_SP SP+-5
        MOVX    @DPTR,A
//  416   retArray[2] = pMsg->transID;
        MOV     DPL,R2
        MOV     DPH,R3
        INC     DPTR
        INC     DPTR
        INC     DPTR
        MOVX    A,@DPTR
        PUSH    A
        CFI CFA_SP SP+-6
        MOV     A,#0x2
        LCALL   ?XSTACK_DISP0_8
        POP     A
        CFI CFA_SP SP+-5
        MOVX    @DPTR,A
//  417 
//  418   /* Build and send back the response */
//  419   MT_BuildAndSendZToolResponse(((uint8)MT_RPC_CMD_AREQ | (uint8)MT_RPC_SYS_AF), MT_AF_DATA_CONFIRM, 3, retArray);
        ; Setup parameters for call to function MT_BuildAndSendZToolResponse
        MOV     DPL,?XSP + 0
        MOV     DPH,?XSP + 1
        MOV     R4,DPL
        MOV     R5,DPH
        MOV     R3,#0x3
        MOV     R2,#-0x80
        MOV     R1,#0x44
        LCALL   ??MT_BuildAndSendZToolResponse?relay
//  420 }
        MOV     A,#0x3
        LCALL   ?DEALLOC_XSTACK8
        CFI CFA_XSP16 XSP16+0
        POP     DPH
        CFI DPH0 SameValue
        CFI CFA_SP SP+-4
        POP     DPL
        CFI DPL0 SameValue
        CFI CFA_SP SP+-3
        LJMP    ?BRET
        CFI EndBlock cfiBlock3
//  421 
//  422 /***************************************************************************************************
//  423  * @fn          MT_AfIncomingMsg
//  424  *
//  425  * @brief       Process the callback subscription for AF Incoming data.
//  426  *
//  427  * @param       pkt - Incoming AF data.
//  428  *
//  429  * @return      none
//  430  ***************************************************************************************************/

        RSEG BANKED_CODE:CODE:NOROOT(0)
//  431 void MT_AfIncomingMsg(afIncomingMSGPacket_t *pMsg)
MT_AfIncomingMsg:
        CFI Block cfiBlock4 Using cfiCommon0
        CFI Function MT_AfIncomingMsg
        CODE
//  432 {
        FUNCALL MT_AfIncomingMsg, osal_mem_alloc
        LOCFRAME ISTACK, 0, STACK
        LOCFRAME PSTACK, 0, STACK
        LOCFRAME XSTACK, 19, STACK
        LOCFRAME IOVERLAY, 0, STATIC
        LOCFRAME DOVERLAY, 0, STATIC
        ARGFRAME ISTACK, 0, STACK
        ARGFRAME PSTACK, 0, STACK
        ARGFRAME XSTACK, 19, STACK
        ARGFRAME IOVERLAY, 0, STATIC
        ARGFRAME DOVERLAY, 0, STATIC
        FUNCALL MT_AfIncomingMsg, osal_memcpy
        LOCFRAME ISTACK, 0, STACK
        LOCFRAME PSTACK, 0, STACK
        LOCFRAME XSTACK, 22, STACK
        LOCFRAME IOVERLAY, 0, STATIC
        LOCFRAME DOVERLAY, 0, STATIC
        ARGFRAME ISTACK, 0, STACK
        ARGFRAME PSTACK, 0, STACK
        ARGFRAME XSTACK, 22, STACK
        ARGFRAME IOVERLAY, 0, STATIC
        ARGFRAME DOVERLAY, 0, STATIC
        FUNCALL MT_AfIncomingMsg, osal_memcpy
        LOCFRAME ISTACK, 0, STACK
        LOCFRAME PSTACK, 0, STACK
        LOCFRAME XSTACK, 22, STACK
        LOCFRAME IOVERLAY, 0, STATIC
        LOCFRAME DOVERLAY, 0, STATIC
        ARGFRAME ISTACK, 0, STACK
        ARGFRAME PSTACK, 0, STACK
        ARGFRAME XSTACK, 22, STACK
        ARGFRAME IOVERLAY, 0, STATIC
        ARGFRAME DOVERLAY, 0, STATIC
        FUNCALL MT_AfIncomingMsg, MT_BuildAndSendZToolResponse
        LOCFRAME ISTACK, 0, STACK
        LOCFRAME PSTACK, 0, STACK
        LOCFRAME XSTACK, 19, STACK
        LOCFRAME IOVERLAY, 0, STATIC
        LOCFRAME DOVERLAY, 0, STATIC
        ARGFRAME ISTACK, 0, STACK
        ARGFRAME PSTACK, 0, STACK
        ARGFRAME XSTACK, 19, STACK
        ARGFRAME IOVERLAY, 0, STATIC
        ARGFRAME DOVERLAY, 0, STATIC
        FUNCALL MT_AfIncomingMsg, osal_mem_free
        LOCFRAME ISTACK, 0, STACK
        LOCFRAME PSTACK, 0, STACK
        LOCFRAME XSTACK, 19, STACK
        LOCFRAME IOVERLAY, 0, STATIC
        LOCFRAME DOVERLAY, 0, STATIC
        ARGFRAME ISTACK, 0, STACK
        ARGFRAME PSTACK, 0, STACK
        ARGFRAME XSTACK, 19, STACK
        ARGFRAME IOVERLAY, 0, STATIC
        ARGFRAME DOVERLAY, 0, STATIC
        MOV     A,#-0x13
        LCALL   ?BANKED_ENTER_XDATA
        CFI DPH0 load(1, XDATA, add(CFA_XSP16, literal(-1)))
        CFI DPL0 load(1, XDATA, add(CFA_XSP16, literal(-2)))
        CFI ?BRET_EXT load(1, XDATA, add(CFA_XSP16, literal(-3)))
        CFI ?RET_HIGH load(1, XDATA, add(CFA_XSP16, literal(-4)))
        CFI ?RET_LOW load(1, XDATA, add(CFA_XSP16, literal(-5)))
        CFI R7 load(1, XDATA, add(CFA_XSP16, literal(-6)))
        CFI V10 load(1, XDATA, add(CFA_XSP16, literal(-7)))
        CFI V9 load(1, XDATA, add(CFA_XSP16, literal(-8)))
        CFI V8 load(1, XDATA, add(CFA_XSP16, literal(-9)))
        CFI V7 load(1, XDATA, add(CFA_XSP16, literal(-10)))
        CFI V6 load(1, XDATA, add(CFA_XSP16, literal(-11)))
        CFI V5 load(1, XDATA, add(CFA_XSP16, literal(-12)))
        CFI V4 load(1, XDATA, add(CFA_XSP16, literal(-13)))
        CFI V3 load(1, XDATA, add(CFA_XSP16, literal(-14)))
        CFI V2 load(1, XDATA, add(CFA_XSP16, literal(-15)))
        CFI V1 load(1, XDATA, add(CFA_XSP16, literal(-16)))
        CFI V0 load(1, XDATA, add(CFA_XSP16, literal(-17)))
        CFI VB load(1, XDATA, add(CFA_XSP16, literal(-18)))
        CFI R6 load(1, XDATA, add(CFA_XSP16, literal(-19)))
        CFI CFA_SP SP+0
        CFI CFA_XSP16 add(XSP16, 19)
        ; Saved register size: 19
        ; Auto size: 0
        MOV     ?V0 + 0,R2
        MOV     ?V0 + 1,R3
//  433   uint8 dataLen = pMsg->cmd.DataLength;  /* Length of the data section in the response packet */
        MOV     A,R2
        ADD     A,#0x1f
        MOV     DPL,A
        MOV     A,R3
        ADDC    A,#0x0
        MOV     DPH,A
        MOVX    A,@DPTR
        MOV     ?V0 + 9,A
//  434   uint8 respLen = 17 + dataLen;          /* Length of the whole response packet */
        MOV     A,#0x11
        ADD     A,?V0 + 9
        MOV     ?V0 + 10,A
//  435   uint8 cmd = MT_AF_INCOMING_MSG;
        MOV     ?V0 + 8,#-0x7f
//  436   uint8 *pRsp, *tempPtr;
//  437 
//  438 #if defined INTER_PAN
//  439   if (StubAPS_InterPan(pMsg->srcAddr.panId, pMsg->srcAddr.endPoint))
//  440   {
//  441     cmd = MT_AF_INCOMING_MSG_EXT;
//  442   }
//  443   else
//  444 #endif
//  445   if (pMsg->srcAddr.addrMode == afAddr64Bit)
        MOV     A,R2
        ADD     A,#0xe
        MOV     ?V0 + 4,A
        MOV     A,R3
        ADDC    A,#0x0
        MOV     ?V0 + 5,A
        MOV     DPL,?V0 + 4
        MOV     DPH,A
        MOVX    A,@DPTR
        XRL     A,#0x3
        JNZ     ??MT_AfIncomingMsg_0
//  446   {
//  447     cmd = MT_AF_INCOMING_MSG_EXT;
        MOV     ?V0 + 8,#-0x7e
//  448   }
//  449 
//  450   if (cmd == MT_AF_INCOMING_MSG_EXT)
??MT_AfIncomingMsg_0:
        MOV     A,#-0x7e
        XRL     A,?V0 + 8
        JNZ     ??MT_AfIncomingMsg_1
//  451   {
//  452     respLen += 9;
        MOV     A,#0x9
        ADD     A,?V0 + 10
        MOV     ?V0 + 10,A
//  453   }
//  454 
//  455   // Attempt to allocate memory for the response packet.
//  456   if ((pRsp = osal_mem_alloc(respLen)) == NULL)
??MT_AfIncomingMsg_1:
        ; Setup parameters for call to function osal_mem_alloc
        MOV     ?V0 + 2,?V0 + 10
        MOV     R2,?V0 + 2
        MOV     R3,#0x0
        LCALL   ??osal_mem_alloc?relay
        MOV     ?V0 + 2,R2
        MOV     ?V0 + 3,R3
        MOV     A,R2
        ORL     A,?V0 + 3
        JNZ     $+5
        LJMP    ??MT_AfIncomingMsg_2 & 0xFFFF
//  457   {
//  458     return;
//  459   }
//  460   tempPtr = pRsp;
        MOV     R6,?V0 + 2
        MOV     R7,?V0 + 3
//  461 
//  462   /* Fill in the data */
//  463 
//  464   /* Group ID */
//  465   *tempPtr++ = LO_UINT16(pMsg->groupId);
        MOV     A,?V0 + 0
        ADD     A,#0x2
        MOV     R0,A
        MOV     A,?V0 + 1
        ADDC    A,#0x0
        MOV     R1,A
        MOV     DPL,R0
        MOV     DPH,R1
        MOVX    A,@DPTR
        MOV     DPL,R6
        MOV     DPH,R7
        MOVX    @DPTR,A
        INC     DPTR
        MOV     R6,DPL
        MOV     R7,DPH
//  466   *tempPtr++ = HI_UINT16(pMsg->groupId);
        MOV     DPL,R0
        MOV     DPH,R1
        INC     DPTR
        MOVX    A,@DPTR
        MOV     DPL,R6
        MOV     DPH,R7
        MOVX    @DPTR,A
        INC     DPTR
        INC     R6
        MOV     R7,DPH
//  467 
//  468   /* Cluster ID */
//  469   *tempPtr++ = LO_UINT16(pMsg->clusterId);
        MOV     A,?V0 + 0
        ADD     A,#0x4
        INC     R0
        INC     R0
        MOV     A,?V0 + 1
        ADDC    A,#0x0
        MOV     R1,A
        MOV     DPL,R0
        MOV     DPH,R1
        MOVX    A,@DPTR
        MOV     DPL,R6
        MOV     DPH,R7
        MOVX    @DPTR,A
        INC     DPTR
        INC     R6
        MOV     R7,DPH
//  470   *tempPtr++ = HI_UINT16(pMsg->clusterId);
        MOV     DPL,R0
        MOV     DPH,R1
        INC     DPTR
        MOVX    A,@DPTR
        MOV     DPL,R6
        MOV     DPH,R7
        MOVX    @DPTR,A
        INC     DPTR
        INC     R6
        MOV     R7,DPH
//  471 
//  472   if (cmd == MT_AF_INCOMING_MSG_EXT)
        INC     DPTR
        MOV     R1,DPH
        MOV     A,?V0 + 0
        ADD     A,#0x6
        MOV     R2,A
        MOV     A,?V0 + 1
        ADDC    A,#0x0
        MOV     R3,A
        MOV     A,#-0x7e
        XRL     A,?V0 + 8
        JNZ     ??MT_AfIncomingMsg_3
//  473   {
//  474     *tempPtr++ = pMsg->srcAddr.addrMode;
        MOV     DPL,?V0 + 4
        MOV     DPH,?V0 + 5
        MOVX    A,@DPTR
        MOV     DPL,R6
        MOV     DPH,R7
        MOVX    @DPTR,A
        INC     R6
        MOV     A,R1
        MOV     R7,A
//  475 
//  476     if (pMsg->srcAddr.addrMode == afAddr64Bit)
        MOV     DPL,?V0 + 4
        MOV     DPH,?V0 + 5
        MOVX    A,@DPTR
        XRL     A,#0x3
        JNZ     ??MT_AfIncomingMsg_4
//  477     {
//  478       (void)osal_memcpy(tempPtr, pMsg->srcAddr.addr.extAddr, Z_EXTADDR_LEN);
        ; Setup parameters for call to function osal_memcpy
        MOV     ?V0 + 4,R2
        MOV     ?V0 + 5,R3
        MOV     ?V0 + 6,#0x0
        MOV     R0,#?V0 + 4
        LCALL   ?PUSH_XSTACK_I_THREE
        CFI CFA_XSP16 add(XSP16, 22)
        MOV     R4,#0x8
        MOV     R5,#0x0
        MOV     A,R6
        MOV     R2,A
        MOV     A,R7
        MOV     R3,A
        LCALL   ??osal_memcpy?relay
        MOV     A,#0x3
        LCALL   ?DEALLOC_XSTACK8
        CFI CFA_XSP16 add(XSP16, 19)
        SJMP    ??MT_AfIncomingMsg_5
//  479     }
//  480     else
//  481     {
//  482       tempPtr[0] = LO_UINT16(pMsg->srcAddr.addr.shortAddr);
??MT_AfIncomingMsg_4:
        MOV     DPL,R2
        MOV     DPH,R3
        MOVX    A,@DPTR
        MOV     DPL,R6
        MOV     DPH,R7
        MOVX    @DPTR,A
//  483       tempPtr[1] = HI_UINT16(pMsg->srcAddr.addr.shortAddr);
        MOV     DPL,R2
        MOV     DPH,R3
        INC     DPTR
        MOVX    A,@DPTR
        MOV     DPL,R6
        MOV     DPH,R7
        INC     DPTR
        MOVX    @DPTR,A
//  484     }
//  485     tempPtr += Z_EXTADDR_LEN;
??MT_AfIncomingMsg_5:
        MOV     A,R6
        ADD     A,#0x8
        MOV     R6,A
        MOV     A,R7
        ADDC    A,#0x0
        MOV     R7,A
//  486 
//  487     *tempPtr++ = pMsg->srcAddr.endPoint;
        MOV     A,?V0 + 0
        ADD     A,#0xf
        MOV     DPL,A
        MOV     A,?V0 + 1
        ADDC    A,#0x0
        MOV     DPH,A
        MOVX    A,@DPTR
        MOV     DPL,R6
        MOV     DPH,R7
        MOVX    @DPTR,A
        INC     DPTR
//  488 #if defined INTER_PAN
//  489     *tempPtr++ = LO_UINT16(pMsg->srcAddr.panId);
//  490     *tempPtr++ = HI_UINT16(pMsg->srcAddr.panId);
//  491 #else
//  492     *tempPtr++ = 0;
        CLR     A
        MOVX    @DPTR,A
        INC     DPTR
//  493     *tempPtr++ = 0;
        MOVX    @DPTR,A
        INC     DPTR
        INC     R6
        INC     R6
        SJMP    ??MT_AfIncomingMsg_6
//  494 #endif
//  495   }
//  496   else
//  497   {
//  498     /* Source Address */
//  499     *tempPtr++ = LO_UINT16(pMsg->srcAddr.addr.shortAddr);
??MT_AfIncomingMsg_3:
        MOV     DPL,R2
        MOV     DPH,R3
        MOVX    A,@DPTR
        MOV     DPL,R6
        MOV     DPH,R7
        MOVX    @DPTR,A
        INC     R6
        MOV     A,R1
        MOV     R7,A
//  500     *tempPtr++ = HI_UINT16(pMsg->srcAddr.addr.shortAddr);
        MOV     DPL,R2
        MOV     DPH,R3
        INC     DPTR
        MOVX    A,@DPTR
        MOV     DPL,R6
        MOV     DPH,R7
        MOVX    @DPTR,A
        INC     DPTR
        INC     R6
        MOV     R7,DPH
//  501 
//  502     /* Source EP */
//  503     *tempPtr++ = pMsg->srcAddr.endPoint;
        MOV     A,?V0 + 0
        ADD     A,#0xf
        MOV     DPL,A
        MOV     A,?V0 + 1
        ADDC    A,#0x0
        MOV     DPH,A
        MOVX    A,@DPTR
        MOV     DPL,R6
        MOV     DPH,R7
        MOVX    @DPTR,A
        INC     DPTR
??MT_AfIncomingMsg_6:
        INC     R6
        MOV     R7,DPH
//  504   }
//  505 
//  506   /* Destination EP */
//  507   *tempPtr++ = pMsg->endPoint;
        MOV     A,?V0 + 0
        ADD     A,#0x14
        MOV     DPL,A
        MOV     A,?V0 + 1
        ADDC    A,#0x0
        MOV     DPH,A
        MOVX    A,@DPTR
        MOV     DPL,R6
        MOV     DPH,R7
        MOVX    @DPTR,A
        INC     DPTR
        MOV     R6,DPL
        MOV     R7,DPH
//  508 
//  509   /* WasBroadCast */
//  510   *tempPtr++ = pMsg->wasBroadcast;
        MOV     A,?V0 + 0
        ADD     A,#0x15
        MOV     DPL,A
        MOV     A,?V0 + 1
        ADDC    A,#0x0
        MOV     DPH,A
        MOVX    A,@DPTR
        MOV     DPL,R6
        MOV     DPH,R7
        MOVX    @DPTR,A
        INC     DPTR
        INC     R6
        MOV     R7,DPH
//  511 
//  512   /* LinkQuality */
//  513   *tempPtr++ = pMsg->LinkQuality;
        MOV     A,?V0 + 0
        ADD     A,#0x16
        MOV     DPL,A
        MOV     A,?V0 + 1
        ADDC    A,#0x0
        MOV     DPH,A
        MOVX    A,@DPTR
        MOV     DPL,R6
        MOV     DPH,R7
        MOVX    @DPTR,A
        INC     DPTR
        INC     R6
        MOV     R7,DPH
//  514 
//  515   /* SecurityUse */
//  516   *tempPtr++ = pMsg->SecurityUse;
        MOV     A,?V0 + 0
        ADD     A,#0x19
        MOV     DPL,A
        MOV     A,?V0 + 1
        ADDC    A,#0x0
        MOV     DPH,A
        MOVX    A,@DPTR
        MOV     DPL,R6
        MOV     DPH,R7
        MOVX    @DPTR,A
        INC     DPTR
        INC     R6
        MOV     R7,DPH
//  517 
//  518   /* Timestamp */
//  519   *tempPtr++ = BREAK_UINT32(pMsg->timestamp, 0);
        MOV     A,?V0 + 0
        ADD     A,#0x1a
        MOV     R2,A
        MOV     A,?V0 + 1
        ADDC    A,#0x0
        MOV     R3,A
        MOV     DPL,R2
        MOV     DPH,R3
        MOV     R0,#?V0 + 4
        LCALL   ?L_MOV_X
        MOV     DPL,R6
        MOV     DPH,R7
        MOV     A,?V0 + 4
        MOVX    @DPTR,A
        INC     DPTR
        INC     R6
        MOV     R7,DPH
//  520   *tempPtr++ = BREAK_UINT32(pMsg->timestamp, 1);
        MOV     DPL,R2
        MOV     DPH,R3
        MOV     R0,#?V0 + 4
        LCALL   ?L_MOV_X
        MOV     A,?V0 + 5
        MOV     DPL,R6
        MOV     DPH,R7
        MOVX    @DPTR,A
        INC     DPTR
        INC     R6
        MOV     R7,DPH
//  521   *tempPtr++ = BREAK_UINT32(pMsg->timestamp, 2);
        MOV     DPL,R2
        MOV     DPH,R3
        MOV     R0,#?V0 + 4
        LCALL   ?L_MOV_X
        MOV     A,#0x10
        MOV     R0,#?V0 + 4
        LCALL   ?UL_SHR
        MOV     DPL,R6
        MOV     DPH,R7
        MOV     A,?V0 + 4
        MOVX    @DPTR,A
        INC     DPTR
        INC     R6
        MOV     R7,DPH
//  522   *tempPtr++ = BREAK_UINT32(pMsg->timestamp, 3);
        MOV     DPL,R2
        MOV     DPH,R3
        MOV     R0,#?V0 + 4
        LCALL   ?L_MOV_X
        MOV     A,#0x18
        MOV     R0,#?V0 + 4
        LCALL   ?UL_SHR
        MOV     DPL,R6
        MOV     DPH,R7
        MOV     A,?V0 + 4
        MOVX    @DPTR,A
        INC     DPTR
        INC     R6
        MOV     R7,DPH
//  523 
//  524   /* Transmit Sequence Number */
//  525   *tempPtr++ = pMsg->cmd.TransSeqNumber;
        MOV     A,?V0 + 0
        ADD     A,#0x1e
        MOV     DPL,A
        MOV     A,?V0 + 1
        ADDC    A,#0x0
        MOV     DPH,A
        MOVX    A,@DPTR
        MOV     DPL,R6
        MOV     DPH,R7
        MOVX    @DPTR,A
        INC     DPTR
//  526 
//  527   /* Data Length */
//  528   *tempPtr++ = dataLen;
        MOV     A,?V0 + 9
        MOVX    @DPTR,A
        INC     DPTR
        INC     R6
        INC     R6
        MOV     R7,DPH
//  529 
//  530   /* Data */
//  531   if (dataLen)
        JZ      ??MT_AfIncomingMsg_7
//  532   {
//  533     osal_memcpy(tempPtr, pMsg->cmd.Data, dataLen);
        ; Setup parameters for call to function osal_memcpy
        MOV     A,?V0 + 0
        ADD     A,#0x21
        MOV     DPL,A
        MOV     A,?V0 + 1
        ADDC    A,#0x0
        MOV     DPH,A
        MOVX    A,@DPTR
        MOV     ?V0 + 4,A
        INC     DPTR
        MOVX    A,@DPTR
        MOV     ?V0 + 5,A
        MOV     R0,#?V0 + 4
        LCALL   ?PUSH_XSTACK_I_THREE
        CFI CFA_XSP16 add(XSP16, 22)
        MOV     ?V0 + 0,?V0 + 9
        MOV     R4,?V0 + 0
        MOV     R5,#0x0
        MOV     A,R6
        MOV     R2,A
        MOV     A,R7
        MOV     R3,A
        LCALL   ??osal_memcpy?relay
        MOV     A,#0x3
        LCALL   ?DEALLOC_XSTACK8
        CFI CFA_XSP16 add(XSP16, 19)
//  534   }
//  535 
//  536   /* Build and send back the response */
//  537   MT_BuildAndSendZToolResponse(((uint8)MT_RPC_CMD_AREQ|(uint8)MT_RPC_SYS_AF), cmd, respLen, pRsp);
??MT_AfIncomingMsg_7:
        ; Setup parameters for call to function MT_BuildAndSendZToolResponse
        MOV     R4,?V0 + 2
        MOV     R5,?V0 + 3
        MOV     R3,?V0 + 10
        MOV     R2,?V0 + 8
        MOV     R1,#0x44
        LCALL   ??MT_BuildAndSendZToolResponse?relay
//  538 
//  539   /* Free memory */
//  540   osal_mem_free(pRsp);
        ; Setup parameters for call to function osal_mem_free
        MOV     R2,?V0 + 2
        MOV     R3,?V0 + 3
        LCALL   ??osal_mem_free?relay
//  541 }
??MT_AfIncomingMsg_2:
        MOV     R7,#0xb
        LJMP    ?BANKED_LEAVE_XDATA
        CFI EndBlock cfiBlock4

        RSEG BANK_RELAYS:CODE:REORDER:NOROOT(0)
??MT_AfCommandProcessing?relay:
        LCALL   ?BDISPATCH
        DATA
        DC24    MT_AfCommandProcessing

        RSEG BANK_RELAYS:CODE:REORDER:NOROOT(0)
??MT_AfRegister?relay:
        LCALL   ?BDISPATCH
        DATA
        DC24    MT_AfRegister

        RSEG BANK_RELAYS:CODE:REORDER:NOROOT(0)
??MT_AfDataRequest?relay:
        LCALL   ?BDISPATCH
        DATA
        DC24    MT_AfDataRequest

        RSEG BANK_RELAYS:CODE:REORDER:NOROOT(0)
??MT_AfDataConfirm?relay:
        LCALL   ?BDISPATCH
        DATA
        DC24    MT_AfDataConfirm

        RSEG BANK_RELAYS:CODE:REORDER:NOROOT(0)
??MT_AfIncomingMsg?relay:
        LCALL   ?BDISPATCH
        DATA
        DC24    MT_AfIncomingMsg

        END
//  542 
//  543 /***************************************************************************************************
//  544 ***************************************************************************************************/
// 
// 1 435 bytes in segment BANKED_CODE
//    30 bytes in segment BANK_RELAYS
// 
// 1 465 bytes of CODE memory
//
//Errors: none
//Warnings: none
