###############################################################################
#                                                                             #
# IAR C/C++ Compiler V8.10.3.10338/W32 for 8051         18/Dec/2020  11:23:26 #
# Copyright 2004-2011 IAR Systems AB.                                         #
#                                                                             #
#    Core               =  plain                                              #
#    Code model         =  banked                                             #
#    Data model         =  large                                              #
#    Calling convention =  xdata reentrant                                    #
#    Constant location  =  data_rom                                           #
#    Dptr setup         =  1,16                                               #
#    Source file        =  C:\Users\Administrator\Desktop\eps\ZigBeeÕ®–≈ µ—È\ #
#                          4.ZigBeeÕ¯¬Á¥´ ‰PM2.5 µ—È\Components\osal\mcu\cc25 #
#                          30\OSAL_Nv.c                                       #
#    Command line       =  -f C:\Users\Administrator\Desktop\eps\ZigBeeÕ®–≈ µ #
#                          —È\4.ZigBeeÕ¯¬Á¥´ ‰PM2.5 µ—È\Projects\zstack\Sampl #
#                          es\SampleApp\CC2530DB\..\..\..\Tools\CC2530DB\f8wE #
#                          ndev.cfg (-DCPU32MHZ -DROOT=__near_func            #
#                          -DBLINK_LEDS) -f C:\Users\Administrator\Desktop\ep #
#                          s\ZigBeeÕ®–≈ µ—È\4.ZigBeeÕ¯¬Á¥´ ‰PM2.5 µ—È\Project #
#                          s\zstack\Samples\SampleApp\CC2530DB\..\..\..\Tools #
#                          \CC2530DB\f8wConfig.cfg (-DSECURE=0                #
#                          -DZG_SECURE_DYNAMIC=0 -DREFLECTOR                  #
#                          -DDEFAULT_CHANLIST=0x00000800                      #
#                          -DZDAPP_CONFIG_PAN_ID=0xFF11                       #
#                          -DNWK_START_DELAY=100 -DEXTENDED_JOINING_RANDOM_MA #
#                          SK=0x007F -DBEACON_REQUEST_DELAY=100               #
#                          -DBEACON_REQ_DELAY_MASK=0x00FF                     #
#                          -DROUTE_EXPIRY_TIME=30 -DAPSC_ACK_WAIT_DURATION_PO #
#                          LLED=3000 -DNWK_INDIRECT_MSG_TIMEOUT=7             #
#                          -DMAX_RREQ_ENTRIES=8 -DAPSC_MAX_FRAME_RETRIES=3    #
#                          -DNWK_MAX_DATA_RETRIES=2                           #
#                          -DMAX_POLL_FAILURE_RETRIES=2 -DMAX_BCAST=9         #
#                          -DAPS_MAX_GROUPS=16 -DMAX_RTG_ENTRIES=40           #
#                          -DNWK_MAX_BINDING_ENTRIES=4                        #
#                          -DMAX_BINDING_CLUSTER_IDS=4 "-DDEFAULT_KEY={0x01,  #
#                          0x03, 0x05, 0x07, 0x09, 0x0B, 0x0D, 0x0F, 0x00,    #
#                          0x02, 0x04, 0x06, 0x08, 0x0A, 0x0C, 0x0D}"         #
#                          -DMAC_MAX_FRAME_SIZE=116 "-DCONST=const __code"    #
#                          -DGENERIC=__generic -DRFD_RCVC_ALWAYS_ON=FALSE     #
#                          -DPOLL_RATE=1000 -DQUEUED_POLL_RATE=100            #
#                          -DRESPONSE_POLL_RATE=100) -DREJOIN_POLL_RATE=440   #
#                          C:\Users\Administrator\Desktop\eps\ZigBeeÕ®–≈ µ—È\ #
#                          4.ZigBeeÕ¯¬Á¥´ ‰PM2.5 µ—È\Components\osal\mcu\cc25 #
#                          30\OSAL_Nv.c -D NWK_AUTO_POLL -D ZTOOL_P1 -D       #
#                          MT_SYS_FUNC -D MT_ZDO_FUNC -D LCD_SUPPORTED=DEBUG  #
#                          -lC C:\Users\Administrator\Desktop\eps\ZigBeeÕ®–≈  #
#                          µ—È\4.ZigBeeÕ¯¬Á¥´ ‰PM2.5 µ—È\Projects\zstack\Samp #
#                          les\SampleApp\CC2530DB\EndDeviceEB\List\ -lA       #
#                          C:\Users\Administrator\Desktop\eps\ZigBeeÕ®–≈ µ—È\ #
#                          4.ZigBeeÕ¯¬Á¥´ ‰PM2.5 µ—È\Projects\zstack\Samples\ #
#                          SampleApp\CC2530DB\EndDeviceEB\List\               #
#                          --diag_suppress Pe001,Pa010 -o                     #
#                          C:\Users\Administrator\Desktop\eps\ZigBeeÕ®–≈ µ—È\ #
#                          4.ZigBeeÕ¯¬Á¥´ ‰PM2.5 µ—È\Projects\zstack\Samples\ #
#                          SampleApp\CC2530DB\EndDeviceEB\Obj\ -e             #
#                          --no_unroll --no_inline --no_tbaa --debug          #
#                          --core=plain --dptr=16,1 --data_model=large        #
#                          --code_model=banked --calling_convention=xdata_ree #
#                          ntrant --place_constants=data_rom                  #
#                          --nr_virtual_regs 16 -I C:\Users\Administrator\Des #
#                          ktop\eps\ZigBeeÕ®–≈ µ—È\4.ZigBeeÕ¯¬Á¥´ ‰PM2.5 µ—È\ #
#                          Projects\zstack\Samples\SampleApp\CC2530DB\ -I     #
#                          C:\Users\Administrator\Desktop\eps\ZigBeeÕ®–≈ µ—È\ #
#                          4.ZigBeeÕ¯¬Á¥´ ‰PM2.5 µ—È\Projects\zstack\Samples\ #
#                          SampleApp\CC2530DB\..\SOURCE\ -I                   #
#                          C:\Users\Administrator\Desktop\eps\ZigBeeÕ®–≈ µ—È\ #
#                          4.ZigBeeÕ¯¬Á¥´ ‰PM2.5 µ—È\Projects\zstack\Samples\ #
#                          SampleApp\CC2530DB\..\..\..\ZMAIN\TI2530DB\ -I     #
#                          C:\Users\Administrator\Desktop\eps\ZigBeeÕ®–≈ µ—È\ #
#                          4.ZigBeeÕ¯¬Á¥´ ‰PM2.5 µ—È\Projects\zstack\Samples\ #
#                          SampleApp\CC2530DB\..\..\..\..\..\COMPONENTS\MT\   #
#                          -I C:\Users\Administrator\Desktop\eps\ZigBeeÕ®–≈ µ #
#                          —È\4.ZigBeeÕ¯¬Á¥´ ‰PM2.5 µ—È\Projects\zstack\Sampl #
#                          es\SampleApp\CC2530DB\..\..\..\..\..\COMPONENTS\HA #
#                          L\INCLUDE\ -I C:\Users\Administrator\Desktop\eps\Z #
#                          igBeeÕ®–≈ µ—È\4.ZigBeeÕ¯¬Á¥´ ‰PM2.5 µ—È\Projects\z #
#                          stack\Samples\SampleApp\CC2530DB\..\..\..\..\..\CO #
#                          MPONENTS\HAL\TARGET\CC2530EB\ -I                   #
#                          C:\Users\Administrator\Desktop\eps\ZigBeeÕ®–≈ µ—È\ #
#                          4.ZigBeeÕ¯¬Á¥´ ‰PM2.5 µ—È\Projects\zstack\Samples\ #
#                          SampleApp\CC2530DB\..\..\..\..\..\COMPONENTS\OSAL\ #
#                          MCU\CCSOC\ -I C:\Users\Administrator\Desktop\eps\Z #
#                          igBeeÕ®–≈ µ—È\4.ZigBeeÕ¯¬Á¥´ ‰PM2.5 µ—È\Projects\z #
#                          stack\Samples\SampleApp\CC2530DB\..\..\..\..\..\CO #
#                          MPONENTS\OSAL\INCLUDE\ -I                          #
#                          C:\Users\Administrator\Desktop\eps\ZigBeeÕ®–≈ µ—È\ #
#                          4.ZigBeeÕ¯¬Á¥´ ‰PM2.5 µ—È\Projects\zstack\Samples\ #
#                          SampleApp\CC2530DB\..\..\..\..\..\COMPONENTS\STACK #
#                          \AF\ -I C:\Users\Administrator\Desktop\eps\ZigBeeÕ #
#                          ®–≈ µ—È\4.ZigBeeÕ¯¬Á¥´ ‰PM2.5 µ—È\Projects\zstack\ #
#                          Samples\SampleApp\CC2530DB\..\..\..\..\..\COMPONEN #
#                          TS\STACK\NWK\ -I C:\Users\Administrator\Desktop\ep #
#                          s\ZigBeeÕ®–≈ µ—È\4.ZigBeeÕ¯¬Á¥´ ‰PM2.5 µ—È\Project #
#                          s\zstack\Samples\SampleApp\CC2530DB\..\..\..\..\.. #
#                          \COMPONENTS\STACK\SEC\ -I                          #
#                          C:\Users\Administrator\Desktop\eps\ZigBeeÕ®–≈ µ—È\ #
#                          4.ZigBeeÕ¯¬Á¥´ ‰PM2.5 µ—È\Projects\zstack\Samples\ #
#                          SampleApp\CC2530DB\..\..\..\..\..\COMPONENTS\STACK #
#                          \SAPI\ -I C:\Users\Administrator\Desktop\eps\ZigBe #
#                          eÕ®–≈ µ—È\4.ZigBeeÕ¯¬Á¥´ ‰PM2.5 µ—È\Projects\zstac #
#                          k\Samples\SampleApp\CC2530DB\..\..\..\..\..\COMPON #
#                          ENTS\STACK\SYS\ -I C:\Users\Administrator\Desktop\ #
#                          eps\ZigBeeÕ®–≈ µ—È\4.ZigBeeÕ¯¬Á¥´ ‰PM2.5 µ—È\Proje #
#                          cts\zstack\Samples\SampleApp\CC2530DB\..\..\..\..\ #
#                          ..\COMPONENTS\STACK\ZDO\ -I                        #
#                          C:\Users\Administrator\Desktop\eps\ZigBeeÕ®–≈ µ—È\ #
#                          4.ZigBeeÕ¯¬Á¥´ ‰PM2.5 µ—È\Projects\zstack\Samples\ #
#                          SampleApp\CC2530DB\..\..\..\..\..\COMPONENTS\ZMAC\ #
#                          F8W\ -I C:\Users\Administrator\Desktop\eps\ZigBeeÕ #
#                          ®–≈ µ—È\4.ZigBeeÕ¯¬Á¥´ ‰PM2.5 µ—È\Projects\zstack\ #
#                          Samples\SampleApp\CC2530DB\..\..\..\..\..\COMPONEN #
#                          TS\ZMAC\ -I C:\Users\Administrator\Desktop\eps\Zig #
#                          BeeÕ®–≈ µ—È\4.ZigBeeÕ¯¬Á¥´ ‰PM2.5 µ—È\Projects\zst #
#                          ack\Samples\SampleApp\CC2530DB\..\..\..\..\..\COMP #
#                          ONENTS\SERVICES\SADDR\ -I                          #
#                          C:\Users\Administrator\Desktop\eps\ZigBeeÕ®–≈ µ—È\ #
#                          4.ZigBeeÕ¯¬Á¥´ ‰PM2.5 µ—È\Projects\zstack\Samples\ #
#                          SampleApp\CC2530DB\..\..\..\..\..\COMPONENTS\SERVI #
#                          CES\SDATA\ -I C:\Users\Administrator\Desktop\eps\Z #
#                          igBeeÕ®–≈ µ—È\4.ZigBeeÕ¯¬Á¥´ ‰PM2.5 µ—È\Projects\z #
#                          stack\Samples\SampleApp\CC2530DB\..\..\..\..\..\CO #
#                          MPONENTS\MAC\INCLUDE\ -I                           #
#                          C:\Users\Administrator\Desktop\eps\ZigBeeÕ®–≈ µ—È\ #
#                          4.ZigBeeÕ¯¬Á¥´ ‰PM2.5 µ—È\Projects\zstack\Samples\ #
#                          SampleApp\CC2530DB\..\..\..\..\..\COMPONENTS\MAC\H #
#                          IGH_LEVEL\ -I C:\Users\Administrator\Desktop\eps\Z #
#                          igBeeÕ®–≈ µ—È\4.ZigBeeÕ¯¬Á¥´ ‰PM2.5 µ—È\Projects\z #
#                          stack\Samples\SampleApp\CC2530DB\..\..\..\..\..\CO #
#                          MPONENTS\MAC\LOW_LEVEL\srf04\ -I                   #
#                          C:\Users\Administrator\Desktop\eps\ZigBeeÕ®–≈ µ—È\ #
#                          4.ZigBeeÕ¯¬Á¥´ ‰PM2.5 µ—È\Projects\zstack\Samples\ #
#                          SampleApp\CC2530DB\..\..\..\..\..\COMPONENTS\MAC\L #
#                          OW_LEVEL\srf04\SINGLE_CHIP\ -I                     #
#                          C:\Users\Administrator\Desktop\eps\ZigBeeÕ®–≈ µ—È\ #
#                          4.ZigBeeÕ¯¬Á¥´ ‰PM2.5 µ—È\Projects\zstack\Samples\ #
#                          SampleApp\CC2530DB\..\..\..\..\..\COMPONENTS\HARDW #
#                          ARE\ -Om                                           #
#    List file          =  C:\Users\Administrator\Desktop\eps\ZigBeeÕ®–≈ µ—È\ #
#                          4.ZigBeeÕ¯¬Á¥´ ‰PM2.5 µ—È\Projects\zstack\Samples\ #
#                          SampleApp\CC2530DB\EndDeviceEB\List\OSAL_Nv.lst    #
#    Object file        =  C:\Users\Administrator\Desktop\eps\ZigBeeÕ®–≈ µ—È\ #
#                          4.ZigBeeÕ¯¬Á¥´ ‰PM2.5 µ—È\Projects\zstack\Samples\ #
#                          SampleApp\CC2530DB\EndDeviceEB\Obj\OSAL_Nv.r51     #
#                                                                             #
#                                                                             #
###############################################################################

C:\Users\Administrator\Desktop\eps\ZigBeeÕ®–≈ µ—È\4.ZigBeeÕ¯¬Á¥´ ‰PM2.5 µ—È\Components\osal\mcu\cc2530\OSAL_Nv.c
      1          /**************************************************************************************************
      2            Filename:       OSAL_Nv.c
      3            Revised:        $Date: 2008-08-06 17:17:11 -0700 (Wed, 06 Aug 2008) $
      4            Revision:       $Revision: 17715 $
      5          
      6            Description:    This module contains the OSAL non-volatile memory functions.
      7          
      8          
      9            Copyright 2006-2009 Texas Instruments Incorporated. All rights reserved.
     10          
     11            IMPORTANT: Your use of this Software is limited to those specific rights
     12            granted under the terms of a software license agreement between the user
     13            who downloaded the software, his/her employer (which must be your employer)
     14            and Texas Instruments Incorporated (the "License").  You may not use this
     15            Software unless you agree to abide by the terms of the License. The License
     16            limits your use, and you acknowledge, that the Software may not be modified,
     17            copied or distributed unless embedded on a Texas Instruments microcontroller
     18            or used solely and exclusively in conjunction with a Texas Instruments radio
     19            frequency transceiver, which is integrated into your product.  Other than for
     20            the foregoing purpose, you may not use, reproduce, copy, prepare derivative
     21            works of, modify, distribute, perform, display or sell this Software and/or
     22            its documentation for any purpose.
     23          
     24            YOU FURTHER ACKNOWLEDGE AND AGREE THAT THE SOFTWARE AND DOCUMENTATION ARE
     25            PROVIDED ìAS ISî WITHOUT WARRANTY OF ANY KIND, EITHER EXPRESS OR IMPLIED,
     26            INCLUDING WITHOUT LIMITATION, ANY WARRANTY OF MERCHANTABILITY, TITLE,
     27            NON-INFRINGEMENT AND FITNESS FOR A PARTICULAR PURPOSE. IN NO EVENT SHALL
     28            TEXAS INSTRUMENTS OR ITS LICENSORS BE LIABLE OR OBLIGATED UNDER CONTRACT,
     29            NEGLIGENCE, STRICT LIABILITY, CONTRIBUTION, BREACH OF WARRANTY, OR OTHER
     30            LEGAL EQUITABLE THEORY ANY DIRECT OR INDIRECT DAMAGES OR EXPENSES
     31            INCLUDING BUT NOT LIMITED TO ANY INCIDENTAL, SPECIAL, INDIRECT, PUNITIVE
     32            OR CONSEQUENTIAL DAMAGES, LOST PROFITS OR LOST DATA, COST OF PROCUREMENT
     33            OF SUBSTITUTE GOODS, TECHNOLOGY, SERVICES, OR ANY CLAIMS BY THIRD PARTIES
     34            (INCLUDING BUT NOT LIMITED TO ANY DEFENSE THEREOF), OR OTHER SIMILAR COSTS.
     35          
     36            Should you have any questions regarding your right to use this Software,
     37            contact Texas Instruments Incorporated at www.TI.com.
     38          **************************************************************************************************/
     39          
     40          /**************************************************************************************************
     41            Notes:
     42              - A trick buried deep in initPage() requires that the MSB of the NV Item Id is to
     43                be reserved for use by this module.
     44          **************************************************************************************************/
     45          
     46          /*********************************************************************
     47           * INCLUDES
     48           */
     49          
     50          #include "hal_adc.h"
     51          #include "hal_flash.h"
     52          #include "hal_types.h"
     53          #include "ZComdef.h"
     54          #include "OSAL_Nv.h"
     55          
     56          /*********************************************************************
     57           * CONSTANTS
     58           */
     59          
     60          #define OSAL_NV_PAGE_SIZE       HAL_FLASH_PAGE_SIZE
     61          #define OSAL_NV_PAGES_USED      HAL_NV_PAGE_CNT
     62          #define OSAL_NV_PAGE_BEG        HAL_NV_PAGE_BEG
     63          #define OSAL_NV_PAGE_END       (OSAL_NV_PAGE_BEG + OSAL_NV_PAGES_USED - 1)
     64          
     65          #define OSAL_NV_ACTIVE          0x00
     66          #define OSAL_NV_ERASED          0xFF
     67          #define OSAL_NV_ERASED_ID       0xFFFF
     68          #define OSAL_NV_ZEROED_ID       0x0000
     69          // Reserve MSB of Id to signal a search for the "old" source copy (new write interrupted/failed.)
     70          #define OSAL_NV_SOURCE_ID       0x8000
     71          
     72          #define OSAL_NV_PAGE_FREE       HAL_FLASH_PAGE_SIZE
     73          
     74          // In case pages 0-1 are ever used, define a null page value.
     75          #define OSAL_NV_PAGE_NULL       0
     76          
     77          // In case item Id 0 is ever used, define a null item value.
     78          #define OSAL_NV_ITEM_NULL       0
     79          
     80          #define OSAL_NV_WORD_SIZE       HAL_FLASH_WORD_SIZE
     81          
     82          #define OSAL_NV_PAGE_HDR_OFFSET 0
     83          
     84          /*********************************************************************
     85           * MACROS
     86           */
     87          
     88          #define  OSAL_NV_CHECK_BUS_VOLTAGE  (HalAdcCheckVdd( HAL_ADC_VDD_LIMIT_4 ))
     89          
     90          #define OSAL_NV_DATA_SIZE( LEN )  \
     91             ((((LEN) + OSAL_NV_WORD_SIZE - 1) / OSAL_NV_WORD_SIZE) * OSAL_NV_WORD_SIZE)
     92          
     93          #define OSAL_NV_ITEM_SIZE( LEN )  \
     94            (((((LEN) + OSAL_NV_WORD_SIZE - 1) / OSAL_NV_WORD_SIZE) * OSAL_NV_WORD_SIZE) + OSAL_NV_HDR_SIZE)
     95          
     96          /*********************************************************************
     97           * TYPEDEFS
     98           */
     99          
    100          typedef struct
    101          {
    102            uint16 id;
    103            uint16 len;   // Enforce Flash-WORD size on len.
    104            uint16 chk;   // Byte-wise checksum of the 'len' data bytes of the item.
    105            uint16 stat;  // Item status.
    106          } osalNvHdr_t;
    107          // Struct member offsets.
    108          #define OSAL_NV_HDR_ID    0
    109          #define OSAL_NV_HDR_LEN   2
    110          #define OSAL_NV_HDR_CHK   4
    111          #define OSAL_NV_HDR_STAT  6
    112          
    113          #define OSAL_NV_HDR_ITEM  2  // Length of any item of a header struct.
    114          #define OSAL_NV_HDR_SIZE  8
    115          #define OSAL_NV_HDR_HALF (OSAL_NV_HDR_SIZE / 2)
    116          
    117          typedef struct
    118          {
    119            uint16 active;
    120            uint16 inUse;
    121            uint16 xfer;
    122            uint16 spare;
    123          } osalNvPgHdr_t;
    124          // Struct member offsets.
    125          #define OSAL_NV_PG_ACTIVE 0
    126          #define OSAL_NV_PG_INUSE  2
    127          #define OSAL_NV_PG_XFER   4
    128          #define OSAL_NV_PG_SPARE  6
    129          
    130          #define OSAL_NV_PAGE_HDR_SIZE  8
    131          #define OSAL_NV_PAGE_HDR_HALF (OSAL_NV_PAGE_HDR_SIZE / 2)
    132          
    133          typedef enum
    134          {
    135            eNvXfer,
    136            eNvZero
    137          } eNvHdrEnum;
    138          
    139          typedef enum
    140          {
    141            ePgActive,
    142            ePgInUse,
    143            ePgXfer,
    144            ePgSpare
    145          } ePgHdrEnum;
    146          
    147          /*********************************************************************
    148           * EXTERNAL FUNCTIONS
    149           */
    150          
    151          extern bool HalAdcCheckVdd(uint8 limit);
    152          
    153          /*********************************************************************
    154           * GLOBAL VARIABLES
    155           */
    156          
    157          #ifndef OAD_KEEP_NV_PAGES
    158          // When NV pages are to remain intact during OAD download,
    159          // the image itself should not include NV pages.
    160          #pragma location="ZIGNV_ADDRESS_SPACE"

   \                                 In  segment ZIGNV_ADDRESS_SPACE, align 1
    161          __no_init uint8 _nvBuf[OSAL_NV_PAGES_USED * OSAL_NV_PAGE_SIZE];
   \                     _nvBuf:
   \   000000                DS 12288
    162          #pragma required=_nvBuf
    163          #pragma location="IEEE_ADDRESS_SPACE"

   \                                 In  segment IEEE_ADDRESS_SPACE, align 1
    164          __no_init uint8 _nvIEEE[Z_EXTADDR_LEN];
   \                     _nvIEEE:
   \   000000                DS 8
   \   000008                REQUIRE _nvBuf
    165          #pragma required=_nvIEEE
    166          #endif // OAD_KEEP_NV_PAGES
    167          
    168          /*********************************************************************
    169           * LOCAL VARIABLES
    170           */
    171          
    172          // Offset into the page of the first available erased space.

   \                                 In  segment XDATA_Z, align 1, keep-with-next
    173          static uint16 pgOff[OSAL_NV_PAGES_USED];
   \                     pgOff:
   \   000000                DS 12
   \   00000C                REQUIRE __INIT_XDATA_Z
   \   00000C                REQUIRE _nvIEEE
    174          
    175          // Count of the bytes lost for the zeroed-out items.

   \                                 In  segment XDATA_Z, align 1, keep-with-next
    176          static uint16 pgLost[OSAL_NV_PAGES_USED];
   \                     pgLost:
   \   000000                DS 12
   \   00000C                REQUIRE __INIT_XDATA_Z
    177          

   \                                 In  segment XDATA_Z, align 1, keep-with-next
    178          static uint8 pgRes;  // Page reserved for item compacting transfer.
   \                     pgRes:
   \   000000                DS 1
   \   000001                REQUIRE __INIT_XDATA_Z
    179          
    180          // Saving ~100 code bytes to move a uint8* parameter/return value from findItem() to a global.

   \                                 In  segment XDATA_Z, align 1, keep-with-next
    181          static uint8 findPg;
   \                     findPg:
   \   000000                DS 1
   \   000001                REQUIRE __INIT_XDATA_Z
    182          
    183          /* Immediately before the voltage critical operations of a page erase or
    184           * a word write, check bus voltage. If less than min, set global flag & abort.
    185           * Since this is to be done at the lowest level, many void functions would have to be changed to
    186           * return a value and code added to check that value before proceeding, resulting in a very
    187           * expensive code size hit for implementing this properly. Therefore, use this global as follows:
    188           * at the start of osal_nv_item_init/osal_nv_write, set to FALSE, and at the end, before returning,
    189           * check the value. Thus, the global is an accumulator of any error that occurred in any of the
    190           * attempts to modify Flash with a low bus voltage during the complicated sequence of events that
    191           * may occur on any item init or write. This is much more expedient and code saving than adding
    192           * return values and checking return values to early out. No matter which method is used, an NV
    193           * data record may end up mangled due to the low VCC conditions. The strategy is that the headers
    194           * and checksums will detect and allow recovery from such a condition.
    195           *
    196           * One unfortunate side-effect of using the global fail flag vice adding and checking return
    197           * values, is that when setting an item Id to zero has failed due to the low VCC check,
    198           * the page lost-bytes counter is still updated. Having an artificially high lost-byte
    199           * count makes it look like there are more bytes to recover from compacting a page than there may
    200           * actually be. The easy work-around implemented is it to invoke initNV() from osal_nv_item_init or
    201           * osal_nv_write anytime that the failF gets set - this will re-walk all of the pages and set the
    202           * page offset count and page lost bytes count to their actual values.
    203           */

   \                                 In  segment XDATA_Z, align 1, keep-with-next
    204          static uint8 failF;
   \                     failF:
   \   000000                DS 1
   \   000001                REQUIRE __INIT_XDATA_Z
    205          
    206          /*********************************************************************
    207           * LOCAL FUNCTIONS
    208           */
    209          
    210          static uint8  initNV( void );
    211          
    212          static void   setPageUse( uint8 pg, uint8 inUse );
    213          static uint16 initPage( uint8 pg, uint16 id, uint8 findDups );
    214          static void   erasePage( uint8 pg );
    215          static void   compactPage( uint8 pg );
    216          
    217          static uint16 findItem( uint16 id );
    218          static uint8  initItem( uint8 flag, uint16 id, uint16 len, void *buf );
    219          static void   setItem( uint8 pg, uint16 offset, eNvHdrEnum stat );
    220          
    221          static uint16 calcChkB( uint16 len, uint8 *buf );
    222          static uint16 calcChkF( byte pg, uint16 offset, uint16 len );
    223          
    224          static void   writeWord( uint8 pg, uint16 offset, uint8 *buf );
    225          static void   writeWordH( uint8 pg, uint16 offset, uint8 *buf );
    226          static void   writeWordM( uint8 pg, uint16 offset, uint8 *buf, uint16 cnt );
    227          static void   writeBuf( uint8 pg, uint16 offset, uint16 len, uint8 *buf );
    228          static void   xferBuf( uint8 srcPg, uint16 srcOff, uint8 dstPg, uint16 dstOff, uint16 len );
    229          
    230          static uint8  writeItem( uint8 pg, uint16 id, uint16 len, void *buf, uint8 flag );
    231          
    232          /*********************************************************************
    233           * @fn      initNV
    234           *
    235           * @brief   Initialize the NV flash pages.
    236           *
    237           * @param   none
    238           *
    239           * @return  TRUE
    240           */

   \                                 In  segment BANKED_CODE, align 1, keep-with-next
    241          static uint8 initNV( void )
   \                     initNV:
    242          {
   \   000000   74F4         MOV     A,#-0xc
   \   000002   12....       LCALL   ?BANKED_ENTER_XDATA
   \   000005                ; Saved register size: 12
   \   000005                ; Auto size: 8
   \   000005   74F8         MOV     A,#-0x8
   \   000007   12....       LCALL   ?ALLOC_XSTACK8
    243            osalNvPgHdr_t pgHdr;
    244            uint8 oldPg = OSAL_NV_PAGE_NULL;
   \   00000A   75..00       MOV     ?V0 + 0,#0x0
    245            uint8 newPg = OSAL_NV_PAGE_NULL;
   \   00000D   7F00         MOV     R7,#0x0
    246            uint8 findDups = FALSE;
   \   00000F   8F..         MOV     ?V0 + 1,R7
    247            uint8 pg;
    248          
    249            pgRes = OSAL_NV_PAGE_NULL;
   \   000011   90....       MOV     DPTR,#pgRes
   \   000014   E4           CLR     A
   \   000015   F0           MOVX    @DPTR,A
    250          
    251            for ( pg = OSAL_NV_PAGE_BEG; pg <= OSAL_NV_PAGE_END; pg++ )
   \   000016   7E79         MOV     R6,#0x79
   \   000018   8028         SJMP    ??initNV_0
    252            {
    253              HalFlashRead(pg, OSAL_NV_PAGE_HDR_OFFSET, (uint8 *)(&pgHdr), OSAL_NV_HDR_SIZE);
    254          
    255              if ( pgHdr.active == OSAL_NV_ERASED_ID )
    256              {
    257                if ( pgRes == OSAL_NV_PAGE_NULL )
    258                {
    259                  pgRes = pg;
    260                }
    261                else
    262                {
    263                  setPageUse( pg, TRUE );
    264                }
    265              }
    266              else  // Page is active.
    267              {
    268                // If the page is not yet in use, it is the tgt of items from an xfer.
    269                if ( pgHdr.inUse == OSAL_NV_ERASED_ID )
    270                {
    271                  newPg = pg;
    272                }
    273                // An Xfer from this page was in progress.
    274                else if ( pgHdr.xfer != OSAL_NV_ERASED_ID )
   \                     ??initNV_1:
   \   00001A   7404         MOV     A,#0x4
   \   00001C   12....       LCALL   ?XSTACK_DISP0_8
   \   00001F   E0           MOVX    A,@DPTR
   \   000020   F4           CPL     A
   \   000021   7003         JNZ     ??initNV_2
   \   000023   A3           INC     DPTR
   \   000024   E0           MOVX    A,@DPTR
   \   000025   F4           CPL     A
   \                     ??initNV_2:
   \   000026   6002         JZ      ??initNV_3
    275                {
    276                  oldPg = pg;
   \   000028   8E..         MOV     ?V0 + 0,R6
    277                }
    278              }
    279          
    280              // Calculate page offset and lost bytes - any "old" item triggers an N^2 re-scan from start.
    281              if ( initPage( pg, OSAL_NV_ITEM_NULL, findDups ) != OSAL_NV_ITEM_NULL )
   \                     ??initNV_3:
   \   00002A                ; Setup parameters for call to function initPage
   \   00002A   AC..         MOV     R4,?V0 + 1
   \   00002C   7A00         MOV     R2,#0x0
   \   00002E   7B00         MOV     R3,#0x0
   \   000030   EE           MOV     A,R6
   \   000031   F9           MOV     R1,A
   \   000032   12....       LCALL   ??initPage?relay
   \   000035   8B..         MOV     ?V0 + 3,R3
   \   000037   EA           MOV     A,R2
   \   000038   45..         ORL     A,?V0 + 3
   \   00003A   6005         JZ      ??initNV_4
    282              {
    283                findDups = TRUE;
   \   00003C   75..01       MOV     ?V0 + 1,#0x1
    284                pg = OSAL_NV_PAGE_BEG-1;
   \   00003F   7E78         MOV     R6,#0x78
    285                continue;
    286              }
   \                     ??initNV_4:
   \   000041   0E           INC     R6
   \                     ??initNV_0:
   \   000042   EE           MOV     A,R6
   \   000043   C3           CLR     C
   \   000044   947F         SUBB    A,#0x7f
   \   000046   5056         JNC     ??initNV_5
   \   000048                ; Setup parameters for call to function HalFlashRead
   \   000048   75..08       MOV     ?V0 + 2,#0x8
   \   00004B   75..00       MOV     ?V0 + 3,#0x0
   \   00004E   78..         MOV     R0,#?V0 + 2
   \   000050   12....       LCALL   ?PUSH_XSTACK_I_TWO
   \   000053   7402         MOV     A,#0x2
   \   000055   12....       LCALL   ?XSTACK_DISP0_8
   \   000058   AC82         MOV     R4,DPL
   \   00005A   AD83         MOV     R5,DPH
   \   00005C   7A00         MOV     R2,#0x0
   \   00005E   7B00         MOV     R3,#0x0
   \   000060   EE           MOV     A,R6
   \   000061   F9           MOV     R1,A
   \   000062   12....       LCALL   ??HalFlashRead?relay
   \   000065   7402         MOV     A,#0x2
   \   000067   12....       LCALL   ?DEALLOC_XSTACK8
   \   00006A   85..82       MOV     DPL,?XSP + 0
   \   00006D   85..83       MOV     DPH,?XSP + 1
   \   000070   E0           MOVX    A,@DPTR
   \   000071   F4           CPL     A
   \   000072   7003         JNZ     ??initNV_6
   \   000074   A3           INC     DPTR
   \   000075   E0           MOVX    A,@DPTR
   \   000076   F4           CPL     A
   \                     ??initNV_6:
   \   000077   7013         JNZ     ??initNV_7
   \   000079   90....       MOV     DPTR,#pgRes
   \   00007C   E0           MOVX    A,@DPTR
   \   00007D   7004         JNZ     ??initNV_8
   \   00007F   EE           MOV     A,R6
   \   000080   F0           MOVX    @DPTR,A
   \   000081   80A7         SJMP    ??initNV_3
   \                     ??initNV_8:
   \   000083                ; Setup parameters for call to function setPageUse
   \   000083   7A01         MOV     R2,#0x1
   \   000085   EE           MOV     A,R6
   \   000086   F9           MOV     R1,A
   \   000087   12....       LCALL   ??setPageUse?relay
   \   00008A   809E         SJMP    ??initNV_3
   \                     ??initNV_7:
   \   00008C   7402         MOV     A,#0x2
   \   00008E   12....       LCALL   ?XSTACK_DISP0_8
   \   000091   E0           MOVX    A,@DPTR
   \   000092   F4           CPL     A
   \   000093   7003         JNZ     ??initNV_9
   \   000095   A3           INC     DPTR
   \   000096   E0           MOVX    A,@DPTR
   \   000097   F4           CPL     A
   \                     ??initNV_9:
   \   000098   7080         JNZ     ??initNV_1
   \   00009A   EE           MOV     A,R6
   \   00009B   FF           MOV     R7,A
   \   00009C   808C         SJMP    ??initNV_3
    287            }  // for ( pg = OSAL_NV_PAGE_BEG; pg <= OSAL_NV_PAGE_END; pg++ )
    288          
    289            /* First the old page is erased, and then the new page is put into use.
    290             * So if a transfer was in progress, the new page will always not yet be
    291             * marked as in use, since that is the last step to ending a transfer.
    292             */
    293            if ( newPg != OSAL_NV_PAGE_NULL )
   \                     ??initNV_5:
   \   00009E   EF           MOV     A,R7
   \   00009F   601D         JZ      ??initNV_10
    294            {
    295              /* If there is already a fallow page reserved, keep it and put the newPg in use.
    296               * An unfinished compaction will finish to the new reserve page and the old page
    297               * will be erased and reserved.
    298               */
    299              if ( pgRes != OSAL_NV_PAGE_NULL )
   \   0000A1   90....       MOV     DPTR,#pgRes
   \   0000A4   E0           MOVX    A,@DPTR
   \   0000A5   6009         JZ      ??initNV_11
    300              {
    301                setPageUse( newPg, TRUE );
   \   0000A7                ; Setup parameters for call to function setPageUse
   \   0000A7   7A01         MOV     R2,#0x1
   \   0000A9   EF           MOV     A,R7
   \   0000AA   F9           MOV     R1,A
   \   0000AB   12....       LCALL   ??setPageUse?relay
   \   0000AE   8006         SJMP    ??initNV_12
    302              }
    303              else if ( oldPg != OSAL_NV_PAGE_NULL )
   \                     ??initNV_11:
   \   0000B0   E5..         MOV     A,?V0 + 0
   \   0000B2   6002         JZ      ??initNV_12
    304              {
    305                pgRes = newPg;
   \   0000B4   EF           MOV     A,R7
   \   0000B5   F0           MOVX    @DPTR,A
    306              }
    307          
    308              /* If a page compaction was interrupted and the page being compacted is not
    309               * yet erased, then there may be items remaining to xfer before erasing.
    310               */
    311              if ( oldPg != OSAL_NV_PAGE_NULL )
   \                     ??initNV_12:
   \   0000B6   E5..         MOV     A,?V0 + 0
   \   0000B8   6004         JZ      ??initNV_10
    312              {
    313                compactPage( oldPg );
   \   0000BA                ; Setup parameters for call to function compactPage
   \   0000BA   F9           MOV     R1,A
   \   0000BB   12....       LCALL   ??compactPage?relay
    314              }
    315            }
    316          
    317            /* If no page met the criteria to be the reserve page:
    318             *  - A compactPage() failed or board reset before doing so.
    319             *  - Perhaps the user changed which Flash pages are dedicated to NV and downloaded the code
    320             *    without erasing Flash?
    321             */
    322            if ( pgRes == OSAL_NV_PAGE_NULL )
   \                     ??initNV_10:
   \   0000BE   90....       MOV     DPTR,#pgRes
   \   0000C1   E0           MOVX    A,@DPTR
   \   0000C2   7013         JNZ     ??initNV_13
    323            {
    324              for ( pg = OSAL_NV_PAGE_BEG; pg <= OSAL_NV_PAGE_END; pg++ )
   \   0000C4   7E79         MOV     R6,#0x79
   \   0000C6   8006         SJMP    ??initNV_14
    325              {
    326                erasePage( pg );
   \                     ??initNV_15:
   \   0000C8                ; Setup parameters for call to function erasePage
   \   0000C8   EE           MOV     A,R6
   \   0000C9   F9           MOV     R1,A
   \   0000CA   12....       LCALL   ??erasePage?relay
    327              }
   \   0000CD   0E           INC     R6
   \                     ??initNV_14:
   \   0000CE   EE           MOV     A,R6
   \   0000CF   C3           CLR     C
   \   0000D0   947F         SUBB    A,#0x7f
   \   0000D2   40F4         JC      ??initNV_15
    328              initNV();
   \   0000D4                ; Setup parameters for call to function initNV
   \   0000D4   12....       LCALL   ??initNV?relay
    329            }
    330          
    331            return TRUE;
   \                     ??initNV_13:
   \   0000D7   7901         MOV     R1,#0x1
   \   0000D9   7408         MOV     A,#0x8
   \   0000DB   12....       LCALL   ?DEALLOC_XSTACK8
   \   0000DE   7F04         MOV     R7,#0x4
   \   0000E0   02....       LJMP    ?BANKED_LEAVE_XDATA
    332          }
    333          
    334          /*********************************************************************
    335           * @fn      setPageUse
    336           *
    337           * @brief   Set page header active/inUse state according to 'inUse'.
    338           *
    339           * @param   pg - Valid NV page to verify and init.
    340           * @param   inUse - Boolean TRUE if inUse, FALSE if only active.
    341           *
    342           * @return  none
    343           */

   \                                 In  segment BANKED_CODE, align 1, keep-with-next
    344          static void setPageUse( uint8 pg, uint8 inUse )
   \                     setPageUse:
    345          {
   \   000000   74F7         MOV     A,#-0x9
   \   000002   12....       LCALL   ?BANKED_ENTER_XDATA
   \   000005                ; Saved register size: 9
   \   000005                ; Auto size: 8
   \   000005   74F8         MOV     A,#-0x8
   \   000007   12....       LCALL   ?ALLOC_XSTACK8
   \   00000A   EA           MOV     A,R2
   \   00000B   FF           MOV     R7,A
    346            osalNvPgHdr_t pgHdr;
    347          
    348            pgHdr.active = OSAL_NV_ZEROED_ID;
   \   00000C   85..82       MOV     DPL,?XSP + 0
   \   00000F   85..83       MOV     DPH,?XSP + 1
   \   000012   E4           CLR     A
   \   000013   F0           MOVX    @DPTR,A
   \   000014   A3           INC     DPTR
   \   000015   F0           MOVX    @DPTR,A
    349          
    350            if ( inUse )
   \   000016   EF           MOV     A,R7
   \   000017   6008         JZ      ??setPageUse_0
    351            {
    352              pgHdr.inUse = OSAL_NV_ZEROED_ID;
   \   000019   7402         MOV     A,#0x2
   \   00001B   12....       LCALL   ?XSTACK_DISP0_8
   \   00001E   E4           CLR     A
   \   00001F   8007         SJMP    ??setPageUse_1
    353            }
    354            else
    355            {
    356              pgHdr.inUse = OSAL_NV_ERASED_ID;
   \                     ??setPageUse_0:
   \   000021   7402         MOV     A,#0x2
   \   000023   12....       LCALL   ?XSTACK_DISP0_8
   \   000026   74FF         MOV     A,#-0x1
   \                     ??setPageUse_1:
   \   000028   F0           MOVX    @DPTR,A
   \   000029   A3           INC     DPTR
   \   00002A   F0           MOVX    @DPTR,A
    357            }
    358          
    359            writeWord( pg, OSAL_NV_PAGE_HDR_OFFSET, (uint8*)(&pgHdr) );
   \   00002B                ; Setup parameters for call to function writeWord
   \   00002B   85..82       MOV     DPL,?XSP + 0
   \   00002E   85..83       MOV     DPH,?XSP + 1
   \   000031   AC82         MOV     R4,DPL
   \   000033   AD83         MOV     R5,DPH
   \   000035   7A00         MOV     R2,#0x0
   \   000037   7B00         MOV     R3,#0x0
   \   000039   12....       LCALL   ??writeWord?relay
    360          }
   \   00003C   7408         MOV     A,#0x8
   \   00003E   12....       LCALL   ?DEALLOC_XSTACK8
   \   000041   7F01         MOV     R7,#0x1
   \   000043   02....       LJMP    ?BANKED_LEAVE_XDATA
    361          
    362          /*********************************************************************
    363           * @fn      initPage
    364           *
    365           * @brief   Walk the page items; calculate checksums, lost bytes & page offset.
    366           *
    367           * @param   pg - Valid NV page to verify and init.
    368           * @param   id - Valid NV item Id to use function as a "findItem".
    369           *               If set to NULL then just perform the page initialization.
    370           *
    371           * @return  If 'id' is non-NULL and good checksums are found, return the offset
    372           *          of the data corresponding to item Id; else OSAL_NV_ITEM_NULL.
    373           */

   \                                 In  segment BANKED_CODE, align 1, keep-with-next
    374          static uint16 initPage( uint8 pg, uint16 id, uint8 findDups )
   \                     initPage:
    375          {
   \   000000   74EE         MOV     A,#-0x12
   \   000002   12....       LCALL   ?BANKED_ENTER_XDATA
   \   000005                ; Saved register size: 18
   \   000005                ; Auto size: 8
   \   000005   74F8         MOV     A,#-0x8
   \   000007   12....       LCALL   ?ALLOC_XSTACK8
   \   00000A   89..         MOV     ?V0 + 4,R1
   \   00000C   8A..         MOV     ?V0 + 6,R2
   \   00000E   8B..         MOV     ?V0 + 7,R3
   \   000010   8C..         MOV     ?V0 + 5,R4
    376            uint16 offset = OSAL_NV_PAGE_HDR_SIZE;
   \   000012   75..08       MOV     ?V0 + 2,#0x8
   \   000015   75..00       MOV     ?V0 + 3,#0x0
    377            uint16 sz, lost = 0;
   \   000018   7E00         MOV     R6,#0x0
   \   00001A   7F00         MOV     R7,#0x0
   \   00001C   801C         SJMP    ??initPage_0
    378            osalNvHdr_t hdr;
    379          
    380            do
    381            {
    382              HalFlashRead(pg, offset, (uint8 *)(&hdr), OSAL_NV_HDR_SIZE);
    383          
    384              if ( hdr.id == OSAL_NV_ERASED_ID )
    385              {
    386                break;
    387              }
    388              offset += OSAL_NV_HDR_SIZE;
    389              sz = OSAL_NV_DATA_SIZE( hdr.len );
    390          
    391              // A bad 'len' write has blown away the rest of the page.
    392              if ( (offset + sz) > OSAL_NV_PAGE_FREE )
    393              {
    394                lost += (OSAL_NV_PAGE_FREE - offset + OSAL_NV_HDR_SIZE);
    395                offset = OSAL_NV_PAGE_FREE;
    396                break;
    397              }
    398          
    399              if ( hdr.id != OSAL_NV_ZEROED_ID )
    400              {
    401                /* This trick allows function to do double duty for findItem() without
    402                 * compromising its essential functionality at powerup initialization.
    403                 */
    404                if ( id != OSAL_NV_ITEM_NULL )
    405                {
    406                  /* This trick allows asking to find the old/transferred item in case
    407                   * of a successful new item write that gets interrupted before the
    408                   * old item can be zeroed out.
    409                   */
    410                  if ( (id & 0x7fff) == hdr.id )
    411                  {
    412                    if ( (((id & OSAL_NV_SOURCE_ID) == 0) && (hdr.stat == OSAL_NV_ERASED_ID)) ||
    413                         (((id & OSAL_NV_SOURCE_ID) != 0) && (hdr.stat != OSAL_NV_ERASED_ID)) )
    414                    {
    415                      return offset;
    416                    }
    417                  }
    418                }
    419                // When invoked from the osal_nv_init(), verify checksums and find & zero any duplicates.
    420                else
    421                {
    422                  if ( hdr.chk == calcChkF( pg, offset, hdr.len ) )
    423                  {
    424                    if ( findDups )
    425                    {
    426                      if ( hdr.stat == OSAL_NV_ERASED_ID )
    427                      {
    428                        /* The trick of setting the MSB of the item Id causes the logic
    429                         * immediately above to return a valid page only if the header 'stat'
    430                         * indicates that it was the older item being transferred.
    431                         */
    432                        uint16 off = findItem( (hdr.id | OSAL_NV_SOURCE_ID) );
    433          
    434                        if ( off != OSAL_NV_ITEM_NULL )
    435                        {
    436                          setItem( findPg, off, eNvZero );  // Mark old duplicate as invalid.
    437                        }
    438                      }
    439                    }
    440                    // Any "old" item immediately exits and triggers the N^2 exhaustive initialization.
    441                    else if ( hdr.stat != OSAL_NV_ERASED_ID )
    442                    {
    443                      return OSAL_NV_ERASED_ID;
    444                    }
    445                  }
    446                  else
    447                  {
    448                    setItem( pg, offset, eNvZero );  // Mark bad checksum as invalid.
    449                    lost += (OSAL_NV_HDR_SIZE + sz);
    450                  }
    451                }
    452              }
    453              else
    454              {
    455                lost += (OSAL_NV_HDR_SIZE + sz);
   \                     ??initPage_1:
   \   00001E   E5..         MOV     A,?V0 + 0
   \   000020   2408         ADD     A,#0x8
   \   000022   F8           MOV     R0,A
   \   000023   E5..         MOV     A,?V0 + 1
   \   000025   3400         ADDC    A,#0x0
   \   000027   F9           MOV     R1,A
   \   000028   EE           MOV     A,R6
   \   000029   28           ADD     A,R0
   \   00002A   FE           MOV     R6,A
   \   00002B   EF           MOV     A,R7
   \   00002C   39           ADDC    A,R1
   \   00002D   FF           MOV     R7,A
    456              }
    457              offset += sz;
   \                     ??initPage_2:
   \   00002E   E5..         MOV     A,?V0 + 2
   \   000030   25..         ADD     A,?V0 + 0
   \   000032   F5..         MOV     ?V0 + 2,A
   \   000034   E5..         MOV     A,?V0 + 3
   \   000036   35..         ADDC    A,?V0 + 1
   \   000038   F5..         MOV     ?V0 + 3,A
    458          
    459            } while ( TRUE );
   \                     ??initPage_0:
   \   00003A                ; Setup parameters for call to function HalFlashRead
   \   00003A   75..08       MOV     ?V0 + 0,#0x8
   \   00003D   75..00       MOV     ?V0 + 1,#0x0
   \   000040   78..         MOV     R0,#?V0 + 0
   \   000042   12....       LCALL   ?PUSH_XSTACK_I_TWO
   \   000045   7402         MOV     A,#0x2
   \   000047   12....       LCALL   ?XSTACK_DISP0_8
   \   00004A   AC82         MOV     R4,DPL
   \   00004C   AD83         MOV     R5,DPH
   \   00004E   AA..         MOV     R2,?V0 + 2
   \   000050   AB..         MOV     R3,?V0 + 3
   \   000052   A9..         MOV     R1,?V0 + 4
   \   000054   12....       LCALL   ??HalFlashRead?relay
   \   000057   7402         MOV     A,#0x2
   \   000059   12....       LCALL   ?DEALLOC_XSTACK8
   \   00005C   85..82       MOV     DPL,?XSP + 0
   \   00005F   85..83       MOV     DPH,?XSP + 1
   \   000062   E0           MOVX    A,@DPTR
   \   000063   F4           CPL     A
   \   000064   7003         JNZ     ??initPage_3
   \   000066   A3           INC     DPTR
   \   000067   E0           MOVX    A,@DPTR
   \   000068   F4           CPL     A
   \                     ??initPage_3:
   \   000069   6050         JZ      ??initPage_4
   \   00006B   E5..         MOV     A,?V0 + 2
   \   00006D   2408         ADD     A,#0x8
   \   00006F   F5..         MOV     ?V0 + 2,A
   \   000071   E5..         MOV     A,?V0 + 3
   \   000073   3400         ADDC    A,#0x0
   \   000075   F5..         MOV     ?V0 + 3,A
   \   000077   7402         MOV     A,#0x2
   \   000079   12....       LCALL   ?XSTACK_DISP0_8
   \   00007C   E0           MOVX    A,@DPTR
   \   00007D   FC           MOV     R4,A
   \   00007E   A3           INC     DPTR
   \   00007F   E0           MOVX    A,@DPTR
   \   000080   FD           MOV     R5,A
   \   000081   EC           MOV     A,R4
   \   000082   2403         ADD     A,#0x3
   \   000084   F8           MOV     R0,A
   \   000085   ED           MOV     A,R5
   \   000086   3400         ADDC    A,#0x0
   \   000088   F9           MOV     R1,A
   \   000089   E8           MOV     A,R0
   \   00008A   54FC         ANL     A,#0xfc
   \   00008C   F5..         MOV     ?V0 + 0,A
   \   00008E   E9           MOV     A,R1
   \   00008F   F5..         MOV     ?V0 + 1,A
   \   000091   E5..         MOV     A,?V0 + 2
   \   000093   25..         ADD     A,?V0 + 0
   \   000095   F8           MOV     R0,A
   \   000096   E5..         MOV     A,?V0 + 3
   \   000098   35..         ADDC    A,?V0 + 1
   \   00009A   F9           MOV     R1,A
   \   00009B   C3           CLR     C
   \   00009C   E8           MOV     A,R0
   \   00009D   9401         SUBB    A,#0x1
   \   00009F   E9           MOV     A,R1
   \   0000A0   9408         SUBB    A,#0x8
   \   0000A2   404D         JC      ??initPage_5
   \   0000A4   EE           MOV     A,R6
   \   0000A5   2408         ADD     A,#0x8
   \   0000A7   F8           MOV     R0,A
   \   0000A8   EF           MOV     A,R7
   \   0000A9   3408         ADDC    A,#0x8
   \   0000AB   F9           MOV     R1,A
   \   0000AC   E8           MOV     A,R0
   \   0000AD   C3           CLR     C
   \   0000AE   95..         SUBB    A,?V0 + 2
   \   0000B0   FE           MOV     R6,A
   \   0000B1   E9           MOV     A,R1
   \   0000B2   95..         SUBB    A,?V0 + 3
   \   0000B4   FF           MOV     R7,A
   \   0000B5   75..00       MOV     ?V0 + 2,#0x0
   \   0000B8   75..08       MOV     ?V0 + 3,#0x8
    460          
    461            pgOff[pg - OSAL_NV_PAGE_BEG] = offset;
   \                     ??initPage_4:
   \   0000BB   E5..         MOV     A,?V0 + 4
   \   0000BD   C3           CLR     C
   \   0000BE   33           RLC     A
   \   0000BF   F8           MOV     R0,A
   \   0000C0   E4           CLR     A
   \   0000C1   33           RLC     A
   \   0000C2   F9           MOV     R1,A
   \   0000C3   74..         MOV     A,#(pgOff + 14) & 0xff
   \   0000C5   28           ADD     A,R0
   \   0000C6   F582         MOV     DPL,A
   \   0000C8   74..         MOV     A,#((pgOff - 242) >> 8) & 0xff
   \   0000CA   39           ADDC    A,R1
   \   0000CB   F583         MOV     DPH,A
   \   0000CD   E5..         MOV     A,?V0 + 2
   \   0000CF   F0           MOVX    @DPTR,A
   \   0000D0   A3           INC     DPTR
   \   0000D1   E5..         MOV     A,?V0 + 3
   \   0000D3   F0           MOVX    @DPTR,A
    462            pgLost[pg - OSAL_NV_PAGE_BEG] = lost;
   \   0000D4   74..         MOV     A,#(pgLost + 14) & 0xff
   \   0000D6   28           ADD     A,R0
   \   0000D7   F582         MOV     DPL,A
   \   0000D9   74..         MOV     A,#((pgLost - 242) >> 8) & 0xff
   \   0000DB   39           ADDC    A,R1
   \   0000DC   F583         MOV     DPH,A
   \   0000DE   EE           MOV     A,R6
   \   0000DF   F0           MOVX    @DPTR,A
   \   0000E0   A3           INC     DPTR
   \   0000E1   EF           MOV     A,R7
   \   0000E2   F0           MOVX    @DPTR,A
    463          
    464            return OSAL_NV_ITEM_NULL;
   \   0000E3   7A00         MOV     R2,#0x0
   \   0000E5   7B00         MOV     R3,#0x0
   \                     ??initPage_6:
   \   0000E7   7408         MOV     A,#0x8
   \   0000E9   12....       LCALL   ?DEALLOC_XSTACK8
   \   0000EC   7F0A         MOV     R7,#0xa
   \   0000EE   02....       LJMP    ?BANKED_LEAVE_XDATA
   \                     ??initPage_5:
   \   0000F1   85..82       MOV     DPL,?XSP + 0
   \   0000F4   85..83       MOV     DPH,?XSP + 1
   \   0000F7   E0           MOVX    A,@DPTR
   \   0000F8   F8           MOV     R0,A
   \   0000F9   A3           INC     DPTR
   \   0000FA   E0           MOVX    A,@DPTR
   \   0000FB   F9           MOV     R1,A
   \   0000FC   E8           MOV     A,R0
   \   0000FD   49           ORL     A,R1
   \   0000FE   7003         JNZ     $+5
   \   000100   02....       LJMP    ??initPage_1 & 0xFFFF
   \   000103   E5..         MOV     A,?V0 + 6
   \   000105   45..         ORL     A,?V0 + 7
   \   000107   604B         JZ      ??initPage_7
   \   000109   A8..         MOV     R0,?V0 + 6
   \   00010B   E5..         MOV     A,?V0 + 7
   \   00010D   547F         ANL     A,#0x7f
   \   00010F   F9           MOV     R1,A
   \   000110   85..82       MOV     DPL,?XSP + 0
   \   000113   85..83       MOV     DPH,?XSP + 1
   \   000116   E0           MOVX    A,@DPTR
   \   000117   68           XRL     A,R0
   \   000118   7003         JNZ     ??initPage_8
   \   00011A   A3           INC     DPTR
   \   00011B   E0           MOVX    A,@DPTR
   \   00011C   69           XRL     A,R1
   \                     ??initPage_8:
   \   00011D   6003         JZ      $+5
   \   00011F   02....       LJMP    ??initPage_2 & 0xFFFF
   \   000122   E5..         MOV     A,?V0 + 7
   \   000124   5480         ANL     A,#0x80
   \   000126   F9           MOV     R1,A
   \   000127   700E         JNZ     ??initPage_9
   \   000129   7406         MOV     A,#0x6
   \   00012B   12....       LCALL   ?XSTACK_DISP0_8
   \   00012E   E0           MOVX    A,@DPTR
   \   00012F   F4           CPL     A
   \   000130   7003         JNZ     ??initPage_10
   \   000132   A3           INC     DPTR
   \   000133   E0           MOVX    A,@DPTR
   \   000134   F4           CPL     A
   \                     ??initPage_10:
   \   000135   6017         JZ      ??initPage_11
   \                     ??initPage_9:
   \   000137   E9           MOV     A,R1
   \   000138   7003         JNZ     $+5
   \   00013A   02....       LJMP    ??initPage_2 & 0xFFFF
   \   00013D   7406         MOV     A,#0x6
   \   00013F   12....       LCALL   ?XSTACK_DISP0_8
   \   000142   E0           MOVX    A,@DPTR
   \   000143   F4           CPL     A
   \   000144   7003         JNZ     ??initPage_12
   \   000146   A3           INC     DPTR
   \   000147   E0           MOVX    A,@DPTR
   \   000148   F4           CPL     A
   \                     ??initPage_12:
   \   000149   7003         JNZ     $+5
   \   00014B   02....       LJMP    ??initPage_2 & 0xFFFF
   \                     ??initPage_11:
   \   00014E   AA..         MOV     R2,?V0 + 2
   \   000150   AB..         MOV     R3,?V0 + 3
   \   000152   8093         SJMP    ??initPage_6
   \                     ??initPage_7:
   \   000154                ; Setup parameters for call to function calcChkF
   \   000154   AA..         MOV     R2,?V0 + 2
   \   000156   AB..         MOV     R3,?V0 + 3
   \   000158   A9..         MOV     R1,?V0 + 4
   \   00015A   12....       LCALL   ??calcChkF?relay
   \   00015D   8A..         MOV     ?V0 + 8,R2
   \   00015F   8B..         MOV     ?V0 + 9,R3
   \   000161   A8..         MOV     R0,?V0 + 8
   \   000163   A9..         MOV     R1,?V0 + 9
   \   000165   7404         MOV     A,#0x4
   \   000167   12....       LCALL   ?XSTACK_DISP0_8
   \   00016A   E0           MOVX    A,@DPTR
   \   00016B   68           XRL     A,R0
   \   00016C   7003         JNZ     ??initPage_13
   \   00016E   A3           INC     DPTR
   \   00016F   E0           MOVX    A,@DPTR
   \   000170   69           XRL     A,R1
   \                     ??initPage_13:
   \   000171   7053         JNZ     ??initPage_14
   \   000173   7406         MOV     A,#0x6
   \   000175   12....       LCALL   ?XSTACK_DISP0_8
   \   000178   E0           MOVX    A,@DPTR
   \   000179   F8           MOV     R0,A
   \   00017A   A3           INC     DPTR
   \   00017B   E0           MOVX    A,@DPTR
   \   00017C   F9           MOV     R1,A
   \   00017D   E5..         MOV     A,?V0 + 5
   \   00017F   6031         JZ      ??initPage_15
   \   000181   74FF         MOV     A,#-0x1
   \   000183   68           XRL     A,R0
   \   000184   7003         JNZ     ??initPage_16
   \   000186   74FF         MOV     A,#-0x1
   \   000188   69           XRL     A,R1
   \                     ??initPage_16:
   \   000189   6003         JZ      $+5
   \   00018B   02....       LJMP    ??initPage_2 & 0xFFFF
   \   00018E                ; Setup parameters for call to function findItem
   \   00018E   85..82       MOV     DPL,?XSP + 0
   \   000191   85..83       MOV     DPH,?XSP + 1
   \   000194   E0           MOVX    A,@DPTR
   \   000195   FA           MOV     R2,A
   \   000196   A3           INC     DPTR
   \   000197   E0           MOVX    A,@DPTR
   \   000198   4480         ORL     A,#0x80
   \   00019A   FB           MOV     R3,A
   \   00019B   12....       LCALL   ??findItem?relay
   \   00019E   EA           MOV     A,R2
   \   00019F   4B           ORL     A,R3
   \   0001A0   7003         JNZ     $+5
   \   0001A2   02....       LJMP    ??initPage_2 & 0xFFFF
   \   0001A5                ; Setup parameters for call to function setItem
   \   0001A5   7C01         MOV     R4,#0x1
   \   0001A7   90....       MOV     DPTR,#findPg
   \   0001AA   E0           MOVX    A,@DPTR
   \   0001AB   F9           MOV     R1,A
   \   0001AC   12....       LCALL   ??setItem?relay
   \   0001AF   02....       LJMP    ??initPage_2 & 0xFFFF
   \                     ??initPage_15:
   \   0001B2   74FF         MOV     A,#-0x1
   \   0001B4   68           XRL     A,R0
   \   0001B5   7003         JNZ     ??initPage_17
   \   0001B7   74FF         MOV     A,#-0x1
   \   0001B9   69           XRL     A,R1
   \                     ??initPage_17:
   \   0001BA   7003         JNZ     $+5
   \   0001BC   02....       LJMP    ??initPage_2 & 0xFFFF
   \   0001BF   7AFF         MOV     R2,#-0x1
   \   0001C1   7BFF         MOV     R3,#-0x1
   \   0001C3   02....       LJMP    ??initPage_6 & 0xFFFF
   \                     ??initPage_14:
   \   0001C6                ; Setup parameters for call to function setItem
   \   0001C6   7C01         MOV     R4,#0x1
   \   0001C8   AA..         MOV     R2,?V0 + 2
   \   0001CA   AB..         MOV     R3,?V0 + 3
   \   0001CC   A9..         MOV     R1,?V0 + 4
   \   0001CE   12....       LCALL   ??setItem?relay
   \   0001D1   02....       LJMP    ??initPage_1 & 0xFFFF
    465          }
    466          
    467          /*********************************************************************
    468           * @fn      erasePage
    469           *
    470           * @brief   Erases a page in Flash.
    471           *
    472           * @param   pg - Valid NV page to erase.
    473           *
    474           * @return  none
    475           */

   \                                 In  segment BANKED_CODE, align 1, keep-with-next
    476          static void erasePage( uint8 pg )
   \                     erasePage:
    477          {
   \   000000   74F7         MOV     A,#-0x9
   \   000002   12....       LCALL   ?BANKED_ENTER_XDATA
   \   000005                ; Saved register size: 9
   \   000005                ; Auto size: 0
   \   000005   E9           MOV     A,R1
   \   000006   FE           MOV     R6,A
    478            if ( !OSAL_NV_CHECK_BUS_VOLTAGE )
   \   000007                ; Setup parameters for call to function HalAdcCheckVdd
   \   000007   7904         MOV     R1,#0x4
   \   000009   12....       LCALL   ??HalAdcCheckVdd?relay
   \   00000C   E9           MOV     A,R1
   \   00000D   7007         JNZ     ??erasePage_0
    479            {
    480              failF = TRUE;
   \   00000F   90....       MOV     DPTR,#failF
   \   000012   7401         MOV     A,#0x1
   \   000014   8029         SJMP    ??erasePage_1
    481              return;
    482            }
    483          
    484            HalFlashErase(pg);
   \                     ??erasePage_0:
   \   000016                ; Setup parameters for call to function HalFlashErase
   \   000016   EE           MOV     A,R6
   \   000017   F9           MOV     R1,A
   \   000018   12....       LCALL   ??HalFlashErase?relay
    485          
    486            pgOff[pg - OSAL_NV_PAGE_BEG] = OSAL_NV_PAGE_HDR_SIZE;
   \   00001B   EE           MOV     A,R6
   \   00001C   C3           CLR     C
   \   00001D   33           RLC     A
   \   00001E   F8           MOV     R0,A
   \   00001F   E4           CLR     A
   \   000020   33           RLC     A
   \   000021   F9           MOV     R1,A
   \   000022   74..         MOV     A,#(pgOff + 14) & 0xff
   \   000024   28           ADD     A,R0
   \   000025   F582         MOV     DPL,A
   \   000027   74..         MOV     A,#((pgOff - 242) >> 8) & 0xff
   \   000029   39           ADDC    A,R1
   \   00002A   F583         MOV     DPH,A
   \   00002C   7408         MOV     A,#0x8
   \   00002E   F0           MOVX    @DPTR,A
   \   00002F   A3           INC     DPTR
   \   000030   E4           CLR     A
   \   000031   F0           MOVX    @DPTR,A
    487            pgLost[pg - OSAL_NV_PAGE_BEG] = 0;
   \   000032   74..         MOV     A,#(pgLost + 14) & 0xff
   \   000034   28           ADD     A,R0
   \   000035   F582         MOV     DPL,A
   \   000037   74..         MOV     A,#((pgLost - 242) >> 8) & 0xff
   \   000039   39           ADDC    A,R1
   \   00003A   F583         MOV     DPH,A
   \   00003C   E4           CLR     A
   \   00003D   F0           MOVX    @DPTR,A
   \   00003E   A3           INC     DPTR
   \                     ??erasePage_1:
   \   00003F   F0           MOVX    @DPTR,A
    488          }
   \   000040   7F01         MOV     R7,#0x1
   \   000042   02....       LJMP    ?BANKED_LEAVE_XDATA
    489          
    490          /*********************************************************************
    491           * @fn      compactPage
    492           *
    493           * @brief   Compacts the page specified.
    494           *
    495           * @param   srcPg - Valid NV page to erase.
    496           *
    497           * @return  none
    498           */

   \                                 In  segment BANKED_CODE, align 1, keep-with-next
    499          static void compactPage( uint8 srcPg )
   \                     compactPage:
    500          {
   \   000000   74F2         MOV     A,#-0xe
   \   000002   12....       LCALL   ?BANKED_ENTER_XDATA
   \   000005                ; Saved register size: 14
   \   000005                ; Auto size: 10
   \   000005   74F6         MOV     A,#-0xa
   \   000007   12....       LCALL   ?ALLOC_XSTACK8
   \   00000A   E9           MOV     A,R1
   \   00000B   FE           MOV     R6,A
    501            uint16 dstOff = pgOff[pgRes-OSAL_NV_PAGE_BEG];
   \   00000C   90....       MOV     DPTR,#pgRes
   \   00000F   E0           MOVX    A,@DPTR
   \   000010   C3           CLR     C
   \   000011   33           RLC     A
   \   000012   F8           MOV     R0,A
   \   000013   E4           CLR     A
   \   000014   33           RLC     A
   \   000015   F9           MOV     R1,A
   \   000016   74..         MOV     A,#(pgOff + 14) & 0xff
   \   000018   28           ADD     A,R0
   \   000019   F582         MOV     DPL,A
   \   00001B   74..         MOV     A,#((pgOff - 242) >> 8) & 0xff
   \   00001D   39           ADDC    A,R1
   \   00001E   F583         MOV     DPH,A
   \   000020   E0           MOVX    A,@DPTR
   \   000021   F5..         MOV     ?V0 + 0,A
   \   000023   A3           INC     DPTR
   \   000024   E0           MOVX    A,@DPTR
   \   000025   F5..         MOV     ?V0 + 1,A
    502            uint16 srcOff = OSAL_NV_ZEROED_ID;
   \   000027   85..82       MOV     DPL,?XSP + 0
   \   00002A   85..83       MOV     DPH,?XSP + 1
   \   00002D   E4           CLR     A
   \   00002E   F0           MOVX    @DPTR,A
   \   00002F   A3           INC     DPTR
   \   000030   F0           MOVX    @DPTR,A
    503            osalNvHdr_t hdr;
    504          
    505            // Mark page as being in process of compaction.
    506            writeWordH( srcPg, OSAL_NV_PG_XFER, (uint8*)(&srcOff) );
   \   000031                ; Setup parameters for call to function writeWordH
   \   000031   85..82       MOV     DPL,?XSP + 0
   \   000034   85..83       MOV     DPH,?XSP + 1
   \   000037   AC82         MOV     R4,DPL
   \   000039   AD83         MOV     R5,DPH
   \   00003B   7A04         MOV     R2,#0x4
   \   00003D   FB           MOV     R3,A
   \   00003E   EE           MOV     A,R6
   \   00003F   F9           MOV     R1,A
   \   000040   12....       LCALL   ??writeWordH?relay
    507          
    508            srcOff = OSAL_NV_PAGE_HDR_SIZE;
   \   000043   85..82       MOV     DPL,?XSP + 0
   \   000046   85..83       MOV     DPH,?XSP + 1
   \   000049   7408         MOV     A,#0x8
   \   00004B   F0           MOVX    @DPTR,A
   \   00004C   A3           INC     DPTR
   \   00004D   E4           CLR     A
   \   00004E   02....       LJMP    ??compactPage_0 & 0xFFFF
    509          
    510            do
    511            {
    512              uint16 sz;
    513              HalFlashRead(srcPg, srcOff, (uint8 *)(&hdr), OSAL_NV_HDR_SIZE);
    514          
    515              if ( hdr.id == OSAL_NV_ERASED_ID )
    516              {
    517                break;
    518              }
    519          
    520              srcOff += OSAL_NV_HDR_SIZE;
    521          
    522              if ( (srcOff + hdr.len) > OSAL_NV_PAGE_FREE )
    523              {
    524                break;
    525              }
    526          
    527              sz = OSAL_NV_DATA_SIZE( hdr.len );
   \                     ??compactPage_1:
   \   000051   EC           MOV     A,R4
   \   000052   2403         ADD     A,#0x3
   \   000054   F8           MOV     R0,A
   \   000055   ED           MOV     A,R5
   \   000056   3400         ADDC    A,#0x0
   \   000058   F9           MOV     R1,A
   \   000059   E8           MOV     A,R0
   \   00005A   54FC         ANL     A,#0xfc
   \   00005C   F5..         MOV     ?V0 + 4,A
   \   00005E   E9           MOV     A,R1
   \   00005F   F5..         MOV     ?V0 + 5,A
    528          
    529              if ( hdr.id != OSAL_NV_ZEROED_ID )
   \   000061   7402         MOV     A,#0x2
   \   000063   12....       LCALL   ?XSTACK_DISP0_8
   \   000066   E0           MOVX    A,@DPTR
   \   000067   F8           MOV     R0,A
   \   000068   A3           INC     DPTR
   \   000069   E0           MOVX    A,@DPTR
   \   00006A   F9           MOV     R1,A
   \   00006B   E8           MOV     A,R0
   \   00006C   49           ORL     A,R1
   \   00006D   7003         JNZ     $+5
   \   00006F   02....       LJMP    ??compactPage_2 & 0xFFFF
    530              {
    531                if ( hdr.chk == calcChkF( srcPg, srcOff, hdr.len ) )
   \   000072                ; Setup parameters for call to function calcChkF
   \   000072   85..82       MOV     DPL,?XSP + 0
   \   000075   85..83       MOV     DPH,?XSP + 1
   \   000078   E0           MOVX    A,@DPTR
   \   000079   FA           MOV     R2,A
   \   00007A   A3           INC     DPTR
   \   00007B   E0           MOVX    A,@DPTR
   \   00007C   FB           MOV     R3,A
   \   00007D   EE           MOV     A,R6
   \   00007E   F9           MOV     R1,A
   \   00007F   12....       LCALL   ??calcChkF?relay
   \   000082   8A..         MOV     ?V0 + 2,R2
   \   000084   8B..         MOV     ?V0 + 3,R3
   \   000086   A8..         MOV     R0,?V0 + 2
   \   000088   A9..         MOV     R1,?V0 + 3
   \   00008A   7406         MOV     A,#0x6
   \   00008C   12....       LCALL   ?XSTACK_DISP0_8
   \   00008F   E0           MOVX    A,@DPTR
   \   000090   68           XRL     A,R0
   \   000091   7003         JNZ     ??compactPage_3
   \   000093   A3           INC     DPTR
   \   000094   E0           MOVX    A,@DPTR
   \   000095   69           XRL     A,R1
   \                     ??compactPage_3:
   \   000096   7072         JNZ     ??compactPage_4
    532                {
    533                  setItem( srcPg, srcOff, eNvXfer );
   \   000098                ; Setup parameters for call to function setItem
   \   000098   7C00         MOV     R4,#0x0
   \   00009A   85..82       MOV     DPL,?XSP + 0
   \   00009D   85..83       MOV     DPH,?XSP + 1
   \   0000A0   E0           MOVX    A,@DPTR
   \   0000A1   FA           MOV     R2,A
   \   0000A2   A3           INC     DPTR
   \   0000A3   E0           MOVX    A,@DPTR
   \   0000A4   FB           MOV     R3,A
   \   0000A5   EE           MOV     A,R6
   \   0000A6   F9           MOV     R1,A
   \   0000A7   12....       LCALL   ??setItem?relay
    534                  writeBuf( pgRes, dstOff, OSAL_NV_HDR_SIZE, (byte *)(&hdr) );
   \   0000AA                ; Setup parameters for call to function writeBuf
   \   0000AA   7402         MOV     A,#0x2
   \   0000AC   12....       LCALL   ?XSTACK_DISP0_8
   \   0000AF   8582..       MOV     ?V0 + 2,DPL
   \   0000B2   8583..       MOV     ?V0 + 3,DPH
   \   0000B5   78..         MOV     R0,#?V0 + 2
   \   0000B7   12....       LCALL   ?PUSH_XSTACK_I_TWO
   \   0000BA   7C08         MOV     R4,#0x8
   \   0000BC   7D00         MOV     R5,#0x0
   \   0000BE   AA..         MOV     R2,?V0 + 0
   \   0000C0   AB..         MOV     R3,?V0 + 1
   \   0000C2   90....       MOV     DPTR,#pgRes
   \   0000C5   E0           MOVX    A,@DPTR
   \   0000C6   F9           MOV     R1,A
   \   0000C7   12....       LCALL   ??writeBuf?relay
   \   0000CA   7402         MOV     A,#0x2
   \   0000CC   12....       LCALL   ?DEALLOC_XSTACK8
    535                  dstOff += OSAL_NV_HDR_SIZE;
   \   0000CF   E5..         MOV     A,?V0 + 0
   \   0000D1   2408         ADD     A,#0x8
   \   0000D3   F5..         MOV     ?V0 + 0,A
   \   0000D5   E5..         MOV     A,?V0 + 1
   \   0000D7   3400         ADDC    A,#0x0
   \   0000D9   F5..         MOV     ?V0 + 1,A
    536                  xferBuf( srcPg, srcOff, pgRes, dstOff, sz );
   \   0000DB                ; Setup parameters for call to function xferBuf
   \   0000DB   78..         MOV     R0,#?V0 + 4
   \   0000DD   12....       LCALL   ?PUSH_XSTACK_I_TWO
   \   0000E0   78..         MOV     R0,#?V0 + 0
   \   0000E2   12....       LCALL   ?PUSH_XSTACK_I_TWO
   \   0000E5   90....       MOV     DPTR,#pgRes
   \   0000E8   E0           MOVX    A,@DPTR
   \   0000E9   FC           MOV     R4,A
   \   0000EA   7404         MOV     A,#0x4
   \   0000EC   12....       LCALL   ?XSTACK_DISP0_8
   \   0000EF   E0           MOVX    A,@DPTR
   \   0000F0   FA           MOV     R2,A
   \   0000F1   A3           INC     DPTR
   \   0000F2   E0           MOVX    A,@DPTR
   \   0000F3   FB           MOV     R3,A
   \   0000F4   EE           MOV     A,R6
   \   0000F5   F9           MOV     R1,A
   \   0000F6   12....       LCALL   ??xferBuf?relay
   \   0000F9   7404         MOV     A,#0x4
   \   0000FB   12....       LCALL   ?DEALLOC_XSTACK8
    537                  dstOff += sz;
   \   0000FE   E5..         MOV     A,?V0 + 0
   \   000100   25..         ADD     A,?V0 + 4
   \   000102   F5..         MOV     ?V0 + 0,A
   \   000104   E5..         MOV     A,?V0 + 1
   \   000106   35..         ADDC    A,?V0 + 5
   \   000108   F5..         MOV     ?V0 + 1,A
    538                }
    539          
    540                setItem( srcPg, srcOff, eNvZero );  // Mark old location as invalid.
   \                     ??compactPage_4:
   \   00010A                ; Setup parameters for call to function setItem
   \   00010A   7C01         MOV     R4,#0x1
   \   00010C   85..82       MOV     DPL,?XSP + 0
   \   00010F   85..83       MOV     DPH,?XSP + 1
   \   000112   E0           MOVX    A,@DPTR
   \   000113   FA           MOV     R2,A
   \   000114   A3           INC     DPTR
   \   000115   E0           MOVX    A,@DPTR
   \   000116   FB           MOV     R3,A
   \   000117   EE           MOV     A,R6
   \   000118   F9           MOV     R1,A
   \   000119   12....       LCALL   ??setItem?relay
    541              }
    542          
    543              srcOff += sz;
   \                     ??compactPage_2:
   \   00011C   85..82       MOV     DPL,?XSP + 0
   \   00011F   85..83       MOV     DPH,?XSP + 1
   \   000122   E0           MOVX    A,@DPTR
   \   000123   25..         ADD     A,?V0 + 4
   \   000125   F0           MOVX    @DPTR,A
   \   000126   A3           INC     DPTR
   \   000127   E0           MOVX    A,@DPTR
   \   000128   35..         ADDC    A,?V0 + 5
   \                     ??compactPage_0:
   \   00012A   F0           MOVX    @DPTR,A
    544          
    545            } while ( TRUE );
   \   00012B                ; Setup parameters for call to function HalFlashRead
   \   00012B   75..08       MOV     ?V0 + 2,#0x8
   \   00012E   75..00       MOV     ?V0 + 3,#0x0
   \   000131   78..         MOV     R0,#?V0 + 2
   \   000133   12....       LCALL   ?PUSH_XSTACK_I_TWO
   \   000136   7404         MOV     A,#0x4
   \   000138   12....       LCALL   ?XSTACK_DISP0_8
   \   00013B   AC82         MOV     R4,DPL
   \   00013D   AD83         MOV     R5,DPH
   \   00013F   7402         MOV     A,#0x2
   \   000141   12....       LCALL   ?XSTACK_DISP0_8
   \   000144   E0           MOVX    A,@DPTR
   \   000145   FA           MOV     R2,A
   \   000146   A3           INC     DPTR
   \   000147   E0           MOVX    A,@DPTR
   \   000148   FB           MOV     R3,A
   \   000149   EE           MOV     A,R6
   \   00014A   F9           MOV     R1,A
   \   00014B   12....       LCALL   ??HalFlashRead?relay
   \   00014E   7402         MOV     A,#0x2
   \   000150   12....       LCALL   ?DEALLOC_XSTACK8
   \   000153   7402         MOV     A,#0x2
   \   000155   12....       LCALL   ?XSTACK_DISP0_8
   \   000158   E0           MOVX    A,@DPTR
   \   000159   F4           CPL     A
   \   00015A   7003         JNZ     ??compactPage_5
   \   00015C   A3           INC     DPTR
   \   00015D   E0           MOVX    A,@DPTR
   \   00015E   F4           CPL     A
   \                     ??compactPage_5:
   \   00015F   6032         JZ      ??compactPage_6
   \   000161   85..82       MOV     DPL,?XSP + 0
   \   000164   85..83       MOV     DPH,?XSP + 1
   \   000167   E0           MOVX    A,@DPTR
   \   000168   2408         ADD     A,#0x8
   \   00016A   F0           MOVX    @DPTR,A
   \   00016B   A3           INC     DPTR
   \   00016C   E0           MOVX    A,@DPTR
   \   00016D   3400         ADDC    A,#0x0
   \   00016F   F0           MOVX    @DPTR,A
   \   000170   7404         MOV     A,#0x4
   \   000172   12....       LCALL   ?XSTACK_DISP0_8
   \   000175   E0           MOVX    A,@DPTR
   \   000176   FC           MOV     R4,A
   \   000177   A3           INC     DPTR
   \   000178   E0           MOVX    A,@DPTR
   \   000179   FD           MOV     R5,A
   \   00017A   85..82       MOV     DPL,?XSP + 0
   \   00017D   85..83       MOV     DPH,?XSP + 1
   \   000180   E0           MOVX    A,@DPTR
   \   000181   2C           ADD     A,R4
   \   000182   F8           MOV     R0,A
   \   000183   A3           INC     DPTR
   \   000184   E0           MOVX    A,@DPTR
   \   000185   3D           ADDC    A,R5
   \   000186   F9           MOV     R1,A
   \   000187   C3           CLR     C
   \   000188   E8           MOV     A,R0
   \   000189   9401         SUBB    A,#0x1
   \   00018B   E9           MOV     A,R1
   \   00018C   9408         SUBB    A,#0x8
   \   00018E   5003         JNC     $+5
   \   000190   02....       LJMP    ??compactPage_1 & 0xFFFF
    546          
    547            pgOff[pgRes-OSAL_NV_PAGE_BEG] = dstOff;
   \                     ??compactPage_6:
   \   000193   90....       MOV     DPTR,#pgRes
   \   000196   E0           MOVX    A,@DPTR
   \   000197   C3           CLR     C
   \   000198   33           RLC     A
   \   000199   F8           MOV     R0,A
   \   00019A   E4           CLR     A
   \   00019B   33           RLC     A
   \   00019C   F9           MOV     R1,A
   \   00019D   74..         MOV     A,#(pgOff + 14) & 0xff
   \   00019F   28           ADD     A,R0
   \   0001A0   F582         MOV     DPL,A
   \   0001A2   74..         MOV     A,#((pgOff - 242) >> 8) & 0xff
   \   0001A4   39           ADDC    A,R1
   \   0001A5   F583         MOV     DPH,A
   \   0001A7   E5..         MOV     A,?V0 + 0
   \   0001A9   F0           MOVX    @DPTR,A
   \   0001AA   A3           INC     DPTR
   \   0001AB   E5..         MOV     A,?V0 + 1
   \   0001AD   F0           MOVX    @DPTR,A
    548          
    549            /* In order to recover from a page compaction that is interrupted,
    550             * the logic in osal_nv_init() depends upon the following order:
    551             * 1. Compacted page is erased.
    552             * 2. State of the target of compaction is changed ePgActive to ePgInUse.
    553             */
    554            erasePage( srcPg );
   \   0001AE                ; Setup parameters for call to function erasePage
   \   0001AE   EE           MOV     A,R6
   \   0001AF   F9           MOV     R1,A
   \   0001B0   12....       LCALL   ??erasePage?relay
    555          
    556            // Mark the reserve page as being in use.
    557            setPageUse( pgRes, TRUE );
   \   0001B3                ; Setup parameters for call to function setPageUse
   \   0001B3   7A01         MOV     R2,#0x1
   \   0001B5   90....       MOV     DPTR,#pgRes
   \   0001B8   E0           MOVX    A,@DPTR
   \   0001B9   F9           MOV     R1,A
   \   0001BA   12....       LCALL   ??setPageUse?relay
    558          
    559            // Set the reserve page to be the newly erased page.
    560            pgRes = srcPg;
   \   0001BD   EE           MOV     A,R6
   \   0001BE   90....       MOV     DPTR,#pgRes
   \   0001C1   F0           MOVX    @DPTR,A
    561          }
   \   0001C2   740A         MOV     A,#0xa
   \   0001C4   12....       LCALL   ?DEALLOC_XSTACK8
   \   0001C7   7F06         MOV     R7,#0x6
   \   0001C9   02....       LJMP    ?BANKED_LEAVE_XDATA
    562          
    563          /*********************************************************************
    564           * @fn      findItem
    565           *
    566           * @brief   Find an item Id in NV and return the page and offset to its data.
    567           *
    568           * @param   id - Valid NV item Id.
    569           *
    570           * @return  Offset of data corresponding to item Id, if found;
    571           *          otherwise OSAL_NV_ITEM_NULL.
    572           *
    573           *          The page containing the item, if found;
    574           *          otherwise no valid assignment made - left equal to item Id.
    575           *
    576           */

   \                                 In  segment BANKED_CODE, align 1, keep-with-next
    577          static uint16 findItem( uint16 id )
   \                     findItem:
    578          {
   \   000000   74F4         MOV     A,#-0xc
   \   000002   12....       LCALL   ?BANKED_ENTER_XDATA
   \   000005                ; Saved register size: 12
   \   000005                ; Auto size: 0
   \   000005   EA           MOV     A,R2
   \   000006   FE           MOV     R6,A
   \   000007   EB           MOV     A,R3
   \   000008   8003         SJMP    ??findItem_0
    579            uint16 off;
    580            uint8 pg;
    581          
    582            for ( pg = OSAL_NV_PAGE_BEG; pg <= OSAL_NV_PAGE_END; pg++ )
    583            {
    584              if ( (off = initPage( pg, id, FALSE )) != OSAL_NV_ITEM_NULL )
    585              {
    586                findPg = pg;
    587                return off;
    588              }
    589            }
    590          
    591            // Now attempt to find the item as the "old" item of a failed/interrupted NV write.
    592            if ( (id & OSAL_NV_SOURCE_ID) == 0 )
    593            {
    594              return findItem( id | OSAL_NV_SOURCE_ID );
   \                     ??findItem_1:
   \   00000A   7480         MOV     A,#-0x80
   \   00000C   4F           ORL     A,R7
   \                     ??findItem_0:
   \   00000D   FF           MOV     R7,A
    595            }
   \   00000E   75..79       MOV     ?V0 + 0,#0x79
   \   000011   8002         SJMP    ??findItem_2
   \                     ??findItem_3:
   \   000013   05..         INC     ?V0 + 0
   \                     ??findItem_2:
   \   000015   E5..         MOV     A,?V0 + 0
   \   000017   C3           CLR     C
   \   000018   947F         SUBB    A,#0x7f
   \   00001A   501B         JNC     ??findItem_4
   \   00001C                ; Setup parameters for call to function initPage
   \   00001C   7C00         MOV     R4,#0x0
   \   00001E   EE           MOV     A,R6
   \   00001F   FA           MOV     R2,A
   \   000020   EF           MOV     A,R7
   \   000021   FB           MOV     R3,A
   \   000022   A9..         MOV     R1,?V0 + 0
   \   000024   12....       LCALL   ??initPage?relay
   \   000027   8B..         MOV     ?V0 + 3,R3
   \   000029   A9..         MOV     R1,?V0 + 3
   \   00002B   EA           MOV     A,R2
   \   00002C   49           ORL     A,R1
   \   00002D   60E4         JZ      ??findItem_3
   \   00002F   E5..         MOV     A,?V0 + 0
   \   000031   90....       MOV     DPTR,#findPg
   \   000034   F0           MOVX    @DPTR,A
   \   000035   800C         SJMP    ??findItem_5
   \                     ??findItem_4:
   \   000037   EF           MOV     A,R7
   \   000038   5480         ANL     A,#0x80
   \   00003A   60CE         JZ      ??findItem_1
    596            else
    597            {
    598              findPg = OSAL_NV_PAGE_NULL;
   \   00003C   90....       MOV     DPTR,#findPg
   \   00003F   E4           CLR     A
   \   000040   F0           MOVX    @DPTR,A
    599              return OSAL_NV_ITEM_NULL;
   \   000041   FA           MOV     R2,A
   \   000042   FB           MOV     R3,A
   \                     ??findItem_5:
   \   000043   7F04         MOV     R7,#0x4
   \   000045   02....       LJMP    ?BANKED_LEAVE_XDATA
    600            }
    601          }
    602          
    603          /*********************************************************************
    604           * @fn      initItem
    605           *
    606           * @brief   An NV item is created and initialized with the data passed to the function, if any.
    607           *
    608           * @param   id  - Valid NV item Id.
    609           * @param   len - Item data length.
    610           * @param  *buf - Pointer to item initalization data. Set to NULL if none.
    611           *
    612           * @return  TRUE if item write and read back checksums ok; FALSE otherwise.
    613           */

   \                                 In  segment BANKED_CODE, align 1, keep-with-next
    614          static uint8 initItem( uint8 flag, uint16 id, uint16 len, void *buf )
   \                     initItem:
    615          {
   \   000000   74F1         MOV     A,#-0xf
   \   000002   12....       LCALL   ?BANKED_ENTER_XDATA
   \   000005                ; Saved register size: 15
   \   000005                ; Auto size: 0
   \   000005   E9           MOV     A,R1
   \   000006   FF           MOV     R7,A
   \   000007   740F         MOV     A,#0xf
   \   000009   12....       LCALL   ?XSTACK_DISP0_8
   \   00000C   E0           MOVX    A,@DPTR
   \   00000D   F5..         MOV     ?V0 + 2,A
   \   00000F   A3           INC     DPTR
   \   000010   E0           MOVX    A,@DPTR
   \   000011   F5..         MOV     ?V0 + 3,A
    616            uint16 sz = OSAL_NV_ITEM_SIZE( len );
   \   000013   EC           MOV     A,R4
   \   000014   2403         ADD     A,#0x3
   \   000016   F8           MOV     R0,A
   \   000017   ED           MOV     A,R5
   \   000018   3400         ADDC    A,#0x0
   \   00001A   F9           MOV     R1,A
   \   00001B   E8           MOV     A,R0
   \   00001C   54FC         ANL     A,#0xfc
   \   00001E   2408         ADD     A,#0x8
   \   000020   F5..         MOV     ?V0 + 4,A
   \   000022   E9           MOV     A,R1
   \   000023   3400         ADDC    A,#0x0
   \   000025   F5..         MOV     ?V0 + 5,A
    617            uint8 rtrn = FALSE;
   \   000027   75..00       MOV     ?V0 + 1,#0x0
    618            uint8 cnt = OSAL_NV_PAGES_USED;
   \   00002A   75..06       MOV     ?V0 + 6,#0x6
    619            uint8 pg = pgRes+1;  // Set to 1 after the reserve page to even wear across all available pages.
   \   00002D   90....       MOV     DPTR,#pgRes
   \   000030   E0           MOVX    A,@DPTR
   \   000031   04           INC     A
   \   000032   FE           MOV     R6,A
    620            uint8 idx = 0;
   \   000033   75..00       MOV     ?V0 + 0,#0x0
    621          
    622            do {
    623              if (pg >= OSAL_NV_PAGE_BEG+OSAL_NV_PAGES_USED)
   \                     ??initItem_0:
   \   000036   EE           MOV     A,R6
   \   000037   C3           CLR     C
   \   000038   947F         SUBB    A,#0x7f
   \   00003A   4002         JC      ??initItem_1
    624              {
    625                pg = OSAL_NV_PAGE_BEG;
   \   00003C   7E79         MOV     R6,#0x79
    626              }
    627              if ( pg != pgRes )
   \                     ??initItem_1:
   \   00003E   90....       MOV     DPTR,#pgRes
   \   000041   E0           MOVX    A,@DPTR
   \   000042   6E           XRL     A,R6
   \   000043   6045         JZ      ??initItem_2
    628              {
    629                idx = pg - OSAL_NV_PAGE_BEG;
   \   000045   7487         MOV     A,#-0x79
   \   000047   2E           ADD     A,R6
   \   000048   F5..         MOV     ?V0 + 0,A
    630                if ( (pgOff[idx] - pgLost[idx] + sz) <= OSAL_NV_PAGE_FREE )
   \   00004A   C3           CLR     C
   \   00004B   33           RLC     A
   \   00004C   F8           MOV     R0,A
   \   00004D   E4           CLR     A
   \   00004E   33           RLC     A
   \   00004F   F9           MOV     R1,A
   \   000050   74..         MOV     A,#pgOff & 0xff
   \   000052   28           ADD     A,R0
   \   000053   F582         MOV     DPL,A
   \   000055   74..         MOV     A,#(pgOff >> 8) & 0xff
   \   000057   39           ADDC    A,R1
   \   000058   F583         MOV     DPH,A
   \   00005A   C082         PUSH    DPL
   \   00005C   C083         PUSH    DPH
   \   00005E   74..         MOV     A,#pgLost & 0xff
   \   000060   28           ADD     A,R0
   \   000061   F582         MOV     DPL,A
   \   000063   74..         MOV     A,#(pgLost >> 8) & 0xff
   \   000065   39           ADDC    A,R1
   \   000066   F583         MOV     DPH,A
   \   000068   E0           MOVX    A,@DPTR
   \   000069   F8           MOV     R0,A
   \   00006A   A3           INC     DPTR
   \   00006B   E0           MOVX    A,@DPTR
   \   00006C   F9           MOV     R1,A
   \   00006D   D083         POP     DPH
   \   00006F   D082         POP     DPL
   \   000071   E0           MOVX    A,@DPTR
   \   000072   C3           CLR     C
   \   000073   98           SUBB    A,R0
   \   000074   F8           MOV     R0,A
   \   000075   A3           INC     DPTR
   \   000076   E0           MOVX    A,@DPTR
   \   000077   99           SUBB    A,R1
   \   000078   F9           MOV     R1,A
   \   000079   E8           MOV     A,R0
   \   00007A   25..         ADD     A,?V0 + 4
   \   00007C   F8           MOV     R0,A
   \   00007D   E9           MOV     A,R1
   \   00007E   35..         ADDC    A,?V0 + 5
   \   000080   F9           MOV     R1,A
   \   000081   C3           CLR     C
   \   000082   E8           MOV     A,R0
   \   000083   9401         SUBB    A,#0x1
   \   000085   E9           MOV     A,R1
   \   000086   9408         SUBB    A,#0x8
   \   000088   4007         JC      ??initItem_3
    631                {
    632                  break;
    633                }
    634              }
    635              pg++;
   \                     ??initItem_2:
   \   00008A   0E           INC     R6
    636            } while (--cnt);
   \   00008B   15..         DEC     ?V0 + 6
   \   00008D   E5..         MOV     A,?V0 + 6
   \   00008F   70A5         JNZ     ??initItem_0
    637          
    638            if (cnt)
   \                     ??initItem_3:
   \   000091   E5..         MOV     A,?V0 + 6
   \   000093   605F         JZ      ??initItem_4
    639            {
    640              // Item fits if an old page is compacted.
    641              if ( (pgOff[idx] + sz) > OSAL_NV_PAGE_FREE )
   \   000095   E5..         MOV     A,?V0 + 0
   \   000097   C3           CLR     C
   \   000098   33           RLC     A
   \   000099   F8           MOV     R0,A
   \   00009A   E4           CLR     A
   \   00009B   33           RLC     A
   \   00009C   F9           MOV     R1,A
   \   00009D   74..         MOV     A,#pgOff & 0xff
   \   00009F   28           ADD     A,R0
   \   0000A0   F582         MOV     DPL,A
   \   0000A2   74..         MOV     A,#(pgOff >> 8) & 0xff
   \   0000A4   39           ADDC    A,R1
   \   0000A5   F583         MOV     DPH,A
   \   0000A7   E0           MOVX    A,@DPTR
   \   0000A8   25..         ADD     A,?V0 + 4
   \   0000AA   F8           MOV     R0,A
   \   0000AB   A3           INC     DPTR
   \   0000AC   E0           MOVX    A,@DPTR
   \   0000AD   35..         ADDC    A,?V0 + 5
   \   0000AF   F9           MOV     R1,A
   \   0000B0   C3           CLR     C
   \   0000B1   E8           MOV     A,R0
   \   0000B2   9401         SUBB    A,#0x1
   \   0000B4   E9           MOV     A,R1
   \   0000B5   9408         SUBB    A,#0x8
   \   0000B7   4005         JC      ??initItem_5
    642              {
    643                pg = pgRes;
   \   0000B9   90....       MOV     DPTR,#pgRes
   \   0000BC   E0           MOVX    A,@DPTR
   \   0000BD   FE           MOV     R6,A
    644              }
    645          
    646              // New item is the first one written to the reserved page, then the old page is compacted.
    647              rtrn = writeItem( pg, id, len, buf, flag );
   \                     ??initItem_5:
   \   0000BE                ; Setup parameters for call to function writeItem
   \   0000BE   EF           MOV     A,R7
   \   0000BF   F5..         MOV     ?V0 + 1,A
   \   0000C1   78..         MOV     R0,#?V0 + 1
   \   0000C3   12....       LCALL   ?PUSH_XSTACK_I_ONE
   \   0000C6   78..         MOV     R0,#?V0 + 2
   \   0000C8   12....       LCALL   ?PUSH_XSTACK_I_TWO
   \   0000CB   EE           MOV     A,R6
   \   0000CC   F9           MOV     R1,A
   \   0000CD   12....       LCALL   ??writeItem?relay
   \   0000D0   7403         MOV     A,#0x3
   \   0000D2   12....       LCALL   ?DEALLOC_XSTACK8
   \   0000D5   E9           MOV     A,R1
   \   0000D6   F5..         MOV     ?V0 + 1,A
    648          
    649              if ( pg == pgRes )
   \   0000D8   90....       MOV     DPTR,#pgRes
   \   0000DB   E0           MOVX    A,@DPTR
   \   0000DC   6E           XRL     A,R6
   \   0000DD   7015         JNZ     ??initItem_4
    650              {
    651                if ( flag )
   \   0000DF   7479         MOV     A,#0x79
   \   0000E1   25..         ADD     A,?V0 + 0
   \   0000E3   F9           MOV     R1,A
   \   0000E4   EF           MOV     A,R7
   \   0000E5   6005         JZ      ??initItem_6
    652                {
    653                  compactPage( OSAL_NV_PAGE_BEG+idx );
   \   0000E7                ; Setup parameters for call to function compactPage
   \   0000E7   12....       LCALL   ??compactPage?relay
   \   0000EA   8008         SJMP    ??initItem_4
    654                }
    655                else
    656                {
    657                  *(uint8 *)buf = OSAL_NV_PAGE_BEG+idx;
   \                     ??initItem_6:
   \   0000EC   E9           MOV     A,R1
   \   0000ED   85..82       MOV     DPL,?V0 + 2
   \   0000F0   85..83       MOV     DPH,?V0 + 3
   \   0000F3   F0           MOVX    @DPTR,A
    658                }
    659              }
    660            }
    661          
    662            return rtrn;
   \                     ??initItem_4:
   \   0000F4   A9..         MOV     R1,?V0 + 1
   \   0000F6   7F07         MOV     R7,#0x7
   \   0000F8   02....       LJMP    ?BANKED_LEAVE_XDATA
    663          }
    664          
    665          /*********************************************************************
    666           * @fn      setItem
    667           *
    668           * @brief   Set an item Id or status to mark its state.
    669           *
    670           * @param   pg - Valid NV page.
    671           * @param   offset - Valid offset into the page of the item data - the header
    672           *                   offset is calculated from this.
    673           * @param   stat - Valid enum value for the item status.
    674           *
    675           * @return  none
    676           */

   \                                 In  segment BANKED_CODE, align 1, keep-with-next
    677          static void setItem( uint8 pg, uint16 offset, eNvHdrEnum stat )
   \                     setItem:
    678          {
   \   000000   74F2         MOV     A,#-0xe
   \   000002   12....       LCALL   ?BANKED_ENTER_XDATA
   \   000005                ; Saved register size: 14
   \   000005                ; Auto size: 8
   \   000005   74F8         MOV     A,#-0x8
   \   000007   12....       LCALL   ?ALLOC_XSTACK8
   \   00000A   89..         MOV     ?V0 + 1,R1
   \   00000C   8C..         MOV     ?V0 + 0,R4
    679            osalNvHdr_t hdr;
    680          
    681            offset -= OSAL_NV_HDR_SIZE;
   \   00000E   EA           MOV     A,R2
   \   00000F   24F8         ADD     A,#-0x8
   \   000011   F5..         MOV     ?V0 + 2,A
   \   000013   EB           MOV     A,R3
   \   000014   34FF         ADDC    A,#-0x1
   \   000016   F5..         MOV     ?V0 + 3,A
    682            HalFlashRead(pg, offset, (uint8 *)(&hdr), OSAL_NV_HDR_SIZE);
   \   000018                ; Setup parameters for call to function HalFlashRead
   \   000018   75..08       MOV     ?V0 + 4,#0x8
   \   00001B   75..00       MOV     ?V0 + 5,#0x0
   \   00001E   78..         MOV     R0,#?V0 + 4
   \   000020   12....       LCALL   ?PUSH_XSTACK_I_TWO
   \   000023   7402         MOV     A,#0x2
   \   000025   12....       LCALL   ?XSTACK_DISP0_8
   \   000028   AC82         MOV     R4,DPL
   \   00002A   AD83         MOV     R5,DPH
   \   00002C   AA..         MOV     R2,?V0 + 2
   \   00002E   AB..         MOV     R3,?V0 + 3
   \   000030   12....       LCALL   ??HalFlashRead?relay
   \   000033   7402         MOV     A,#0x2
   \   000035   12....       LCALL   ?DEALLOC_XSTACK8
    683          
    684            if ( stat == eNvXfer )
   \   000038   E5..         MOV     A,?V0 + 0
   \   00003A   7023         JNZ     ??setItem_0
    685            {
    686              hdr.stat = OSAL_NV_ACTIVE;
   \   00003C   7406         MOV     A,#0x6
   \   00003E   12....       LCALL   ?XSTACK_DISP0_8
   \   000041   E4           CLR     A
   \   000042   F0           MOVX    @DPTR,A
   \   000043   A3           INC     DPTR
   \   000044   F0           MOVX    @DPTR,A
    687              writeWord( pg, offset+OSAL_NV_HDR_CHK, (uint8*)(&(hdr.chk)) );
   \   000045                ; Setup parameters for call to function writeWord
   \   000045   7404         MOV     A,#0x4
   \   000047   12....       LCALL   ?XSTACK_DISP0_8
   \   00004A   AC82         MOV     R4,DPL
   \   00004C   AD83         MOV     R5,DPH
   \   00004E   E5..         MOV     A,?V0 + 2
   \   000050   2404         ADD     A,#0x4
   \   000052   FA           MOV     R2,A
   \   000053   E5..         MOV     A,?V0 + 3
   \   000055   3400         ADDC    A,#0x0
   \   000057   FB           MOV     R3,A
   \   000058   A9..         MOV     R1,?V0 + 1
   \   00005A   12....       LCALL   ??writeWord?relay
   \   00005D   804E         SJMP    ??setItem_1
    688          }
    689            else // if ( stat == eNvZero )
    690            {
    691              uint16 sz = ((hdr.len + (OSAL_NV_WORD_SIZE-1)) / OSAL_NV_WORD_SIZE) * OSAL_NV_WORD_SIZE +
    692                                                                                    OSAL_NV_HDR_SIZE;
   \                     ??setItem_0:
   \   00005F   7402         MOV     A,#0x2
   \   000061   12....       LCALL   ?XSTACK_DISP0_8
   \   000064   E0           MOVX    A,@DPTR
   \   000065   2403         ADD     A,#0x3
   \   000067   F8           MOV     R0,A
   \   000068   A3           INC     DPTR
   \   000069   E0           MOVX    A,@DPTR
   \   00006A   3400         ADDC    A,#0x0
   \   00006C   F9           MOV     R1,A
   \   00006D   E8           MOV     A,R0
   \   00006E   54FC         ANL     A,#0xfc
   \   000070   2408         ADD     A,#0x8
   \   000072   FE           MOV     R6,A
   \   000073   E9           MOV     A,R1
   \   000074   3400         ADDC    A,#0x0
   \   000076   FF           MOV     R7,A
    693              hdr.id = 0;
   \   000077   85..82       MOV     DPL,?XSP + 0
   \   00007A   85..83       MOV     DPH,?XSP + 1
   \   00007D   E4           CLR     A
   \   00007E   F0           MOVX    @DPTR,A
   \   00007F   A3           INC     DPTR
   \   000080   F0           MOVX    @DPTR,A
    694              writeWord( pg, offset, (uint8 *)(&hdr) );
   \   000081                ; Setup parameters for call to function writeWord
   \   000081   85..82       MOV     DPL,?XSP + 0
   \   000084   85..83       MOV     DPH,?XSP + 1
   \   000087   AC82         MOV     R4,DPL
   \   000089   AD83         MOV     R5,DPH
   \   00008B   AA..         MOV     R2,?V0 + 2
   \   00008D   AB..         MOV     R3,?V0 + 3
   \   00008F   A9..         MOV     R1,?V0 + 1
   \   000091   12....       LCALL   ??writeWord?relay
    695              pgLost[pg-OSAL_NV_PAGE_BEG] += sz;
   \   000094   E5..         MOV     A,?V0 + 1
   \   000096   C3           CLR     C
   \   000097   33           RLC     A
   \   000098   F8           MOV     R0,A
   \   000099   E4           CLR     A
   \   00009A   33           RLC     A
   \   00009B   F9           MOV     R1,A
   \   00009C   74..         MOV     A,#(pgLost + 14) & 0xff
   \   00009E   28           ADD     A,R0
   \   00009F   F582         MOV     DPL,A
   \   0000A1   74..         MOV     A,#((pgLost - 242) >> 8) & 0xff
   \   0000A3   39           ADDC    A,R1
   \   0000A4   F583         MOV     DPH,A
   \   0000A6   E0           MOVX    A,@DPTR
   \   0000A7   2E           ADD     A,R6
   \   0000A8   F0           MOVX    @DPTR,A
   \   0000A9   A3           INC     DPTR
   \   0000AA   E0           MOVX    A,@DPTR
   \   0000AB   3F           ADDC    A,R7
   \   0000AC   F0           MOVX    @DPTR,A
    696            }
    697          }
   \                     ??setItem_1:
   \   0000AD   7408         MOV     A,#0x8
   \   0000AF   12....       LCALL   ?DEALLOC_XSTACK8
   \   0000B2   7F06         MOV     R7,#0x6
   \   0000B4   02....       LJMP    ?BANKED_LEAVE_XDATA
    698          
    699          /*********************************************************************
    700           * @fn      calcChkB
    701           *
    702           * @brief   Calculates the data checksum over the 'buf' parameter.
    703           *
    704           * @param   pg - A valid NV Flash page.
    705           * @param   offset - A valid offset into the page.
    706           * @param   len - Byte count of the data to be checksummed.
    707           *
    708           * @return  Calculated checksum of the data bytes.
    709           */

   \                                 In  segment BANKED_CODE, align 1, keep-with-next
    710          static uint16 calcChkB( uint16 len, uint8 *buf )
   \                     calcChkB:
    711          {
   \   000000   74F6         MOV     A,#-0xa
   \   000002   12....       LCALL   ?BANKED_ENTER_XDATA
   \   000005                ; Saved register size: 10
   \   000005                ; Auto size: 0
   \   000005   EA           MOV     A,R2
   \   000006   F8           MOV     R0,A
   \   000007   EB           MOV     A,R3
   \   000008   F9           MOV     R1,A
    712            uint8 fill = len % OSAL_NV_WORD_SIZE;
   \   000009   E8           MOV     A,R0
   \   00000A   5403         ANL     A,#0x3
   \   00000C   F5..         MOV     ?V0 + 0,A
    713            uint16 chk;
    714          
    715            if ( !buf )
   \   00000E   EC           MOV     A,R4
   \   00000F   4D           ORL     A,R5
   \   000010   7011         JNZ     ??calcChkB_0
    716            {
    717              chk = len * OSAL_NV_ERASED;
   \   000012   EA           MOV     A,R2
   \   000013   75F0FF       MOV     B,#-0x1
   \   000016   A4           MUL     AB
   \   000017   FA           MOV     R2,A
   \   000018   A8F0         MOV     R0,B
   \   00001A   75F0FF       MOV     B,#-0x1
   \   00001D   EB           MOV     A,R3
   \   00001E   A4           MUL     AB
   \   00001F   28           ADD     A,R0
   \   000020   FB           MOV     R3,A
   \   000021   8028         SJMP    ??calcChkB_1
    718            }
    719            else
    720            {
    721              chk = 0;
   \                     ??calcChkB_0:
   \   000023   7A00         MOV     R2,#0x0
   \   000025   7B00         MOV     R3,#0x0
   \   000027   8012         SJMP    ??calcChkB_2
    722              while ( len-- )
    723              {
    724                chk += *buf++;
   \                     ??calcChkB_3:
   \   000029   8C82         MOV     DPL,R4
   \   00002B   8D83         MOV     DPH,R5
   \   00002D   E0           MOVX    A,@DPTR
   \   00002E   FE           MOV     R6,A
   \   00002F   EA           MOV     A,R2
   \   000030   2E           ADD     A,R6
   \   000031   FA           MOV     R2,A
   \   000032   EB           MOV     A,R3
   \   000033   3400         ADDC    A,#0x0
   \   000035   FB           MOV     R3,A
   \   000036   A3           INC     DPTR
   \   000037   AC82         MOV     R4,DPL
   \   000039   AD83         MOV     R5,DPH
    725              }
   \                     ??calcChkB_2:
   \   00003B   E8           MOV     A,R0
   \   00003C   FE           MOV     R6,A
   \   00003D   E9           MOV     A,R1
   \   00003E   FF           MOV     R7,A
   \   00003F   EE           MOV     A,R6
   \   000040   24FF         ADD     A,#-0x1
   \   000042   18           DEC     R0
   \   000043   EF           MOV     A,R7
   \   000044   34FF         ADDC    A,#-0x1
   \   000046   F9           MOV     R1,A
   \   000047   EE           MOV     A,R6
   \   000048   4F           ORL     A,R7
   \   000049   70DE         JNZ     ??calcChkB_3
    726            }
    727          
    728            // calcChkF() will calculate over OSAL_NV_WORD_SIZE alignment.
    729            if ( fill )
   \                     ??calcChkB_1:
   \   00004B   E5..         MOV     A,?V0 + 0
   \   00004D   601E         JZ      ??calcChkB_4
    730            {
    731              chk += (OSAL_NV_WORD_SIZE - fill) * OSAL_NV_ERASED;
   \   00004F   7404         MOV     A,#0x4
   \   000051   C3           CLR     C
   \   000052   95..         SUBB    A,?V0 + 0
   \   000054   F8           MOV     R0,A
   \   000055   95E0         SUBB    A,0xE0 /* A   */
   \   000057   F9           MOV     R1,A
   \   000058   E8           MOV     A,R0
   \   000059   75F0FF       MOV     B,#-0x1
   \   00005C   A4           MUL     AB
   \   00005D   F8           MOV     R0,A
   \   00005E   ACF0         MOV     R4,B
   \   000060   75F0FF       MOV     B,#-0x1
   \   000063   E9           MOV     A,R1
   \   000064   A4           MUL     AB
   \   000065   2C           ADD     A,R4
   \   000066   F9           MOV     R1,A
   \   000067   EA           MOV     A,R2
   \   000068   28           ADD     A,R0
   \   000069   FA           MOV     R2,A
   \   00006A   EB           MOV     A,R3
   \   00006B   39           ADDC    A,R1
   \   00006C   FB           MOV     R3,A
    732            }
    733          
    734            return chk;
   \                     ??calcChkB_4:
   \   00006D   7F02         MOV     R7,#0x2
   \   00006F   02....       LJMP    ?BANKED_LEAVE_XDATA
    735          }
    736          
    737          /*********************************************************************
    738           * @fn      calcChkF
    739           *
    740           * @brief   Calculates the data checksum by reading the data bytes from NV.
    741           *
    742           * @param   pg - A valid NV Flash page.
    743           * @param   offset - A valid offset into the page.
    744           * @param   len - Byte count of the data to be checksummed.
    745           *
    746           * @return  Calculated checksum of the data bytes.
    747           */

   \                                 In  segment BANKED_CODE, align 1, keep-with-next
    748          static uint16 calcChkF( byte pg, uint16 offset, uint16 len )
   \                     calcChkF:
    749          {
   \   000000   74F0         MOV     A,#-0x10
   \   000002   12....       LCALL   ?BANKED_ENTER_XDATA
   \   000005                ; Saved register size: 16
   \   000005                ; Auto size: 4
   \   000005   74FC         MOV     A,#-0x4
   \   000007   12....       LCALL   ?ALLOC_XSTACK8
   \   00000A   89..         MOV     ?V0 + 4,R1
   \   00000C   8A..         MOV     ?V0 + 2,R2
   \   00000E   8B..         MOV     ?V0 + 3,R3
   \   000010   EC           MOV     A,R4
   \   000011   FE           MOV     R6,A
   \   000012   ED           MOV     A,R5
   \   000013   FF           MOV     R7,A
    750            uint16 chk = 0;
   \   000014   75..00       MOV     ?V0 + 0,#0x0
   \   000017   75..00       MOV     ?V0 + 1,#0x0
    751          
    752            len = (len + (OSAL_NV_WORD_SIZE-1)) / OSAL_NV_WORD_SIZE;
   \   00001A   EE           MOV     A,R6
   \   00001B   2403         ADD     A,#0x3
   \   00001D   F5..         MOV     ?V0 + 6,A
   \   00001F   EF           MOV     A,R7
   \   000020   3400         ADDC    A,#0x0
   \   000022   F5..         MOV     ?V0 + 7,A
   \   000024   7402         MOV     A,#0x2
   \   000026   78..         MOV     R0,#?V0 + 6
   \   000028   12....       LCALL   ?US_SHR
   \   00002B   AE..         MOV     R6,?V0 + 6
   \   00002D   AF..         MOV     R7,?V0 + 7
    753          
    754            while ( len-- )
   \                     ??calcChkF_0:
   \   00002F   EE           MOV     A,R6
   \   000030   F8           MOV     R0,A
   \   000031   EF           MOV     A,R7
   \   000032   F9           MOV     R1,A
   \   000033   E8           MOV     A,R0
   \   000034   24FF         ADD     A,#-0x1
   \   000036   1E           DEC     R6
   \   000037   E9           MOV     A,R1
   \   000038   34FF         ADDC    A,#-0x1
   \   00003A   FF           MOV     R7,A
   \   00003B   E8           MOV     A,R0
   \   00003C   49           ORL     A,R1
   \   00003D   605A         JZ      ??calcChkF_1
    755            {
    756              uint8 cnt, tmp[OSAL_NV_WORD_SIZE];
    757          
    758              HalFlashRead(pg, offset, tmp, OSAL_NV_WORD_SIZE);
   \   00003F                ; Setup parameters for call to function HalFlashRead
   \   00003F   75..04       MOV     ?V0 + 6,#0x4
   \   000042   75..00       MOV     ?V0 + 7,#0x0
   \   000045   78..         MOV     R0,#?V0 + 6
   \   000047   12....       LCALL   ?PUSH_XSTACK_I_TWO
   \   00004A   7402         MOV     A,#0x2
   \   00004C   12....       LCALL   ?XSTACK_DISP0_8
   \   00004F   AC82         MOV     R4,DPL
   \   000051   AD83         MOV     R5,DPH
   \   000053   AA..         MOV     R2,?V0 + 2
   \   000055   AB..         MOV     R3,?V0 + 3
   \   000057   A9..         MOV     R1,?V0 + 4
   \   000059   12....       LCALL   ??HalFlashRead?relay
   \   00005C   7402         MOV     A,#0x2
   \   00005E   12....       LCALL   ?DEALLOC_XSTACK8
    759              offset += OSAL_NV_WORD_SIZE;
   \   000061   E5..         MOV     A,?V0 + 2
   \   000063   2404         ADD     A,#0x4
   \   000065   F5..         MOV     ?V0 + 2,A
   \   000067   E5..         MOV     A,?V0 + 3
   \   000069   3400         ADDC    A,#0x0
   \   00006B   F5..         MOV     ?V0 + 3,A
    760          
    761              for ( cnt = 0; cnt < OSAL_NV_WORD_SIZE; cnt++ )
   \   00006D   7800         MOV     R0,#0x0
   \                     ??calcChkF_2:
   \   00006F   E8           MOV     A,R0
   \   000070   C3           CLR     C
   \   000071   9404         SUBB    A,#0x4
   \   000073   50BA         JNC     ??calcChkF_0
    762              {
    763                chk += tmp[cnt];
   \   000075   88..         MOV     ?V0 + 6,R0
   \   000077   85..82       MOV     DPL,?XSP + 0
   \   00007A   85..83       MOV     DPH,?XSP + 1
   \   00007D   E582         MOV     A,DPL
   \   00007F   25..         ADD     A,?V0 + 6
   \   000081   F582         MOV     DPL,A
   \   000083   E583         MOV     A,DPH
   \   000085   3400         ADDC    A,#0x0
   \   000087   F583         MOV     DPH,A
   \   000089   E0           MOVX    A,@DPTR
   \   00008A   FA           MOV     R2,A
   \   00008B   E5..         MOV     A,?V0 + 0
   \   00008D   2A           ADD     A,R2
   \   00008E   F5..         MOV     ?V0 + 0,A
   \   000090   E5..         MOV     A,?V0 + 1
   \   000092   3400         ADDC    A,#0x0
   \   000094   F5..         MOV     ?V0 + 1,A
    764              }
   \   000096   08           INC     R0
   \   000097   80D6         SJMP    ??calcChkF_2
    765            }
    766          
    767            return chk;
   \                     ??calcChkF_1:
   \   000099   AA..         MOV     R2,?V0 + 0
   \   00009B   AB..         MOV     R3,?V0 + 1
   \   00009D   7404         MOV     A,#0x4
   \   00009F   12....       LCALL   ?DEALLOC_XSTACK8
   \   0000A2   7F08         MOV     R7,#0x8
   \   0000A4   02....       LJMP    ?BANKED_LEAVE_XDATA
    768          }
    769          
    770          /*********************************************************************
    771           * @fn      writeWord
    772           *
    773           * @brief   Writes a Flash-WORD to NV.
    774           *
    775           * @param   pg - A valid NV Flash page.
    776           * @param   offset - A valid offset into the page.
    777           * @param   buf - Pointer to source buffer.
    778           *
    779           * @return  none
    780           */

   \                                 In  segment BANKED_CODE, align 1, keep-with-next
    781          static void writeWord( uint8 pg, uint16 offset, uint8 *buf )
   \                     writeWord:
    782          {
   \   000000   74F3         MOV     A,#-0xd
   \   000002   12....       LCALL   ?BANKED_ENTER_XDATA
   \   000005                ; Saved register size: 13
   \   000005                ; Auto size: 0
   \   000005   89..         MOV     ?V0 + 4,R1
   \   000007   8A..         MOV     ?V0 + 0,R2
   \   000009   8B..         MOV     ?V0 + 1,R3
   \   00000B   EC           MOV     A,R4
   \   00000C   FE           MOV     R6,A
   \   00000D   ED           MOV     A,R5
   \   00000E   FF           MOV     R7,A
    783            offset = (offset >> 2) + ((uint16)pg << 9);
    784          
    785            if ( OSAL_NV_CHECK_BUS_VOLTAGE )
   \   00000F                ; Setup parameters for call to function HalAdcCheckVdd
   \   00000F   7904         MOV     R1,#0x4
   \   000011   12....       LCALL   ??HalAdcCheckVdd?relay
   \   000014   E9           MOV     A,R1
   \   000015   6034         JZ      ??writeWord_0
    786            {
    787              HalFlashWrite(offset, buf, 1);
   \   000017                ; Setup parameters for call to function HalFlashWrite
   \   000017   75..01       MOV     ?V0 + 2,#0x1
   \   00001A   75..00       MOV     ?V0 + 3,#0x0
   \   00001D   78..         MOV     R0,#?V0 + 2
   \   00001F   12....       LCALL   ?PUSH_XSTACK_I_TWO
   \   000022   EE           MOV     A,R6
   \   000023   FC           MOV     R4,A
   \   000024   EF           MOV     A,R7
   \   000025   FD           MOV     R5,A
   \   000026   7402         MOV     A,#0x2
   \   000028   78..         MOV     R0,#?V0 + 0
   \   00002A   12....       LCALL   ?US_SHR
   \   00002D   85....       MOV     ?V0 + 2,?V0 + 4
   \   000030   7409         MOV     A,#0x9
   \   000032   78..         MOV     R0,#?V0 + 2
   \   000034   12....       LCALL   ?S_SHL
   \   000037   E5..         MOV     A,?V0 + 0
   \   000039   2400         ADD     A,#0x0
   \   00003B   FA           MOV     R2,A
   \   00003C   E5..         MOV     A,?V0 + 1
   \   00003E   35..         ADDC    A,?V0 + 3
   \   000040   FB           MOV     R3,A
   \   000041   12....       LCALL   ??HalFlashWrite?relay
   \   000044   7402         MOV     A,#0x2
   \   000046   12....       LCALL   ?DEALLOC_XSTACK8
   \   000049   8006         SJMP    ??writeWord_1
    788            }
    789            else
    790            {
    791              failF = TRUE;
   \                     ??writeWord_0:
   \   00004B   90....       MOV     DPTR,#failF
   \   00004E   7401         MOV     A,#0x1
   \   000050   F0           MOVX    @DPTR,A
    792            }
    793          }
   \                     ??writeWord_1:
   \   000051   7F05         MOV     R7,#0x5
   \   000053   02....       LJMP    ?BANKED_LEAVE_XDATA
    794          
    795          /*********************************************************************
    796           * @fn      writeWordM
    797           *
    798           * @brief   Writes multiple Flash-WORDs to NV.
    799           *
    800           * @param   pg - A valid NV Flash page.
    801           * @param   offset - A valid offset into the page.
    802           * @param   buf - Pointer to source buffer.
    803           * @param   cnt - Number of 4-byte blocks to write.
    804           *
    805           * @return  none
    806           */

   \                                 In  segment BANKED_CODE, align 1, keep-with-next
    807          static void writeWordM( uint8 pg, uint16 offset, uint8 *buf, uint16 cnt )
   \                     writeWordM:
    808          {
   \   000000   74F3         MOV     A,#-0xd
   \   000002   12....       LCALL   ?BANKED_ENTER_XDATA
   \   000005                ; Saved register size: 13
   \   000005                ; Auto size: 0
   \   000005   89..         MOV     ?V0 + 4,R1
   \   000007   8A..         MOV     ?V0 + 0,R2
   \   000009   8B..         MOV     ?V0 + 1,R3
   \   00000B   EC           MOV     A,R4
   \   00000C   FE           MOV     R6,A
   \   00000D   ED           MOV     A,R5
   \   00000E   FF           MOV     R7,A
   \   00000F   740D         MOV     A,#0xd
   \   000011   12....       LCALL   ?XSTACK_DISP0_8
   \   000014   E0           MOVX    A,@DPTR
   \   000015   F5..         MOV     ?V0 + 2,A
   \   000017   A3           INC     DPTR
   \   000018   E0           MOVX    A,@DPTR
   \   000019   F5..         MOV     ?V0 + 3,A
    809            offset = (offset >> 2) + ((uint16)pg << 9);
    810          
    811            if ( OSAL_NV_CHECK_BUS_VOLTAGE )
   \   00001B                ; Setup parameters for call to function HalAdcCheckVdd
   \   00001B   7904         MOV     R1,#0x4
   \   00001D   12....       LCALL   ??HalAdcCheckVdd?relay
   \   000020   E9           MOV     A,R1
   \   000021   6030         JZ      ??writeWordM_0
    812            {
    813              HalFlashWrite(offset, buf, cnt);
   \   000023                ; Setup parameters for call to function HalFlashWrite
   \   000023   78..         MOV     R0,#?V0 + 2
   \   000025   12....       LCALL   ?PUSH_XSTACK_I_TWO
   \   000028   EE           MOV     A,R6
   \   000029   FC           MOV     R4,A
   \   00002A   EF           MOV     A,R7
   \   00002B   FD           MOV     R5,A
   \   00002C   7402         MOV     A,#0x2
   \   00002E   78..         MOV     R0,#?V0 + 0
   \   000030   12....       LCALL   ?US_SHR
   \   000033   85....       MOV     ?V0 + 2,?V0 + 4
   \   000036   F5..         MOV     ?V0 + 3,A
   \   000038   7409         MOV     A,#0x9
   \   00003A   78..         MOV     R0,#?V0 + 2
   \   00003C   12....       LCALL   ?S_SHL
   \   00003F   E5..         MOV     A,?V0 + 0
   \   000041   2400         ADD     A,#0x0
   \   000043   FA           MOV     R2,A
   \   000044   E5..         MOV     A,?V0 + 1
   \   000046   35..         ADDC    A,?V0 + 3
   \   000048   FB           MOV     R3,A
   \   000049   12....       LCALL   ??HalFlashWrite?relay
   \   00004C   7402         MOV     A,#0x2
   \   00004E   12....       LCALL   ?DEALLOC_XSTACK8
   \   000051   8006         SJMP    ??writeWordM_1
    814            }
    815            else
    816            {
    817              failF = TRUE;
   \                     ??writeWordM_0:
   \   000053   90....       MOV     DPTR,#failF
   \   000056   7401         MOV     A,#0x1
   \   000058   F0           MOVX    @DPTR,A
    818            }
    819          }
   \                     ??writeWordM_1:
   \   000059   7F05         MOV     R7,#0x5
   \   00005B   02....       LJMP    ?BANKED_LEAVE_XDATA
    820          
    821          /*********************************************************************
    822           * @fn      writeWordH
    823           *
    824           * @brief   Writes the 1st half of a Flash-WORD to NV (filling 2nd half with 0xffff).
    825           *
    826           * @param   pg - A valid NV Flash page.
    827           * @param   offset - A valid offset into the page.
    828           * @param   buf - Pointer to source buffer.
    829           *
    830           * @return  none
    831           */

   \                                 In  segment BANKED_CODE, align 1, keep-with-next
    832          static void writeWordH( uint8 pg, uint16 offset, uint8 *buf )
   \                     writeWordH:
    833          {
   \   000000   74F7         MOV     A,#-0x9
   \   000002   12....       LCALL   ?BANKED_ENTER_XDATA
   \   000005                ; Saved register size: 9
   \   000005                ; Auto size: 4
   \   000005   74FC         MOV     A,#-0x4
   \   000007   12....       LCALL   ?ALLOC_XSTACK8
    834            uint8 tmp[4];
    835          
    836            tmp[0] = buf[0];
   \   00000A   8C82         MOV     DPL,R4
   \   00000C   8D83         MOV     DPH,R5
   \   00000E   E0           MOVX    A,@DPTR
   \   00000F   85..82       MOV     DPL,?XSP + 0
   \   000012   85..83       MOV     DPH,?XSP + 1
   \   000015   F0           MOVX    @DPTR,A
    837            tmp[1] = buf[1];
   \   000016   8C82         MOV     DPL,R4
   \   000018   8D83         MOV     DPH,R5
   \   00001A   A3           INC     DPTR
   \   00001B   E0           MOVX    A,@DPTR
   \   00001C   C0E0         PUSH    A
   \   00001E   7401         MOV     A,#0x1
   \   000020   12....       LCALL   ?XSTACK_DISP0_8
   \   000023   D0E0         POP     A
   \   000025   F0           MOVX    @DPTR,A
    838            tmp[2] = OSAL_NV_ERASED;
   \   000026   7402         MOV     A,#0x2
   \   000028   12....       LCALL   ?XSTACK_DISP0_8
   \   00002B   74FF         MOV     A,#-0x1
   \   00002D   F0           MOVX    @DPTR,A
    839            tmp[3] = OSAL_NV_ERASED;
   \   00002E   7403         MOV     A,#0x3
   \   000030   12....       LCALL   ?XSTACK_DISP0_8
   \   000033   74FF         MOV     A,#-0x1
   \   000035   F0           MOVX    @DPTR,A
    840          
    841            writeWord( pg, offset, tmp );
   \   000036                ; Setup parameters for call to function writeWord
   \   000036   85..82       MOV     DPL,?XSP + 0
   \   000039   85..83       MOV     DPH,?XSP + 1
   \   00003C   AC82         MOV     R4,DPL
   \   00003E   AD83         MOV     R5,DPH
   \   000040   12....       LCALL   ??writeWord?relay
    842          }
   \   000043   7404         MOV     A,#0x4
   \   000045   12....       LCALL   ?DEALLOC_XSTACK8
   \   000048   7F01         MOV     R7,#0x1
   \   00004A   02....       LJMP    ?BANKED_LEAVE_XDATA
    843          
    844          /*********************************************************************
    845           * @fn      writeBuf
    846           *
    847           * @brief   Writes a data buffer to NV.
    848           *
    849           * @param   dstPg - A valid NV Flash page.
    850           * @param   offset - A valid offset into the page.
    851           * @param   len  - Byte count of the data to write.
    852           * @param   buf  - The data to write.
    853           *
    854           * @return  TRUE if data buf checksum matches read back checksum, else FALSE.
    855           */

   \                                 In  segment BANKED_CODE, align 1, keep-with-next
    856          static void writeBuf( uint8 dstPg, uint16 dstOff, uint16 len, uint8 *buf )
   \                     writeBuf:
    857          {
   \   000000   74F0         MOV     A,#-0x10
   \   000002   12....       LCALL   ?BANKED_ENTER_XDATA
   \   000005                ; Saved register size: 16
   \   000005                ; Auto size: 4
   \   000005   74FC         MOV     A,#-0x4
   \   000007   12....       LCALL   ?ALLOC_XSTACK8
   \   00000A   89..         MOV     ?V0 + 1,R1
   \   00000C   EA           MOV     A,R2
   \   00000D   FE           MOV     R6,A
   \   00000E   EB           MOV     A,R3
   \   00000F   FF           MOV     R7,A
   \   000010   8C..         MOV     ?V0 + 4,R4
   \   000012   8D..         MOV     ?V0 + 5,R5
   \   000014   7414         MOV     A,#0x14
   \   000016   12....       LCALL   ?XSTACK_DISP0_8
   \   000019   E0           MOVX    A,@DPTR
   \   00001A   F5..         MOV     ?V0 + 2,A
   \   00001C   A3           INC     DPTR
   \   00001D   E0           MOVX    A,@DPTR
   \   00001E   F5..         MOV     ?V0 + 3,A
    858            uint8 rem = dstOff % OSAL_NV_WORD_SIZE;
   \   000020   EE           MOV     A,R6
   \   000021   5403         ANL     A,#0x3
   \   000023   F5..         MOV     ?V0 + 0,A
    859            uint8 tmp[OSAL_NV_WORD_SIZE];
    860          
    861            if ( rem )
   \   000025   7003         JNZ     $+5
   \   000027   02....       LJMP    ??writeBuf_0 & 0xFFFF
    862            {
    863              dstOff = (dstOff / OSAL_NV_WORD_SIZE) * OSAL_NV_WORD_SIZE;
   \   00002A   74FC         MOV     A,#-0x4
   \   00002C   5E           ANL     A,R6
   \   00002D   FE           MOV     R6,A
    864              HalFlashRead(dstPg, dstOff, tmp, OSAL_NV_WORD_SIZE);
   \   00002E                ; Setup parameters for call to function HalFlashRead
   \   00002E   75..04       MOV     ?V0 + 6,#0x4
   \   000031   75..00       MOV     ?V0 + 7,#0x0
   \   000034   78..         MOV     R0,#?V0 + 6
   \   000036   12....       LCALL   ?PUSH_XSTACK_I_TWO
   \   000039   7402         MOV     A,#0x2
   \   00003B   12....       LCALL   ?XSTACK_DISP0_8
   \   00003E   AC82         MOV     R4,DPL
   \   000040   AD83         MOV     R5,DPH
   \   000042   EE           MOV     A,R6
   \   000043   FA           MOV     R2,A
   \   000044   12....       LCALL   ??HalFlashRead?relay
   \   000047   7402         MOV     A,#0x2
   \   000049   12....       LCALL   ?DEALLOC_XSTACK8
   \   00004C   803C         SJMP    ??writeBuf_1
    865          
    866              while ( (rem < OSAL_NV_WORD_SIZE) && len )
    867              {
    868                tmp[rem++] = *buf++;
   \                     ??writeBuf_2:
   \   00004E   85..82       MOV     DPL,?V0 + 2
   \   000051   85..83       MOV     DPH,?V0 + 3
   \   000054   E0           MOVX    A,@DPTR
   \   000055   C0E0         PUSH    A
   \   000057   85....       MOV     ?V0 + 6,?V0 + 0
   \   00005A   85..82       MOV     DPL,?XSP + 0
   \   00005D   85..83       MOV     DPH,?XSP + 1
   \   000060   E582         MOV     A,DPL
   \   000062   25..         ADD     A,?V0 + 6
   \   000064   F582         MOV     DPL,A
   \   000066   E583         MOV     A,DPH
   \   000068   3400         ADDC    A,#0x0
   \   00006A   F583         MOV     DPH,A
   \   00006C   D0E0         POP     A
   \   00006E   F0           MOVX    @DPTR,A
   \   00006F   85..82       MOV     DPL,?V0 + 2
   \   000072   85..83       MOV     DPH,?V0 + 3
   \   000075   A3           INC     DPTR
   \   000076   8582..       MOV     ?V0 + 2,DPL
   \   000079   8583..       MOV     ?V0 + 3,DPH
   \   00007C   05..         INC     ?V0 + 0
    869                len--;
   \   00007E   E5..         MOV     A,?V0 + 4
   \   000080   24FF         ADD     A,#-0x1
   \   000082   F5..         MOV     ?V0 + 4,A
   \   000084   E5..         MOV     A,?V0 + 5
   \   000086   34FF         ADDC    A,#-0x1
   \   000088   F5..         MOV     ?V0 + 5,A
    870              }
   \                     ??writeBuf_1:
   \   00008A   E5..         MOV     A,?V0 + 0
   \   00008C   C3           CLR     C
   \   00008D   9404         SUBB    A,#0x4
   \   00008F   5006         JNC     ??writeBuf_3
   \   000091   E5..         MOV     A,?V0 + 4
   \   000093   45..         ORL     A,?V0 + 5
   \   000095   70B7         JNZ     ??writeBuf_2
    871          
    872              writeWord( dstPg, dstOff, tmp );
   \                     ??writeBuf_3:
   \   000097                ; Setup parameters for call to function writeWord
   \   000097   85..82       MOV     DPL,?XSP + 0
   \   00009A   85..83       MOV     DPH,?XSP + 1
   \   00009D   AC82         MOV     R4,DPL
   \   00009F   AD83         MOV     R5,DPH
   \   0000A1   EE           MOV     A,R6
   \   0000A2   FA           MOV     R2,A
   \   0000A3   EF           MOV     A,R7
   \   0000A4   FB           MOV     R3,A
   \   0000A5   A9..         MOV     R1,?V0 + 1
   \   0000A7   12....       LCALL   ??writeWord?relay
    873              dstOff += OSAL_NV_WORD_SIZE;
   \   0000AA   EE           MOV     A,R6
   \   0000AB   2404         ADD     A,#0x4
   \   0000AD   FE           MOV     R6,A
   \   0000AE   EF           MOV     A,R7
   \   0000AF   3400         ADDC    A,#0x0
   \   0000B1   FF           MOV     R7,A
    874            }
    875          
    876            rem = len % OSAL_NV_WORD_SIZE;
   \                     ??writeBuf_0:
   \   0000B2   E5..         MOV     A,?V0 + 4
   \   0000B4   5403         ANL     A,#0x3
   \   0000B6   F5..         MOV     ?V0 + 0,A
    877            len /= OSAL_NV_WORD_SIZE;
   \   0000B8   85....       MOV     ?V0 + 6,?V0 + 4
   \   0000BB   85....       MOV     ?V0 + 7,?V0 + 5
   \   0000BE   7402         MOV     A,#0x2
   \   0000C0   78..         MOV     R0,#?V0 + 6
   \   0000C2   12....       LCALL   ?US_SHR
   \   0000C5   85....       MOV     ?V0 + 4,?V0 + 6
   \   0000C8   85....       MOV     ?V0 + 5,?V0 + 7
    878          
    879            if ( len )
   \   0000CB   E5..         MOV     A,?V0 + 4
   \   0000CD   45..         ORL     A,?V0 + 5
   \   0000CF   6032         JZ      ??writeBuf_4
    880            {
    881              writeWordM( dstPg, dstOff, buf, len );
   \   0000D1                ; Setup parameters for call to function writeWordM
   \   0000D1   78..         MOV     R0,#?V0 + 4
   \   0000D3   12....       LCALL   ?PUSH_XSTACK_I_TWO
   \   0000D6   AC..         MOV     R4,?V0 + 2
   \   0000D8   AD..         MOV     R5,?V0 + 3
   \   0000DA   EE           MOV     A,R6
   \   0000DB   FA           MOV     R2,A
   \   0000DC   EF           MOV     A,R7
   \   0000DD   FB           MOV     R3,A
   \   0000DE   A9..         MOV     R1,?V0 + 1
   \   0000E0   12....       LCALL   ??writeWordM?relay
   \   0000E3   7402         MOV     A,#0x2
   \   0000E5   12....       LCALL   ?DEALLOC_XSTACK8
    882              dstOff += OSAL_NV_WORD_SIZE * len;
   \   0000E8   7402         MOV     A,#0x2
   \   0000EA   78..         MOV     R0,#?V0 + 4
   \   0000EC   12....       LCALL   ?S_SHL
   \   0000EF   A8..         MOV     R0,?V0 + 4
   \   0000F1   A9..         MOV     R1,?V0 + 5
   \   0000F3   EE           MOV     A,R6
   \   0000F4   28           ADD     A,R0
   \   0000F5   FE           MOV     R6,A
   \   0000F6   EF           MOV     A,R7
   \   0000F7   39           ADDC    A,R1
   \   0000F8   FF           MOV     R7,A
    883              buf += OSAL_NV_WORD_SIZE * len;
   \   0000F9   E5..         MOV     A,?V0 + 2
   \   0000FB   28           ADD     A,R0
   \   0000FC   F5..         MOV     ?V0 + 2,A
   \   0000FE   E5..         MOV     A,?V0 + 3
   \   000100   39           ADDC    A,R1
   \   000101   F5..         MOV     ?V0 + 3,A
    884            }
    885          
    886            if ( rem )
   \                     ??writeBuf_4:
   \   000103   E5..         MOV     A,?V0 + 0
   \   000105   6076         JZ      ??writeBuf_5
    887            {
    888              uint8 idx = 0;
   \   000107   75..00       MOV     ?V0 + 6,#0x0
    889              HalFlashRead(dstPg, dstOff, tmp, OSAL_NV_WORD_SIZE);
   \   00010A                ; Setup parameters for call to function HalFlashRead
   \   00010A   75..04       MOV     ?V0 + 4,#0x4
   \   00010D   75..00       MOV     ?V0 + 5,#0x0
   \   000110   78..         MOV     R0,#?V0 + 4
   \   000112   12....       LCALL   ?PUSH_XSTACK_I_TWO
   \   000115   7402         MOV     A,#0x2
   \   000117   12....       LCALL   ?XSTACK_DISP0_8
   \   00011A   AC82         MOV     R4,DPL
   \   00011C   AD83         MOV     R5,DPH
   \   00011E   EE           MOV     A,R6
   \   00011F   FA           MOV     R2,A
   \   000120   EF           MOV     A,R7
   \   000121   FB           MOV     R3,A
   \   000122   A9..         MOV     R1,?V0 + 1
   \   000124   12....       LCALL   ??HalFlashRead?relay
   \   000127   7402         MOV     A,#0x2
   \   000129   12....       LCALL   ?DEALLOC_XSTACK8
   \   00012C   8030         SJMP    ??writeBuf_6
    890              while ( rem-- )
    891              {
    892                tmp[idx++] = *buf++;
   \                     ??writeBuf_7:
   \   00012E   85..82       MOV     DPL,?V0 + 2
   \   000131   85..83       MOV     DPH,?V0 + 3
   \   000134   E0           MOVX    A,@DPTR
   \   000135   C0E0         PUSH    A
   \   000137   85....       MOV     ?V0 + 4,?V0 + 6
   \   00013A   85..82       MOV     DPL,?XSP + 0
   \   00013D   85..83       MOV     DPH,?XSP + 1
   \   000140   E582         MOV     A,DPL
   \   000142   25..         ADD     A,?V0 + 4
   \   000144   F582         MOV     DPL,A
   \   000146   E583         MOV     A,DPH
   \   000148   3400         ADDC    A,#0x0
   \   00014A   F583         MOV     DPH,A
   \   00014C   D0E0         POP     A
   \   00014E   F0           MOVX    @DPTR,A
   \   00014F   85..82       MOV     DPL,?V0 + 2
   \   000152   85..83       MOV     DPH,?V0 + 3
   \   000155   A3           INC     DPTR
   \   000156   8582..       MOV     ?V0 + 2,DPL
   \   000159   8583..       MOV     ?V0 + 3,DPH
   \   00015C   05..         INC     ?V0 + 6
    893              }
   \                     ??writeBuf_6:
   \   00015E   85....       MOV     ?V0 + 4,?V0 + 0
   \   000161   74FF         MOV     A,#-0x1
   \   000163   25..         ADD     A,?V0 + 4
   \   000165   F5..         MOV     ?V0 + 0,A
   \   000167   04           INC     A
   \   000168   70C4         JNZ     ??writeBuf_7
    894              writeWord( dstPg, dstOff, tmp );
   \   00016A                ; Setup parameters for call to function writeWord
   \   00016A   85..82       MOV     DPL,?XSP + 0
   \   00016D   85..83       MOV     DPH,?XSP + 1
   \   000170   AC82         MOV     R4,DPL
   \   000172   AD83         MOV     R5,DPH
   \   000174   EE           MOV     A,R6
   \   000175   FA           MOV     R2,A
   \   000176   EF           MOV     A,R7
   \   000177   FB           MOV     R3,A
   \   000178   A9..         MOV     R1,?V0 + 1
   \   00017A   12....       LCALL   ??writeWord?relay
    895            }
    896          }
   \                     ??writeBuf_5:
   \   00017D   7404         MOV     A,#0x4
   \   00017F   12....       LCALL   ?DEALLOC_XSTACK8
   \   000182   7F08         MOV     R7,#0x8
   \   000184   02....       LJMP    ?BANKED_LEAVE_XDATA
    897          
    898          /*********************************************************************
    899           * @fn      xferBuf
    900           *
    901           * @brief   Xfers an NV buffer from one location to another, enforcing OSAL_NV_WORD_SIZE writes.
    902           *
    903           * @return  none
    904           */

   \                                 In  segment BANKED_CODE, align 1, keep-with-next
    905          static void xferBuf( uint8 srcPg, uint16 srcOff, uint8 dstPg, uint16 dstOff, uint16 len )
   \                     xferBuf:
    906          {
   \   000000   74EE         MOV     A,#-0x12
   \   000002   12....       LCALL   ?BANKED_ENTER_XDATA
   \   000005                ; Saved register size: 18
   \   000005                ; Auto size: 4
   \   000005   74FC         MOV     A,#-0x4
   \   000007   12....       LCALL   ?ALLOC_XSTACK8
   \   00000A   89..         MOV     ?V0 + 6,R1
   \   00000C   8A..         MOV     ?V0 + 4,R2
   \   00000E   8B..         MOV     ?V0 + 5,R3
   \   000010   8C..         MOV     ?V0 + 3,R4
   \   000012   7416         MOV     A,#0x16
   \   000014   12....       LCALL   ?XSTACK_DISP0_8
   \   000017   E0           MOVX    A,@DPTR
   \   000018   F5..         MOV     ?V0 + 0,A
   \   00001A   A3           INC     DPTR
   \   00001B   E0           MOVX    A,@DPTR
   \   00001C   F5..         MOV     ?V0 + 1,A
   \   00001E   7418         MOV     A,#0x18
   \   000020   12....       LCALL   ?XSTACK_DISP0_8
   \   000023   E0           MOVX    A,@DPTR
   \   000024   FE           MOV     R6,A
   \   000025   A3           INC     DPTR
   \   000026   E0           MOVX    A,@DPTR
   \   000027   FF           MOV     R7,A
    907            uint8 rem = dstOff % OSAL_NV_WORD_SIZE;
   \   000028   E5..         MOV     A,?V0 + 0
   \   00002A   5403         ANL     A,#0x3
   \   00002C   F5..         MOV     ?V0 + 2,A
    908            uint8 tmp[OSAL_NV_WORD_SIZE];
    909          
    910            if ( rem )
   \   00002E   7003         JNZ     $+5
   \   000030   02....       LJMP    ??xferBuf_0 & 0xFFFF
    911            {
    912              dstOff -= rem;
   \   000033   F5..         MOV     ?V0 + 8,A
   \   000035   C3           CLR     C
   \   000036   E5..         MOV     A,?V0 + 0
   \   000038   95..         SUBB    A,?V0 + 8
   \   00003A   F5..         MOV     ?V0 + 0,A
   \   00003C   E5..         MOV     A,?V0 + 1
   \   00003E   9400         SUBB    A,#0x0
   \   000040   F5..         MOV     ?V0 + 1,A
    913              HalFlashRead(dstPg, dstOff, tmp, OSAL_NV_WORD_SIZE);
   \   000042                ; Setup parameters for call to function HalFlashRead
   \   000042   75..04       MOV     ?V0 + 8,#0x4
   \   000045   75..00       MOV     ?V0 + 9,#0x0
   \   000048   78..         MOV     R0,#?V0 + 8
   \   00004A   12....       LCALL   ?PUSH_XSTACK_I_TWO
   \   00004D   7402         MOV     A,#0x2
   \   00004F   12....       LCALL   ?XSTACK_DISP0_8
   \   000052   AC82         MOV     R4,DPL
   \   000054   AD83         MOV     R5,DPH
   \   000056   AA..         MOV     R2,?V0 + 0
   \   000058   AB..         MOV     R3,?V0 + 1
   \   00005A   A9..         MOV     R1,?V0 + 3
   \   00005C   12....       LCALL   ??HalFlashRead?relay
   \   00005F   7402         MOV     A,#0x2
   \   000061   12....       LCALL   ?DEALLOC_XSTACK8
   \   000064   803E         SJMP    ??xferBuf_1
    914          
    915              while ( (rem < OSAL_NV_WORD_SIZE) && len )
    916              {
    917                HalFlashRead(srcPg, srcOff, tmp+rem, 1);
   \                     ??xferBuf_2:
   \   000066                ; Setup parameters for call to function HalFlashRead
   \   000066   75..01       MOV     ?V0 + 8,#0x1
   \   000069   78..         MOV     R0,#?V0 + 8
   \   00006B   12....       LCALL   ?PUSH_XSTACK_I_TWO
   \   00006E   85....       MOV     ?V0 + 8,?V0 + 2
   \   000071   7402         MOV     A,#0x2
   \   000073   12....       LCALL   ?XSTACK_DISP0_8
   \   000076   E582         MOV     A,DPL
   \   000078   25..         ADD     A,?V0 + 8
   \   00007A   FC           MOV     R4,A
   \   00007B   E583         MOV     A,DPH
   \   00007D   3400         ADDC    A,#0x0
   \   00007F   FD           MOV     R5,A
   \   000080   AA..         MOV     R2,?V0 + 4
   \   000082   AB..         MOV     R3,?V0 + 5
   \   000084   A9..         MOV     R1,?V0 + 6
   \   000086   12....       LCALL   ??HalFlashRead?relay
   \   000089   7402         MOV     A,#0x2
   \   00008B   12....       LCALL   ?DEALLOC_XSTACK8
    918                srcOff++;
   \   00008E   E5..         MOV     A,?V0 + 4
   \   000090   2401         ADD     A,#0x1
   \   000092   F5..         MOV     ?V0 + 4,A
   \   000094   E5..         MOV     A,?V0 + 5
   \   000096   3400         ADDC    A,#0x0
   \   000098   F5..         MOV     ?V0 + 5,A
    919                rem++;
   \   00009A   05..         INC     ?V0 + 2
    920                len--;
   \   00009C   EE           MOV     A,R6
   \   00009D   24FF         ADD     A,#-0x1
   \   00009F   1E           DEC     R6
   \   0000A0   EF           MOV     A,R7
   \   0000A1   34FF         ADDC    A,#-0x1
   \   0000A3   FF           MOV     R7,A
    921              }
   \                     ??xferBuf_1:
   \   0000A4   E5..         MOV     A,?V0 + 2
   \   0000A6   C3           CLR     C
   \   0000A7   9404         SUBB    A,#0x4
   \   0000A9   5004         JNC     ??xferBuf_3
   \   0000AB   EE           MOV     A,R6
   \   0000AC   4F           ORL     A,R7
   \   0000AD   70B7         JNZ     ??xferBuf_2
    922          
    923              writeWord( dstPg, dstOff, tmp );
   \                     ??xferBuf_3:
   \   0000AF                ; Setup parameters for call to function writeWord
   \   0000AF   85..82       MOV     DPL,?XSP + 0
   \   0000B2   85..83       MOV     DPH,?XSP + 1
   \   0000B5   AC82         MOV     R4,DPL
   \   0000B7   AD83         MOV     R5,DPH
   \   0000B9   AA..         MOV     R2,?V0 + 0
   \   0000BB   AB..         MOV     R3,?V0 + 1
   \   0000BD   A9..         MOV     R1,?V0 + 3
   \   0000BF   12....       LCALL   ??writeWord?relay
    924              dstOff += OSAL_NV_WORD_SIZE;
   \   0000C2   E5..         MOV     A,?V0 + 0
   \   0000C4   2404         ADD     A,#0x4
   \   0000C6   F5..         MOV     ?V0 + 0,A
   \   0000C8   E5..         MOV     A,?V0 + 1
   \   0000CA   3400         ADDC    A,#0x0
   \   0000CC   F5..         MOV     ?V0 + 1,A
    925            }
    926          
    927            rem = len % OSAL_NV_WORD_SIZE;
   \                     ??xferBuf_0:
   \   0000CE   EE           MOV     A,R6
   \   0000CF   5403         ANL     A,#0x3
   \   0000D1   F5..         MOV     ?V0 + 2,A
    928            len /= OSAL_NV_WORD_SIZE;
   \   0000D3   8E..         MOV     ?V0 + 8,R6
   \   0000D5   8F..         MOV     ?V0 + 9,R7
   \   0000D7   7402         MOV     A,#0x2
   \   0000D9   78..         MOV     R0,#?V0 + 8
   \   0000DB   12....       LCALL   ?US_SHR
   \   0000DE   AE..         MOV     R6,?V0 + 8
   \   0000E0   AF..         MOV     R7,?V0 + 9
   \   0000E2   804D         SJMP    ??xferBuf_4
    929          
    930            while ( len-- )
    931            {
    932              HalFlashRead(srcPg, srcOff, tmp, OSAL_NV_WORD_SIZE);
   \                     ??xferBuf_5:
   \   0000E4                ; Setup parameters for call to function HalFlashRead
   \   0000E4   75..04       MOV     ?V0 + 8,#0x4
   \   0000E7   75..00       MOV     ?V0 + 9,#0x0
   \   0000EA   78..         MOV     R0,#?V0 + 8
   \   0000EC   12....       LCALL   ?PUSH_XSTACK_I_TWO
   \   0000EF   7402         MOV     A,#0x2
   \   0000F1   12....       LCALL   ?XSTACK_DISP0_8
   \   0000F4   AC82         MOV     R4,DPL
   \   0000F6   AD83         MOV     R5,DPH
   \   0000F8   AA..         MOV     R2,?V0 + 4
   \   0000FA   AB..         MOV     R3,?V0 + 5
   \   0000FC   A9..         MOV     R1,?V0 + 6
   \   0000FE   12....       LCALL   ??HalFlashRead?relay
   \   000101   7402         MOV     A,#0x2
   \   000103   12....       LCALL   ?DEALLOC_XSTACK8
    933              srcOff += OSAL_NV_WORD_SIZE;
   \   000106   E5..         MOV     A,?V0 + 4
   \   000108   2404         ADD     A,#0x4
   \   00010A   F5..         MOV     ?V0 + 4,A
   \   00010C   E5..         MOV     A,?V0 + 5
   \   00010E   3400         ADDC    A,#0x0
   \   000110   F5..         MOV     ?V0 + 5,A
    934              writeWord( dstPg, dstOff, tmp );
   \   000112                ; Setup parameters for call to function writeWord
   \   000112   85..82       MOV     DPL,?XSP + 0
   \   000115   85..83       MOV     DPH,?XSP + 1
   \   000118   AC82         MOV     R4,DPL
   \   00011A   AD83         MOV     R5,DPH
   \   00011C   AA..         MOV     R2,?V0 + 0
   \   00011E   AB..         MOV     R3,?V0 + 1
   \   000120   A9..         MOV     R1,?V0 + 3
   \   000122   12....       LCALL   ??writeWord?relay
    935              dstOff += OSAL_NV_WORD_SIZE;
   \   000125   E5..         MOV     A,?V0 + 0
   \   000127   2404         ADD     A,#0x4
   \   000129   F5..         MOV     ?V0 + 0,A
   \   00012B   E5..         MOV     A,?V0 + 1
   \   00012D   3400         ADDC    A,#0x0
   \   00012F   F5..         MOV     ?V0 + 1,A
    936            }
   \                     ??xferBuf_4:
   \   000131   EE           MOV     A,R6
   \   000132   F8           MOV     R0,A
   \   000133   EF           MOV     A,R7
   \   000134   F9           MOV     R1,A
   \   000135   E8           MOV     A,R0
   \   000136   24FF         ADD     A,#-0x1
   \   000138   1E           DEC     R6
   \   000139   E9           MOV     A,R1
   \   00013A   34FF         ADDC    A,#-0x1
   \   00013C   FF           MOV     R7,A
   \   00013D   E8           MOV     A,R0
   \   00013E   49           ORL     A,R1
   \   00013F   70A3         JNZ     ??xferBuf_5
    937          
    938            if ( rem )
   \   000141   E5..         MOV     A,?V0 + 2
   \   000143   6076         JZ      ??xferBuf_6
    939            {
    940              uint8 idx = 0;
   \   000145   7E00         MOV     R6,#0x0
    941              HalFlashRead(dstPg, dstOff, tmp, OSAL_NV_WORD_SIZE);
   \   000147                ; Setup parameters for call to function HalFlashRead
   \   000147   75..04       MOV     ?V0 + 8,#0x4
   \   00014A   8E..         MOV     ?V0 + 9,R6
   \   00014C   78..         MOV     R0,#?V0 + 8
   \   00014E   12....       LCALL   ?PUSH_XSTACK_I_TWO
   \   000151   7402         MOV     A,#0x2
   \   000153   12....       LCALL   ?XSTACK_DISP0_8
   \   000156   AC82         MOV     R4,DPL
   \   000158   AD83         MOV     R5,DPH
   \   00015A   AA..         MOV     R2,?V0 + 0
   \   00015C   AB..         MOV     R3,?V0 + 1
   \   00015E   A9..         MOV     R1,?V0 + 3
   \   000160   12....       LCALL   ??HalFlashRead?relay
   \   000163   7402         MOV     A,#0x2
   \   000165   12....       LCALL   ?DEALLOC_XSTACK8
   \   000168   8034         SJMP    ??xferBuf_7
    942              while ( rem-- )
    943              {
    944                HalFlashRead(srcPg, srcOff, tmp+idx, 1);
   \                     ??xferBuf_8:
   \   00016A                ; Setup parameters for call to function HalFlashRead
   \   00016A   75..01       MOV     ?V0 + 8,#0x1
   \   00016D   78..         MOV     R0,#?V0 + 8
   \   00016F   12....       LCALL   ?PUSH_XSTACK_I_TWO
   \   000172   8E..         MOV     ?V0 + 8,R6
   \   000174   7402         MOV     A,#0x2
   \   000176   12....       LCALL   ?XSTACK_DISP0_8
   \   000179   E582         MOV     A,DPL
   \   00017B   25..         ADD     A,?V0 + 8
   \   00017D   FC           MOV     R4,A
   \   00017E   E583         MOV     A,DPH
   \   000180   3400         ADDC    A,#0x0
   \   000182   FD           MOV     R5,A
   \   000183   AA..         MOV     R2,?V0 + 4
   \   000185   AB..         MOV     R3,?V0 + 5
   \   000187   A9..         MOV     R1,?V0 + 6
   \   000189   12....       LCALL   ??HalFlashRead?relay
   \   00018C   7402         MOV     A,#0x2
   \   00018E   12....       LCALL   ?DEALLOC_XSTACK8
    945                srcOff++;
   \   000191   E5..         MOV     A,?V0 + 4
   \   000193   2401         ADD     A,#0x1
   \   000195   F5..         MOV     ?V0 + 4,A
   \   000197   E5..         MOV     A,?V0 + 5
   \   000199   3400         ADDC    A,#0x0
   \   00019B   F5..         MOV     ?V0 + 5,A
    946                idx++;
   \   00019D   0E           INC     R6
    947              }
   \                     ??xferBuf_7:
   \   00019E   AF..         MOV     R7,?V0 + 2
   \   0001A0   74FF         MOV     A,#-0x1
   \   0001A2   2F           ADD     A,R7
   \   0001A3   F5..         MOV     ?V0 + 2,A
   \   0001A5   04           INC     A
   \   0001A6   70C2         JNZ     ??xferBuf_8
    948              writeWord( dstPg, dstOff, tmp );
   \   0001A8                ; Setup parameters for call to function writeWord
   \   0001A8   85..82       MOV     DPL,?XSP + 0
   \   0001AB   85..83       MOV     DPH,?XSP + 1
   \   0001AE   AC82         MOV     R4,DPL
   \   0001B0   AD83         MOV     R5,DPH
   \   0001B2   AA..         MOV     R2,?V0 + 0
   \   0001B4   AB..         MOV     R3,?V0 + 1
   \   0001B6   A9..         MOV     R1,?V0 + 3
   \   0001B8   12....       LCALL   ??writeWord?relay
    949            }
    950          }
   \                     ??xferBuf_6:
   \   0001BB   7404         MOV     A,#0x4
   \   0001BD   12....       LCALL   ?DEALLOC_XSTACK8
   \   0001C0   7F0A         MOV     R7,#0xa
   \   0001C2   02....       LJMP    ?BANKED_LEAVE_XDATA
    951          
    952          /*********************************************************************
    953           * @fn      writeItem
    954           *
    955           * @brief   Writes an item header/data combo to the specified NV page.
    956           *
    957           * @param   pg - Valid NV Flash page.
    958           * @param   id - Valid NV item Id.
    959           * @param   len  - Byte count of the data to write.
    960           * @param   buf  - The data to write. If NULL, no data/checksum write.
    961           * @param   flag - TRUE if the checksum should be written, FALSE otherwise.
    962           *
    963           * @return  TRUE if header/data to write matches header/data read back, else FALSE.
    964           */

   \                                 In  segment BANKED_CODE, align 1, keep-with-next
    965          static uint8 writeItem( uint8 pg, uint16 id, uint16 len, void *buf, uint8 flag )
   \                     writeItem:
    966          {
   \   000000   74EA         MOV     A,#-0x16
   \   000002   12....       LCALL   ?BANKED_ENTER_XDATA
   \   000005                ; Saved register size: 22
   \   000005                ; Auto size: 10
   \   000005   74F6         MOV     A,#-0xa
   \   000007   12....       LCALL   ?ALLOC_XSTACK8
   \   00000A   89..         MOV     ?V0 + 0,R1
   \   00000C   8A..         MOV     ?V0 + 8,R2
   \   00000E   8B..         MOV     ?V0 + 9,R3
   \   000010   8C..         MOV     ?V0 + 2,R4
   \   000012   8D..         MOV     ?V0 + 3,R5
   \   000014   7420         MOV     A,#0x20
   \   000016   12....       LCALL   ?XSTACK_DISP0_8
   \   000019   E0           MOVX    A,@DPTR
   \   00001A   F5..         MOV     ?V0 + 6,A
   \   00001C   A3           INC     DPTR
   \   00001D   E0           MOVX    A,@DPTR
   \   00001E   F5..         MOV     ?V0 + 7,A
   \   000020   7422         MOV     A,#0x22
   \   000022   12....       LCALL   ?XSTACK_DISP0_8
   \   000025   E0           MOVX    A,@DPTR
   \   000026   F5..         MOV     ?V0 + 4,A
    967            uint16 offset = pgOff[pg-OSAL_NV_PAGE_BEG];
   \   000028   E9           MOV     A,R1
   \   000029   C3           CLR     C
   \   00002A   33           RLC     A
   \   00002B   F8           MOV     R0,A
   \   00002C   E4           CLR     A
   \   00002D   33           RLC     A
   \   00002E   F9           MOV     R1,A
   \   00002F   74..         MOV     A,#(pgOff + 14) & 0xff
   \   000031   28           ADD     A,R0
   \   000032   F5..         MOV     ?V0 + 12,A
   \   000034   74..         MOV     A,#((pgOff - 242) >> 8) & 0xff
   \   000036   39           ADDC    A,R1
   \   000037   F5..         MOV     ?V0 + 13,A
   \   000039   85..82       MOV     DPL,?V0 + 12
   \   00003C   F583         MOV     DPH,A
   \   00003E   E0           MOVX    A,@DPTR
   \   00003F   FE           MOV     R6,A
   \   000040   A3           INC     DPTR
   \   000041   E0           MOVX    A,@DPTR
   \   000042   FF           MOV     R7,A
    968            uint8 rtrn = FALSE;
   \   000043   75..00       MOV     ?V0 + 1,#0x0
    969            osalNvHdr_t hdr;
    970          
    971            if ( pg == pgRes )
   \   000046   90....       MOV     DPTR,#pgRes
   \   000049   E0           MOVX    A,@DPTR
   \   00004A   65..         XRL     A,?V0 + 0
   \   00004C   7007         JNZ     ??writeItem_0
    972            {
    973              /* Mark reserve page as being active, in process of receiving items.
    974               * Invoking function must effect a page compaction.
    975               */
    976              setPageUse( pg, FALSE );
   \   00004E                ; Setup parameters for call to function setPageUse
   \   00004E   7A00         MOV     R2,#0x0
   \   000050   A9..         MOV     R1,?V0 + 0
   \   000052   12....       LCALL   ??setPageUse?relay
    977            }
    978          
    979            hdr.id = id;
   \                     ??writeItem_0:
   \   000055   7402         MOV     A,#0x2
   \   000057   12....       LCALL   ?XSTACK_DISP0_8
   \   00005A   E5..         MOV     A,?V0 + 8
   \   00005C   F0           MOVX    @DPTR,A
   \   00005D   A3           INC     DPTR
   \   00005E   E5..         MOV     A,?V0 + 9
   \   000060   F0           MOVX    @DPTR,A
    980            hdr.len = len;
   \   000061   7404         MOV     A,#0x4
   \   000063   12....       LCALL   ?XSTACK_DISP0_8
   \   000066   E5..         MOV     A,?V0 + 2
   \   000068   F0           MOVX    @DPTR,A
   \   000069   A3           INC     DPTR
   \   00006A   E5..         MOV     A,?V0 + 3
   \   00006C   F0           MOVX    @DPTR,A
    981          
    982            writeWord( pg, offset, (uint8 *)&hdr );
   \   00006D                ; Setup parameters for call to function writeWord
   \   00006D   7402         MOV     A,#0x2
   \   00006F   12....       LCALL   ?XSTACK_DISP0_8
   \   000072   AC82         MOV     R4,DPL
   \   000074   AD83         MOV     R5,DPH
   \   000076   EE           MOV     A,R6
   \   000077   FA           MOV     R2,A
   \   000078   EF           MOV     A,R7
   \   000079   FB           MOV     R3,A
   \   00007A   A9..         MOV     R1,?V0 + 0
   \   00007C   12....       LCALL   ??writeWord?relay
    983            HalFlashRead(pg, offset, (uint8 *)(&hdr), OSAL_NV_HDR_SIZE);
   \   00007F                ; Setup parameters for call to function HalFlashRead
   \   00007F   75..08       MOV     ?V0 + 10,#0x8
   \   000082   75..00       MOV     ?V0 + 11,#0x0
   \   000085   78..         MOV     R0,#?V0 + 10
   \   000087   12....       LCALL   ?PUSH_XSTACK_I_TWO
   \   00008A   7404         MOV     A,#0x4
   \   00008C   12....       LCALL   ?XSTACK_DISP0_8
   \   00008F   AC82         MOV     R4,DPL
   \   000091   AD83         MOV     R5,DPH
   \   000093   EE           MOV     A,R6
   \   000094   FA           MOV     R2,A
   \   000095   EF           MOV     A,R7
   \   000096   FB           MOV     R3,A
   \   000097   A9..         MOV     R1,?V0 + 0
   \   000099   12....       LCALL   ??HalFlashRead?relay
   \   00009C   7402         MOV     A,#0x2
   \   00009E   12....       LCALL   ?DEALLOC_XSTACK8
    984          
    985            if ( (hdr.id == id) && (hdr.len == len) )
   \   0000A1   7402         MOV     A,#0x2
   \   0000A3   12....       LCALL   ?XSTACK_DISP0_8
   \   0000A6   E0           MOVX    A,@DPTR
   \   0000A7   65..         XRL     A,?V0 + 8
   \   0000A9   7004         JNZ     ??writeItem_1
   \   0000AB   A3           INC     DPTR
   \   0000AC   E0           MOVX    A,@DPTR
   \   0000AD   65..         XRL     A,?V0 + 9
   \                     ??writeItem_1:
   \   0000AF   6003         JZ      $+5
   \   0000B1   02....       LJMP    ??writeItem_2 & 0xFFFF
   \   0000B4   7404         MOV     A,#0x4
   \   0000B6   12....       LCALL   ?XSTACK_DISP0_8
   \   0000B9   E0           MOVX    A,@DPTR
   \   0000BA   65..         XRL     A,?V0 + 2
   \   0000BC   7004         JNZ     ??writeItem_3
   \   0000BE   A3           INC     DPTR
   \   0000BF   E0           MOVX    A,@DPTR
   \   0000C0   65..         XRL     A,?V0 + 3
   \                     ??writeItem_3:
   \   0000C2   6003         JZ      $+5
   \   0000C4   02....       LJMP    ??writeItem_2 & 0xFFFF
    986            {
    987              if ( flag )
   \   0000C7   E5..         MOV     A,?V0 + 4
   \   0000C9   7003         JNZ     $+5
   \   0000CB   02....       LJMP    ??writeItem_4 & 0xFFFF
    988              {
    989                uint16 chk = calcChkB( len, buf );
   \   0000CE                ; Setup parameters for call to function calcChkB
   \   0000CE   AC..         MOV     R4,?V0 + 6
   \   0000D0   AD..         MOV     R5,?V0 + 7
   \   0000D2   AA..         MOV     R2,?V0 + 2
   \   0000D4   AB..         MOV     R3,?V0 + 3
   \   0000D6   12....       LCALL   ??calcChkB?relay
   \   0000D9   85..82       MOV     DPL,?XSP + 0
   \   0000DC   85..83       MOV     DPH,?XSP + 1
   \   0000DF   EA           MOV     A,R2
   \   0000E0   F0           MOVX    @DPTR,A
   \   0000E1   A3           INC     DPTR
   \   0000E2   EB           MOV     A,R3
   \   0000E3   F0           MOVX    @DPTR,A
    990          
    991                offset += OSAL_NV_HDR_SIZE;
   \   0000E4   EE           MOV     A,R6
   \   0000E5   2408         ADD     A,#0x8
   \   0000E7   FE           MOV     R6,A
   \   0000E8   EF           MOV     A,R7
   \   0000E9   3400         ADDC    A,#0x0
   \   0000EB   FF           MOV     R7,A
    992                if ( buf != NULL )
   \   0000EC   E5..         MOV     A,?V0 + 6
   \   0000EE   45..         ORL     A,?V0 + 7
   \   0000F0   6017         JZ      ??writeItem_5
    993                {
    994                  writeBuf( pg, offset, len, buf );
   \   0000F2                ; Setup parameters for call to function writeBuf
   \   0000F2   78..         MOV     R0,#?V0 + 6
   \   0000F4   12....       LCALL   ?PUSH_XSTACK_I_TWO
   \   0000F7   AC..         MOV     R4,?V0 + 2
   \   0000F9   AD..         MOV     R5,?V0 + 3
   \   0000FB   EE           MOV     A,R6
   \   0000FC   FA           MOV     R2,A
   \   0000FD   EF           MOV     A,R7
   \   0000FE   FB           MOV     R3,A
   \   0000FF   A9..         MOV     R1,?V0 + 0
   \   000101   12....       LCALL   ??writeBuf?relay
   \   000104   7402         MOV     A,#0x2
   \   000106   12....       LCALL   ?DEALLOC_XSTACK8
    995                }
    996          
    997                if ( chk == calcChkF( pg, offset, len ) )
   \                     ??writeItem_5:
   \   000109                ; Setup parameters for call to function calcChkF
   \   000109   AC..         MOV     R4,?V0 + 2
   \   00010B   AD..         MOV     R5,?V0 + 3
   \   00010D   EE           MOV     A,R6
   \   00010E   FA           MOV     R2,A
   \   00010F   EF           MOV     A,R7
   \   000110   FB           MOV     R3,A
   \   000111   A9..         MOV     R1,?V0 + 0
   \   000113   12....       LCALL   ??calcChkF?relay
   \   000116   8A..         MOV     ?V0 + 2,R2
   \   000118   8B..         MOV     ?V0 + 3,R3
   \   00011A   A8..         MOV     R0,?V0 + 2
   \   00011C   A9..         MOV     R1,?V0 + 3
   \   00011E   85..82       MOV     DPL,?XSP + 0
   \   000121   85..83       MOV     DPH,?XSP + 1
   \   000124   E0           MOVX    A,@DPTR
   \   000125   68           XRL     A,R0
   \   000126   7003         JNZ     ??writeItem_6
   \   000128   A3           INC     DPTR
   \   000129   E0           MOVX    A,@DPTR
   \   00012A   69           XRL     A,R1
   \                     ??writeItem_6:
   \   00012B   7059         JNZ     ??writeItem_2
    998                {
    999                  writeWordH(pg, (offset-OSAL_NV_WORD_SIZE), (uint8 *)&chk);
   \   00012D                ; Setup parameters for call to function writeWordH
   \   00012D   85..82       MOV     DPL,?XSP + 0
   \   000130   85..83       MOV     DPH,?XSP + 1
   \   000133   AC82         MOV     R4,DPL
   \   000135   AD83         MOV     R5,DPH
   \   000137   EE           MOV     A,R6
   \   000138   24FC         ADD     A,#-0x4
   \   00013A   FA           MOV     R2,A
   \   00013B   EF           MOV     A,R7
   \   00013C   34FF         ADDC    A,#-0x1
   \   00013E   FB           MOV     R3,A
   \   00013F   A9..         MOV     R1,?V0 + 0
   \   000141   12....       LCALL   ??writeWordH?relay
   1000                  HalFlashRead(pg, (offset-OSAL_NV_HDR_SIZE), (uint8 *)(&hdr), OSAL_NV_HDR_SIZE);
   \   000144                ; Setup parameters for call to function HalFlashRead
   \   000144   75..08       MOV     ?V0 + 2,#0x8
   \   000147   75..00       MOV     ?V0 + 3,#0x0
   \   00014A   78..         MOV     R0,#?V0 + 2
   \   00014C   12....       LCALL   ?PUSH_XSTACK_I_TWO
   \   00014F   7404         MOV     A,#0x4
   \   000151   12....       LCALL   ?XSTACK_DISP0_8
   \   000154   AC82         MOV     R4,DPL
   \   000156   AD83         MOV     R5,DPH
   \   000158   EE           MOV     A,R6
   \   000159   24F8         ADD     A,#-0x8
   \   00015B   FA           MOV     R2,A
   \   00015C   EF           MOV     A,R7
   \   00015D   34FF         ADDC    A,#-0x1
   \   00015F   FB           MOV     R3,A
   \   000160   A9..         MOV     R1,?V0 + 0
   \   000162   12....       LCALL   ??HalFlashRead?relay
   \   000165   7402         MOV     A,#0x2
   \   000167   12....       LCALL   ?DEALLOC_XSTACK8
   1001          
   1002                  if ( chk == hdr.chk )
   \   00016A   85..82       MOV     DPL,?XSP + 0
   \   00016D   85..83       MOV     DPH,?XSP + 1
   \   000170   E0           MOVX    A,@DPTR
   \   000171   F8           MOV     R0,A
   \   000172   A3           INC     DPTR
   \   000173   E0           MOVX    A,@DPTR
   \   000174   F9           MOV     R1,A
   \   000175   7406         MOV     A,#0x6
   \   000177   12....       LCALL   ?XSTACK_DISP0_8
   \   00017A   E0           MOVX    A,@DPTR
   \   00017B   68           XRL     A,R0
   \   00017C   7003         JNZ     ??writeItem_7
   \   00017E   A3           INC     DPTR
   \   00017F   E0           MOVX    A,@DPTR
   \   000180   69           XRL     A,R1
   \                     ??writeItem_7:
   \   000181   7003         JNZ     ??writeItem_2
   1003                  {
   1004                    rtrn = pg;
   \                     ??writeItem_4:
   \   000183   85....       MOV     ?V0 + 1,?V0 + 0
   1005                  }
   1006                }
   1007              }
   1008              else
   1009              {
   1010                rtrn = pg;
   1011              }
   1012            }
   1013          
   1014            len = OSAL_NV_ITEM_SIZE( hdr.len );
   1015            pgOff[pg-OSAL_NV_PAGE_BEG] += len;
   \                     ??writeItem_2:
   \   000186   7404         MOV     A,#0x4
   \   000188   12....       LCALL   ?XSTACK_DISP0_8
   \   00018B   E0           MOVX    A,@DPTR
   \   00018C   2403         ADD     A,#0x3
   \   00018E   F8           MOV     R0,A
   \   00018F   A3           INC     DPTR
   \   000190   E0           MOVX    A,@DPTR
   \   000191   3400         ADDC    A,#0x0
   \   000193   F9           MOV     R1,A
   \   000194   E8           MOV     A,R0
   \   000195   54FC         ANL     A,#0xfc
   \   000197   2408         ADD     A,#0x8
   \   000199   F8           MOV     R0,A
   \   00019A   E9           MOV     A,R1
   \   00019B   3400         ADDC    A,#0x0
   \   00019D   F9           MOV     R1,A
   \   00019E   85..82       MOV     DPL,?V0 + 12
   \   0001A1   85..83       MOV     DPH,?V0 + 13
   \   0001A4   E0           MOVX    A,@DPTR
   \   0001A5   28           ADD     A,R0
   \   0001A6   F0           MOVX    @DPTR,A
   \   0001A7   A3           INC     DPTR
   \   0001A8   E0           MOVX    A,@DPTR
   \   0001A9   39           ADDC    A,R1
   \   0001AA   F0           MOVX    @DPTR,A
   1016          
   1017            return rtrn;
   \   0001AB   A9..         MOV     R1,?V0 + 1
   \   0001AD   740A         MOV     A,#0xa
   \   0001AF   12....       LCALL   ?DEALLOC_XSTACK8
   \   0001B2   7F0E         MOV     R7,#0xe
   \   0001B4   02....       LJMP    ?BANKED_LEAVE_XDATA
   1018          }
   1019          
   1020          /*********************************************************************
   1021           * @fn      osal_nv_init
   1022           *
   1023           * @brief   Initialize NV service.
   1024           *
   1025           * @param   p - Not used.
   1026           *
   1027           * @return  none
   1028           */

   \                                 In  segment BANKED_CODE, align 1, keep-with-next
   1029          void osal_nv_init( void *p )
   \                     osal_nv_init:
   1030          {
   \   000000   C082         PUSH    DPL
   \   000002   C083         PUSH    DPH
   \   000004                ; Saved register size: 2
   \   000004                ; Auto size: 0
   1031            (void)p;  // Suppress Lint warning.
   1032            (void)initNV();  // Always returns TRUE after pages have been erased.
   \   000004                ; Setup parameters for call to function initNV
   \   000004   12....       LCALL   ??initNV?relay
   1033          }
   \   000007   D083         POP     DPH
   \   000009   D082         POP     DPL
   \   00000B   02....       LJMP    ?BRET
   1034          
   1035          /*********************************************************************
   1036           * @fn      osal_nv_item_init
   1037           *
   1038           * @brief   If the NV item does not already exist, it is created and
   1039           *          initialized with the data passed to the function, if any.
   1040           *          This function must be called before calling osal_nv_read() or
   1041           *          osal_nv_write().
   1042           *
   1043           * @param   id  - Valid NV item Id.
   1044           * @param   len - Item length.
   1045           * @param  *buf - Pointer to item initalization data. Set to NULL if none.
   1046           *
   1047           * @return  NV_ITEM_UNINIT - Id did not exist and was created successfully.
   1048           *          ZSUCCESS       - Id already existed, no action taken.
   1049           *          NV_OPER_FAILED - Failure to find or create Id.
   1050           */

   \                                 In  segment BANKED_CODE, align 1, keep-with-next
   1051          uint8 osal_nv_item_init( uint16 id, uint16 len, void *buf )
   \                     osal_nv_item_init:
   1052          {
   \   000000   74F2         MOV     A,#-0xe
   \   000002   12....       LCALL   ?BANKED_ENTER_XDATA
   \   000005                ; Saved register size: 14
   \   000005                ; Auto size: 0
   \   000005   EA           MOV     A,R2
   \   000006   FE           MOV     R6,A
   \   000007   EB           MOV     A,R3
   \   000008   FF           MOV     R7,A
   \   000009   8C..         MOV     ?V0 + 0,R4
   \   00000B   8D..         MOV     ?V0 + 1,R5
   \   00000D   740E         MOV     A,#0xe
   \   00000F   12....       LCALL   ?XSTACK_DISP0_8
   \   000012   E0           MOVX    A,@DPTR
   \   000013   F5..         MOV     ?V0 + 2,A
   \   000015   A3           INC     DPTR
   \   000016   E0           MOVX    A,@DPTR
   \   000017   F5..         MOV     ?V0 + 3,A
   1053            /* Global fail flag for fail due to low bus voltage has less impact on code
   1054             * size than passing back a return value all the way from the lowest level.
   1055             */
   1056            failF = FALSE;
   \   000019   90....       MOV     DPTR,#failF
   \   00001C   E4           CLR     A
   \   00001D   F0           MOVX    @DPTR,A
   1057          
   1058            if ( (findItem( id ) != OSAL_NV_ITEM_NULL) )
   \   00001E                ; Setup parameters for call to function findItem
   \   00001E   12....       LCALL   ??findItem?relay
   \   000021   8B..         MOV     ?V0 + 5,R3
   \   000023   EA           MOV     A,R2
   \   000024   45..         ORL     A,?V0 + 5
   \   000026   6004         JZ      ??osal_nv_item_init_0
   1059            {
   1060              return ZSUCCESS;
   \   000028   7900         MOV     R1,#0x0
   \   00002A   802B         SJMP    ??osal_nv_item_init_1
   1061            }
   1062            else if ( initItem( TRUE, id, len, buf ) )
   \                     ??osal_nv_item_init_0:
   \   00002C                ; Setup parameters for call to function initItem
   \   00002C   78..         MOV     R0,#?V0 + 2
   \   00002E   12....       LCALL   ?PUSH_XSTACK_I_TWO
   \   000031   AC..         MOV     R4,?V0 + 0
   \   000033   AD..         MOV     R5,?V0 + 1
   \   000035   EE           MOV     A,R6
   \   000036   FA           MOV     R2,A
   \   000037   EF           MOV     A,R7
   \   000038   FB           MOV     R3,A
   \   000039   7901         MOV     R1,#0x1
   \   00003B   12....       LCALL   ??initItem?relay
   \   00003E   7402         MOV     A,#0x2
   \   000040   12....       LCALL   ?DEALLOC_XSTACK8
   \   000043   E9           MOV     A,R1
   \   000044   600F         JZ      ??osal_nv_item_init_2
   1063            {
   1064              if ( failF )
   \   000046   90....       MOV     DPTR,#failF
   \   000049   E0           MOVX    A,@DPTR
   \   00004A   6005         JZ      ??osal_nv_item_init_3
   1065              {
   1066                (void)initNV();  // See comment at the declaration of failF.
   \   00004C                ; Setup parameters for call to function initNV
   \   00004C   12....       LCALL   ??initNV?relay
   1067                return NV_OPER_FAILED;
   \   00004F   8004         SJMP    ??osal_nv_item_init_2
   1068              }
   1069              else
   1070              {
   1071                return NV_ITEM_UNINIT;
   \                     ??osal_nv_item_init_3:
   \   000051   7909         MOV     R1,#0x9
   \   000053   8002         SJMP    ??osal_nv_item_init_1
   1072              }
   1073            }
   1074            else
   1075            {
   1076              return NV_OPER_FAILED;
   \                     ??osal_nv_item_init_2:
   \   000055   790A         MOV     R1,#0xa
   \                     ??osal_nv_item_init_1:
   \   000057   7F06         MOV     R7,#0x6
   \   000059   02....       LJMP    ?BANKED_LEAVE_XDATA
   1077            }
   1078          }
   1079          
   1080          /*********************************************************************
   1081           * @fn      osal_nv_item_len
   1082           *
   1083           * @brief   Get the data length of the item stored in NV memory.
   1084           *
   1085           * @param   id  - Valid NV item Id.
   1086           *
   1087           * @return  Item length, if found; zero otherwise.
   1088           */

   \                                 In  segment BANKED_CODE, align 1, keep-with-next
   1089          uint16 osal_nv_item_len( uint16 id )
   \                     osal_nv_item_len:
   1090          {
   \   000000   74F6         MOV     A,#-0xa
   \   000002   12....       LCALL   ?BANKED_ENTER_XDATA
   \   000005                ; Saved register size: 10
   \   000005                ; Auto size: 8
   \   000005   74F8         MOV     A,#-0x8
   \   000007   12....       LCALL   ?ALLOC_XSTACK8
   1091            uint16 offset = findItem( id );
   \   00000A                ; Setup parameters for call to function findItem
   \   00000A   12....       LCALL   ??findItem?relay
   1092          
   1093            if ( offset == OSAL_NV_ITEM_NULL )
   \   00000D   EA           MOV     A,R2
   \   00000E   4B           ORL     A,R3
   \   00000F   7006         JNZ     ??osal_nv_item_len_0
   1094            {
   1095              return 0;
   \   000011   7A00         MOV     R2,#0x0
   \   000013   7B00         MOV     R3,#0x0
   \   000015   8033         SJMP    ??osal_nv_item_len_1
   1096            }
   1097            else
   1098            {
   1099              osalNvHdr_t hdr;
   1100              HalFlashRead(findPg, (offset - OSAL_NV_HDR_SIZE), (uint8 *)(&hdr), OSAL_NV_HDR_SIZE);
   \                     ??osal_nv_item_len_0:
   \   000017                ; Setup parameters for call to function HalFlashRead
   \   000017   75..08       MOV     ?V0 + 0,#0x8
   \   00001A   75..00       MOV     ?V0 + 1,#0x0
   \   00001D   78..         MOV     R0,#?V0 + 0
   \   00001F   12....       LCALL   ?PUSH_XSTACK_I_TWO
   \   000022   7402         MOV     A,#0x2
   \   000024   12....       LCALL   ?XSTACK_DISP0_8
   \   000027   AC82         MOV     R4,DPL
   \   000029   AD83         MOV     R5,DPH
   \   00002B   EA           MOV     A,R2
   \   00002C   24F8         ADD     A,#-0x8
   \   00002E   FA           MOV     R2,A
   \   00002F   EB           MOV     A,R3
   \   000030   34FF         ADDC    A,#-0x1
   \   000032   FB           MOV     R3,A
   \   000033   90....       MOV     DPTR,#findPg
   \   000036   E0           MOVX    A,@DPTR
   \   000037   F9           MOV     R1,A
   \   000038   12....       LCALL   ??HalFlashRead?relay
   \   00003B   7402         MOV     A,#0x2
   \   00003D   12....       LCALL   ?DEALLOC_XSTACK8
   1101              return hdr.len;
   \   000040   7402         MOV     A,#0x2
   \   000042   12....       LCALL   ?XSTACK_DISP0_8
   \   000045   E0           MOVX    A,@DPTR
   \   000046   FA           MOV     R2,A
   \   000047   A3           INC     DPTR
   \   000048   E0           MOVX    A,@DPTR
   \   000049   FB           MOV     R3,A
   \                     ??osal_nv_item_len_1:
   \   00004A   7408         MOV     A,#0x8
   \   00004C   12....       LCALL   ?DEALLOC_XSTACK8
   \   00004F   7F02         MOV     R7,#0x2
   \   000051   02....       LJMP    ?BANKED_LEAVE_XDATA
   1102            }
   1103          }
   1104          
   1105          /*********************************************************************
   1106           * @fn      osal_nv_write
   1107           *
   1108           * @brief   Write a data item to NV. Function can write an entire item to NV or
   1109           *          an element of an item by indexing into the item with an offset.
   1110           *
   1111           * @param   id  - Valid NV item Id.
   1112           * @param   ndx - Index offset into item
   1113           * @param   len - Length of data to write.
   1114           * @param  *buf - Data to write.
   1115           *
   1116           * @return  ZSUCCESS if successful, NV_ITEM_UNINIT if item did not
   1117           *          exist in NV and offset is non-zero, NV_OPER_FAILED if failure.
   1118           */

   \                                 In  segment BANKED_CODE, align 1, keep-with-next
   1119          uint8 osal_nv_write( uint16 id, uint16 ndx, uint16 len, void *buf )
   \                     osal_nv_write:
   1120          {
   \   000000   74E8         MOV     A,#-0x18
   \   000002   12....       LCALL   ?BANKED_ENTER_XDATA
   \   000005                ; Saved register size: 24
   \   000005                ; Auto size: 11
   \   000005   74F5         MOV     A,#-0xb
   \   000007   12....       LCALL   ?ALLOC_XSTACK8
   \   00000A   8A..         MOV     ?V0 + 10,R2
   \   00000C   8B..         MOV     ?V0 + 11,R3
   \   00000E   8C..         MOV     ?V0 + 2,R4
   \   000010   8D..         MOV     ?V0 + 3,R5
   \   000012   7423         MOV     A,#0x23
   \   000014   12....       LCALL   ?XSTACK_DISP0_8
   \   000017   E0           MOVX    A,@DPTR
   \   000018   F5..         MOV     ?V0 + 8,A
   \   00001A   A3           INC     DPTR
   \   00001B   E0           MOVX    A,@DPTR
   \   00001C   F5..         MOV     ?V0 + 9,A
   1121            uint8 rtrn = ZSUCCESS;
   \   00001E   75..00       MOV     ?V0 + 4,#0x0
   1122          
   1123            /* Global fail flag for fail due to low bus voltage has less impact on code
   1124             * size than passing back a return value all the way from the lowest level.
   1125             */
   1126            failF = FALSE;
   \   000021   90....       MOV     DPTR,#failF
   \   000024   E4           CLR     A
   \   000025   F0           MOVX    @DPTR,A
   1127          
   1128            if ( len != 0 )
   \   000026   E5..         MOV     A,?V0 + 8
   \   000028   45..         ORL     A,?V0 + 9
   \   00002A   7003         JNZ     $+5
   \   00002C   02....       LJMP    ??osal_nv_write_0 & 0xFFFF
   1129            {
   1130              osalNvHdr_t hdr;
   1131              uint16 origOff, srcOff;
   1132              uint16 cnt;
   1133              uint8 *ptr;
   1134          
   1135              origOff = srcOff = findItem( id );
   \   00002F                ; Setup parameters for call to function findItem
   \   00002F   12....       LCALL   ??findItem?relay
   \   000032   8A..         MOV     ?V0 + 0,R2
   \   000034   8B..         MOV     ?V0 + 1,R3
   \   000036   A8..         MOV     R0,?V0 + 0
   \   000038   A9..         MOV     R1,?V0 + 1
   \   00003A   E8           MOV     A,R0
   \   00003B   FE           MOV     R6,A
   \   00003C   E9           MOV     A,R1
   \   00003D   FF           MOV     R7,A
   \   00003E   88..         MOV     ?V0 + 14,R0
   \   000040   89..         MOV     ?V0 + 15,R1
   1136              if ( srcOff == OSAL_NV_ITEM_NULL )
   \   000042   EE           MOV     A,R6
   \   000043   4F           ORL     A,R7
   \   000044   7005         JNZ     ??osal_nv_write_1
   1137              {
   1138                return NV_ITEM_UNINIT;
   \   000046   7909         MOV     R1,#0x9
   \   000048   02....       LJMP    ??osal_nv_write_2 & 0xFFFF
   1139              }
   1140          
   1141              HalFlashRead(findPg, (srcOff - OSAL_NV_HDR_SIZE), (uint8 *)(&hdr), OSAL_NV_HDR_SIZE);
   \                     ??osal_nv_write_1:
   \   00004B                ; Setup parameters for call to function HalFlashRead
   \   00004B   75..08       MOV     ?V0 + 0,#0x8
   \   00004E   75..00       MOV     ?V0 + 1,#0x0
   \   000051   78..         MOV     R0,#?V0 + 0
   \   000053   12....       LCALL   ?PUSH_XSTACK_I_TWO
   \   000056   7405         MOV     A,#0x5
   \   000058   12....       LCALL   ?XSTACK_DISP0_8
   \   00005B   AC82         MOV     R4,DPL
   \   00005D   AD83         MOV     R5,DPH
   \   00005F   EE           MOV     A,R6
   \   000060   24F8         ADD     A,#-0x8
   \   000062   FA           MOV     R2,A
   \   000063   EF           MOV     A,R7
   \   000064   34FF         ADDC    A,#-0x1
   \   000066   FB           MOV     R3,A
   \   000067   90....       MOV     DPTR,#findPg
   \   00006A   E0           MOVX    A,@DPTR
   \   00006B   F9           MOV     R1,A
   \   00006C   12....       LCALL   ??HalFlashRead?relay
   \   00006F   7402         MOV     A,#0x2
   \   000071   12....       LCALL   ?DEALLOC_XSTACK8
   1142              if ( hdr.len < (ndx + len) )
   \   000074   7405         MOV     A,#0x5
   \   000076   12....       LCALL   ?XSTACK_DISP0_8
   \   000079   E5..         MOV     A,?V0 + 2
   \   00007B   25..         ADD     A,?V0 + 8
   \   00007D   F8           MOV     R0,A
   \   00007E   E5..         MOV     A,?V0 + 3
   \   000080   35..         ADDC    A,?V0 + 9
   \   000082   F9           MOV     R1,A
   \   000083   C3           CLR     C
   \   000084   E0           MOVX    A,@DPTR
   \   000085   98           SUBB    A,R0
   \   000086   A3           INC     DPTR
   \   000087   E0           MOVX    A,@DPTR
   \   000088   99           SUBB    A,R1
   \   000089   5005         JNC     ??osal_nv_write_3
   1143              {
   1144                return NV_OPER_FAILED;
   \   00008B   790A         MOV     R1,#0xa
   \   00008D   02....       LJMP    ??osal_nv_write_2 & 0xFFFF
   1145              }
   1146          
   1147              srcOff += ndx;
   \                     ??osal_nv_write_3:
   \   000090   EE           MOV     A,R6
   \   000091   25..         ADD     A,?V0 + 2
   \   000093   FE           MOV     R6,A
   \   000094   EF           MOV     A,R7
   \   000095   35..         ADDC    A,?V0 + 3
   \   000097   FF           MOV     R7,A
   1148              ptr = buf;
   \   000098   7425         MOV     A,#0x25
   \   00009A   12....       LCALL   ?XSTACK_DISP0_8
   \   00009D   E0           MOVX    A,@DPTR
   \   00009E   F5..         MOV     ?V0 + 6,A
   \   0000A0   A3           INC     DPTR
   \   0000A1   E0           MOVX    A,@DPTR
   \   0000A2   F5..         MOV     ?V0 + 7,A
   1149              cnt = len;
   \   0000A4   85....       MOV     ?V0 + 0,?V0 + 8
   \   0000A7   85....       MOV     ?V0 + 1,?V0 + 9
   \   0000AA   800C         SJMP    ??osal_nv_write_4
   1150              while ( cnt )
   1151              {
   1152                uint8 tmp;
   1153                HalFlashRead(findPg, srcOff++, &tmp, 1);
   1154                if ( tmp != *ptr++ )
   1155                {
   1156                  break;
   1157                }
   1158                cnt--;
   \                     ??osal_nv_write_5:
   \   0000AC   E5..         MOV     A,?V0 + 0
   \   0000AE   24FF         ADD     A,#-0x1
   \   0000B0   F5..         MOV     ?V0 + 0,A
   \   0000B2   E5..         MOV     A,?V0 + 1
   \   0000B4   34FF         ADDC    A,#-0x1
   \   0000B6   F5..         MOV     ?V0 + 1,A
   \                     ??osal_nv_write_4:
   \   0000B8   E5..         MOV     A,?V0 + 0
   \   0000BA   45..         ORL     A,?V0 + 1
   \   0000BC   604C         JZ      ??osal_nv_write_6
   \   0000BE                ; Setup parameters for call to function HalFlashRead
   \   0000BE   75..01       MOV     ?V0 + 12,#0x1
   \   0000C1   75..00       MOV     ?V0 + 13,#0x0
   \   0000C4   78..         MOV     R0,#?V0 + 12
   \   0000C6   12....       LCALL   ?PUSH_XSTACK_I_TWO
   \   0000C9   7402         MOV     A,#0x2
   \   0000CB   12....       LCALL   ?XSTACK_DISP0_8
   \   0000CE   AC82         MOV     R4,DPL
   \   0000D0   AD83         MOV     R5,DPH
   \   0000D2   EE           MOV     A,R6
   \   0000D3   FA           MOV     R2,A
   \   0000D4   EF           MOV     A,R7
   \   0000D5   FB           MOV     R3,A
   \   0000D6   90....       MOV     DPTR,#findPg
   \   0000D9   E0           MOVX    A,@DPTR
   \   0000DA   F9           MOV     R1,A
   \   0000DB   12....       LCALL   ??HalFlashRead?relay
   \   0000DE   7402         MOV     A,#0x2
   \   0000E0   12....       LCALL   ?DEALLOC_XSTACK8
   \   0000E3   EE           MOV     A,R6
   \   0000E4   2401         ADD     A,#0x1
   \   0000E6   0E           INC     R6
   \   0000E7   EF           MOV     A,R7
   \   0000E8   3400         ADDC    A,#0x0
   \   0000EA   FF           MOV     R7,A
   \   0000EB   A8..         MOV     R0,?V0 + 6
   \   0000ED   A9..         MOV     R1,?V0 + 7
   \   0000EF   8882         MOV     DPL,R0
   \   0000F1   8983         MOV     DPH,R1
   \   0000F3   A3           INC     DPTR
   \   0000F4   8582..       MOV     ?V0 + 6,DPL
   \   0000F7   8583..       MOV     ?V0 + 7,DPH
   \   0000FA   85..82       MOV     DPL,?XSP + 0
   \   0000FD   85..83       MOV     DPH,?XSP + 1
   \   000100   E0           MOVX    A,@DPTR
   \   000101   FA           MOV     R2,A
   \   000102   8882         MOV     DPL,R0
   \   000104   8983         MOV     DPH,R1
   \   000106   E0           MOVX    A,@DPTR
   \   000107   6A           XRL     A,R2
   \   000108   60A2         JZ      ??osal_nv_write_5
   1159              }
   1160          
   1161              if ( cnt != 0 )  // If the buffer to write is different in one or more bytes.
   \                     ??osal_nv_write_6:
   \   00010A   E5..         MOV     A,?V0 + 0
   \   00010C   45..         ORL     A,?V0 + 1
   \   00010E   7003         JNZ     $+5
   \   000110   02....       LJMP    ??osal_nv_write_0 & 0xFFFF
   1162              {
   1163                uint8 comPg, dstPg = initItem( FALSE, id, hdr.len, &comPg );
   \   000113                ; Setup parameters for call to function initItem
   \   000113   85..82       MOV     DPL,?XSP + 0
   \   000116   85..83       MOV     DPH,?XSP + 1
   \   000119   8582..       MOV     ?V0 + 0,DPL
   \   00011C   8583..       MOV     ?V0 + 1,DPH
   \   00011F   78..         MOV     R0,#?V0 + 0
   \   000121   12....       LCALL   ?PUSH_XSTACK_I_TWO
   \   000124   7407         MOV     A,#0x7
   \   000126   12....       LCALL   ?XSTACK_DISP0_8
   \   000129   E0           MOVX    A,@DPTR
   \   00012A   FC           MOV     R4,A
   \   00012B   A3           INC     DPTR
   \   00012C   E0           MOVX    A,@DPTR
   \   00012D   FD           MOV     R5,A
   \   00012E   AA..         MOV     R2,?V0 + 10
   \   000130   AB..         MOV     R3,?V0 + 11
   \   000132   7900         MOV     R1,#0x0
   \   000134   12....       LCALL   ??initItem?relay
   \   000137   7402         MOV     A,#0x2
   \   000139   12....       LCALL   ?DEALLOC_XSTACK8
   \   00013C   E9           MOV     A,R1
   \   00013D   F5..         MOV     ?V0 + 0,A
   1164          
   1165                if ( dstPg != OSAL_NV_PAGE_NULL )
   \   00013F   7003         JNZ     $+5
   \   000141   02....       LJMP    ??osal_nv_write_7 & 0xFFFF
   1166                {
   1167                  uint16 tmp = OSAL_NV_DATA_SIZE( hdr.len );
   \   000144   7405         MOV     A,#0x5
   \   000146   12....       LCALL   ?XSTACK_DISP0_8
   \   000149   E0           MOVX    A,@DPTR
   \   00014A   2403         ADD     A,#0x3
   \   00014C   F8           MOV     R0,A
   \   00014D   A3           INC     DPTR
   \   00014E   E0           MOVX    A,@DPTR
   \   00014F   3400         ADDC    A,#0x0
   \   000151   F9           MOV     R1,A
   \   000152   E8           MOV     A,R0
   \   000153   54FC         ANL     A,#0xfc
   \   000155   F8           MOV     R0,A
   \   000156   7401         MOV     A,#0x1
   \   000158   12....       LCALL   ?XSTACK_DISP0_8
   \   00015B   E8           MOV     A,R0
   \   00015C   F0           MOVX    @DPTR,A
   \   00015D   A3           INC     DPTR
   \   00015E   E9           MOV     A,R1
   \   00015F   F0           MOVX    @DPTR,A
   1168                  uint16 dstOff = pgOff[dstPg-OSAL_NV_PAGE_BEG] - tmp;
   \   000160   E5..         MOV     A,?V0 + 0
   \   000162   C3           CLR     C
   \   000163   33           RLC     A
   \   000164   F8           MOV     R0,A
   \   000165   E4           CLR     A
   \   000166   33           RLC     A
   \   000167   F9           MOV     R1,A
   \   000168   74..         MOV     A,#(pgOff + 14) & 0xff
   \   00016A   28           ADD     A,R0
   \   00016B   F5..         MOV     ?V0 + 6,A
   \   00016D   74..         MOV     A,#((pgOff - 242) >> 8) & 0xff
   \   00016F   39           ADDC    A,R1
   \   000170   F5..         MOV     ?V0 + 7,A
   \   000172   85..82       MOV     DPL,?V0 + 6
   \   000175   F583         MOV     DPH,A
   \   000177   C082         PUSH    DPL
   \   000179   C083         PUSH    DPH
   \   00017B   7401         MOV     A,#0x1
   \   00017D   12....       LCALL   ?XSTACK_DISP0_8
   \   000180   E0           MOVX    A,@DPTR
   \   000181   F8           MOV     R0,A
   \   000182   A3           INC     DPTR
   \   000183   E0           MOVX    A,@DPTR
   \   000184   F9           MOV     R1,A
   \   000185   D083         POP     DPH
   \   000187   D082         POP     DPL
   \   000189   E0           MOVX    A,@DPTR
   \   00018A   C3           CLR     C
   \   00018B   98           SUBB    A,R0
   \   00018C   FE           MOV     R6,A
   \   00018D   A3           INC     DPTR
   \   00018E   E0           MOVX    A,@DPTR
   \   00018F   99           SUBB    A,R1
   \   000190   FF           MOV     R7,A
   1169                  uint8 srcPg = findPg;
   \   000191   90....       MOV     DPTR,#findPg
   \   000194   E0           MOVX    A,@DPTR
   \   000195   F5..         MOV     ?V0 + 1,A
   1170                  srcOff = origOff;
   1171          
   1172                  setItem( srcPg, srcOff, eNvXfer );
   \   000197                ; Setup parameters for call to function setItem
   \   000197   7C00         MOV     R4,#0x0
   \   000199   AA..         MOV     R2,?V0 + 14
   \   00019B   AB..         MOV     R3,?V0 + 15
   \   00019D   F9           MOV     R1,A
   \   00019E   12....       LCALL   ??setItem?relay
   1173          
   1174                  xferBuf( srcPg, srcOff, dstPg, dstOff, ndx );
   \   0001A1                ; Setup parameters for call to function xferBuf
   \   0001A1   78..         MOV     R0,#?V0 + 2
   \   0001A3   12....       LCALL   ?PUSH_XSTACK_I_TWO
   \   0001A6   8E..         MOV     ?V0 + 10,R6
   \   0001A8   8F..         MOV     ?V0 + 11,R7
   \   0001AA   78..         MOV     R0,#?V0 + 10
   \   0001AC   12....       LCALL   ?PUSH_XSTACK_I_TWO
   \   0001AF   AC..         MOV     R4,?V0 + 0
   \   0001B1   AA..         MOV     R2,?V0 + 14
   \   0001B3   AB..         MOV     R3,?V0 + 15
   \   0001B5   A9..         MOV     R1,?V0 + 1
   \   0001B7   12....       LCALL   ??xferBuf?relay
   \   0001BA   7404         MOV     A,#0x4
   \   0001BC   12....       LCALL   ?DEALLOC_XSTACK8
   1175                  srcOff += ndx;
   1176                  dstOff += ndx;
   \   0001BF   EE           MOV     A,R6
   \   0001C0   25..         ADD     A,?V0 + 2
   \   0001C2   FE           MOV     R6,A
   \   0001C3   EF           MOV     A,R7
   \   0001C4   35..         ADDC    A,?V0 + 3
   \   0001C6   FF           MOV     R7,A
   1177          
   1178                  writeBuf( dstPg, dstOff, len, buf );
   \   0001C7                ; Setup parameters for call to function writeBuf
   \   0001C7   7425         MOV     A,#0x25
   \   0001C9   12....       LCALL   ?XSTACK_DISP0_8
   \   0001CC   12....       LCALL   ?PUSH_XSTACK8_X_TWO
   \   0001CF   AC..         MOV     R4,?V0 + 8
   \   0001D1   AD..         MOV     R5,?V0 + 9
   \   0001D3   EE           MOV     A,R6
   \   0001D4   FA           MOV     R2,A
   \   0001D5   EF           MOV     A,R7
   \   0001D6   FB           MOV     R3,A
   \   0001D7   A9..         MOV     R1,?V0 + 0
   \   0001D9   12....       LCALL   ??writeBuf?relay
   \   0001DC   7402         MOV     A,#0x2
   \   0001DE   12....       LCALL   ?DEALLOC_XSTACK8
   1179                  srcOff += len;
   1180                  dstOff += len;
   1181          
   1182                  xferBuf( srcPg, srcOff, dstPg, dstOff, (hdr.len-ndx-len) );
   \   0001E1                ; Setup parameters for call to function xferBuf
   \   0001E1   7405         MOV     A,#0x5
   \   0001E3   12....       LCALL   ?XSTACK_DISP0_8
   \   0001E6   E0           MOVX    A,@DPTR
   \   0001E7   C3           CLR     C
   \   0001E8   95..         SUBB    A,?V0 + 2
   \   0001EA   F8           MOV     R0,A
   \   0001EB   A3           INC     DPTR
   \   0001EC   E0           MOVX    A,@DPTR
   \   0001ED   95..         SUBB    A,?V0 + 3
   \   0001EF   F9           MOV     R1,A
   \   0001F0   E8           MOV     A,R0
   \   0001F1   C3           CLR     C
   \   0001F2   95..         SUBB    A,?V0 + 8
   \   0001F4   F5..         MOV     ?V0 + 10,A
   \   0001F6   E9           MOV     A,R1
   \   0001F7   95..         SUBB    A,?V0 + 9
   \   0001F9   F5..         MOV     ?V0 + 11,A
   \   0001FB   78..         MOV     R0,#?V0 + 10
   \   0001FD   12....       LCALL   ?PUSH_XSTACK_I_TWO
   \   000200   EE           MOV     A,R6
   \   000201   25..         ADD     A,?V0 + 8
   \   000203   F5..         MOV     ?V0 + 10,A
   \   000205   EF           MOV     A,R7
   \   000206   35..         ADDC    A,?V0 + 9
   \   000208   F5..         MOV     ?V0 + 11,A
   \   00020A   78..         MOV     R0,#?V0 + 10
   \   00020C   12....       LCALL   ?PUSH_XSTACK_I_TWO
   \   00020F   AC..         MOV     R4,?V0 + 0
   \   000211   E5..         MOV     A,?V0 + 14
   \   000213   25..         ADD     A,?V0 + 2
   \   000215   F8           MOV     R0,A
   \   000216   E5..         MOV     A,?V0 + 15
   \   000218   35..         ADDC    A,?V0 + 3
   \   00021A   F9           MOV     R1,A
   \   00021B   E8           MOV     A,R0
   \   00021C   25..         ADD     A,?V0 + 8
   \   00021E   FA           MOV     R2,A
   \   00021F   E9           MOV     A,R1
   \   000220   35..         ADDC    A,?V0 + 9
   \   000222   FB           MOV     R3,A
   \   000223   A9..         MOV     R1,?V0 + 1
   \   000225   12....       LCALL   ??xferBuf?relay
   \   000228   7404         MOV     A,#0x4
   \   00022A   12....       LCALL   ?DEALLOC_XSTACK8
   1183          
   1184                  // Calculate and write the new checksum.
   1185                  dstOff = pgOff[dstPg-OSAL_NV_PAGE_BEG] - tmp;
   \   00022D   85..82       MOV     DPL,?V0 + 6
   \   000230   85..83       MOV     DPH,?V0 + 7
   \   000233   C082         PUSH    DPL
   \   000235   C083         PUSH    DPH
   \   000237   7401         MOV     A,#0x1
   \   000239   12....       LCALL   ?XSTACK_DISP0_8
   \   00023C   E0           MOVX    A,@DPTR
   \   00023D   F8           MOV     R0,A
   \   00023E   A3           INC     DPTR
   \   00023F   E0           MOVX    A,@DPTR
   \   000240   F9           MOV     R1,A
   \   000241   D083         POP     DPH
   \   000243   D082         POP     DPL
   \   000245   E0           MOVX    A,@DPTR
   \   000246   C3           CLR     C
   \   000247   98           SUBB    A,R0
   \   000248   FE           MOV     R6,A
   \   000249   A3           INC     DPTR
   \   00024A   E0           MOVX    A,@DPTR
   \   00024B   99           SUBB    A,R1
   \   00024C   FF           MOV     R7,A
   1186                  tmp = calcChkF( dstPg, dstOff, hdr.len );
   \   00024D                ; Setup parameters for call to function calcChkF
   \   00024D   7405         MOV     A,#0x5
   \   00024F   12....       LCALL   ?XSTACK_DISP0_8
   \   000252   E0           MOVX    A,@DPTR
   \   000253   FC           MOV     R4,A
   \   000254   A3           INC     DPTR
   \   000255   E0           MOVX    A,@DPTR
   \   000256   FD           MOV     R5,A
   \   000257   EE           MOV     A,R6
   \   000258   FA           MOV     R2,A
   \   000259   EF           MOV     A,R7
   \   00025A   FB           MOV     R3,A
   \   00025B   A9..         MOV     R1,?V0 + 0
   \   00025D   12....       LCALL   ??calcChkF?relay
   \   000260   7401         MOV     A,#0x1
   \   000262   12....       LCALL   ?XSTACK_DISP0_8
   \   000265   EA           MOV     A,R2
   \   000266   F0           MOVX    @DPTR,A
   \   000267   A3           INC     DPTR
   \   000268   EB           MOV     A,R3
   \   000269   F0           MOVX    @DPTR,A
   1187                  dstOff -= OSAL_NV_HDR_SIZE;
   \   00026A   EE           MOV     A,R6
   \   00026B   24F8         ADD     A,#-0x8
   \   00026D   FE           MOV     R6,A
   \   00026E   EF           MOV     A,R7
   \   00026F   34FF         ADDC    A,#-0x1
   \   000271   FF           MOV     R7,A
   1188                  writeWordH( dstPg, (dstOff+OSAL_NV_HDR_CHK), (uint8 *)&tmp );
   \   000272                ; Setup parameters for call to function writeWordH
   \   000272   7401         MOV     A,#0x1
   \   000274   12....       LCALL   ?XSTACK_DISP0_8
   \   000277   AC82         MOV     R4,DPL
   \   000279   AD83         MOV     R5,DPH
   \   00027B   EE           MOV     A,R6
   \   00027C   2404         ADD     A,#0x4
   \   00027E   FA           MOV     R2,A
   \   00027F   EF           MOV     A,R7
   \   000280   3400         ADDC    A,#0x0
   \   000282   FB           MOV     R3,A
   \   000283   A9..         MOV     R1,?V0 + 0
   \   000285   12....       LCALL   ??writeWordH?relay
   1189                  HalFlashRead(dstPg, dstOff, (uint8 *)(&hdr), OSAL_NV_HDR_SIZE);
   \   000288                ; Setup parameters for call to function HalFlashRead
   \   000288   75..08       MOV     ?V0 + 2,#0x8
   \   00028B   75..00       MOV     ?V0 + 3,#0x0
   \   00028E   78..         MOV     R0,#?V0 + 2
   \   000290   12....       LCALL   ?PUSH_XSTACK_I_TWO
   \   000293   7405         MOV     A,#0x5
   \   000295   12....       LCALL   ?XSTACK_DISP0_8
   \   000298   AC82         MOV     R4,DPL
   \   00029A   AD83         MOV     R5,DPH
   \   00029C   EE           MOV     A,R6
   \   00029D   FA           MOV     R2,A
   \   00029E   EF           MOV     A,R7
   \   00029F   FB           MOV     R3,A
   \   0002A0   A9..         MOV     R1,?V0 + 0
   \   0002A2   12....       LCALL   ??HalFlashRead?relay
   \   0002A5   7402         MOV     A,#0x2
   \   0002A7   12....       LCALL   ?DEALLOC_XSTACK8
   1190          
   1191                  if ( tmp == hdr.chk )
   \   0002AA   7401         MOV     A,#0x1
   \   0002AC   12....       LCALL   ?XSTACK_DISP0_8
   \   0002AF   E0           MOVX    A,@DPTR
   \   0002B0   F8           MOV     R0,A
   \   0002B1   A3           INC     DPTR
   \   0002B2   E0           MOVX    A,@DPTR
   \   0002B3   F9           MOV     R1,A
   \   0002B4   7407         MOV     A,#0x7
   \   0002B6   12....       LCALL   ?XSTACK_DISP0_8
   \   0002B9   E0           MOVX    A,@DPTR
   \   0002BA   68           XRL     A,R0
   \   0002BB   7003         JNZ     ??osal_nv_write_8
   \   0002BD   A3           INC     DPTR
   \   0002BE   E0           MOVX    A,@DPTR
   \   0002BF   69           XRL     A,R1
   \                     ??osal_nv_write_8:
   \   0002C0   700D         JNZ     ??osal_nv_write_9
   1192                  {
   1193                    setItem( srcPg, origOff, eNvZero );
   \   0002C2                ; Setup parameters for call to function setItem
   \   0002C2   7C01         MOV     R4,#0x1
   \   0002C4   AA..         MOV     R2,?V0 + 14
   \   0002C6   AB..         MOV     R3,?V0 + 15
   \   0002C8   A9..         MOV     R1,?V0 + 1
   \   0002CA   12....       LCALL   ??setItem?relay
   \   0002CD   8003         SJMP    ??osal_nv_write_10
   1194                  }
   1195                  else
   1196                  {
   1197                    rtrn = NV_OPER_FAILED;
   \                     ??osal_nv_write_9:
   \   0002CF   75..0A       MOV     ?V0 + 4,#0xa
   1198                  }
   1199          
   1200                  if ( dstPg == pgRes )
   \                     ??osal_nv_write_10:
   \   0002D2   90....       MOV     DPTR,#pgRes
   \   0002D5   E0           MOVX    A,@DPTR
   \   0002D6   65..         XRL     A,?V0 + 0
   \   0002D8   7010         JNZ     ??osal_nv_write_0
   1201                  {
   1202                    compactPage( comPg );
   \   0002DA                ; Setup parameters for call to function compactPage
   \   0002DA   85..82       MOV     DPL,?XSP + 0
   \   0002DD   85..83       MOV     DPH,?XSP + 1
   \   0002E0   E0           MOVX    A,@DPTR
   \   0002E1   F9           MOV     R1,A
   \   0002E2   12....       LCALL   ??compactPage?relay
   \   0002E5   8003         SJMP    ??osal_nv_write_0
   1203                  }
   1204                }
   1205                else
   1206                {
   1207                  rtrn = NV_OPER_FAILED;
   \                     ??osal_nv_write_7:
   \   0002E7   75..0A       MOV     ?V0 + 4,#0xa
   1208                }
   1209              }
   1210            }
   1211          
   1212            if ( failF )
   \                     ??osal_nv_write_0:
   \   0002EA   90....       MOV     DPTR,#failF
   \   0002ED   E0           MOVX    A,@DPTR
   \   0002EE   6006         JZ      ??osal_nv_write_11
   1213            {
   1214              (void)initNV();  // See comment at the declaration of failF.
   \   0002F0                ; Setup parameters for call to function initNV
   \   0002F0   12....       LCALL   ??initNV?relay
   1215              rtrn = NV_OPER_FAILED;
   \   0002F3   75..0A       MOV     ?V0 + 4,#0xa
   1216            }
   1217          
   1218            return rtrn;
   \                     ??osal_nv_write_11:
   \   0002F6   A9..         MOV     R1,?V0 + 4
   \                     ??osal_nv_write_2:
   \   0002F8   740B         MOV     A,#0xb
   \   0002FA   12....       LCALL   ?DEALLOC_XSTACK8
   \   0002FD   7F10         MOV     R7,#0x10
   \   0002FF   02....       LJMP    ?BANKED_LEAVE_XDATA
   1219          }
   1220          
   1221          /*********************************************************************
   1222           * @fn      osal_nv_read
   1223           *
   1224           * @brief   Read data from NV. This function can be used to read an entire item from NV or
   1225           *          an element of an item by indexing into the item with an offset.
   1226           *          Read data is copied into *buf.
   1227           *
   1228           * @param   id  - Valid NV item Id.
   1229           * @param   ndx - Index offset into item
   1230           * @param   len - Length of data to read.
   1231           * @param  *buf - Data is read into this buffer.
   1232           *
   1233           * @return  ZSUCCESS if NV data was copied to the parameter 'buf'.
   1234           *          Otherwise, NV_OPER_FAILED for failure.
   1235           */

   \                                 In  segment BANKED_CODE, align 1, keep-with-next
   1236          uint8 osal_nv_read( uint16 id, uint16 ndx, uint16 len, void *buf )
   \                     osal_nv_read:
   1237          {
   \   000000   74F2         MOV     A,#-0xe
   \   000002   12....       LCALL   ?BANKED_ENTER_XDATA
   \   000005                ; Saved register size: 14
   \   000005                ; Auto size: 0
   \   000005   8C..         MOV     ?V0 + 0,R4
   \   000007   8D..         MOV     ?V0 + 1,R5
   \   000009   740E         MOV     A,#0xe
   \   00000B   12....       LCALL   ?XSTACK_DISP0_8
   \   00000E   E0           MOVX    A,@DPTR
   \   00000F   F5..         MOV     ?V0 + 2,A
   \   000011   A3           INC     DPTR
   \   000012   E0           MOVX    A,@DPTR
   \   000013   F5..         MOV     ?V0 + 3,A
   \   000015   7410         MOV     A,#0x10
   \   000017   12....       LCALL   ?XSTACK_DISP0_8
   \   00001A   E0           MOVX    A,@DPTR
   \   00001B   FE           MOV     R6,A
   \   00001C   A3           INC     DPTR
   \   00001D   E0           MOVX    A,@DPTR
   \   00001E   FF           MOV     R7,A
   1238            uint16 offset;
   1239          
   1240            offset = findItem( id );
   \   00001F                ; Setup parameters for call to function findItem
   \   00001F   12....       LCALL   ??findItem?relay
   1241            if ( offset == OSAL_NV_ITEM_NULL )
   \   000022   EA           MOV     A,R2
   \   000023   4B           ORL     A,R3
   \   000024   7004         JNZ     ??osal_nv_read_0
   1242            {
   1243              return NV_OPER_FAILED;
   \   000026   790A         MOV     R1,#0xa
   \   000028   8020         SJMP    ??osal_nv_read_1
   1244            }
   1245          
   1246            HalFlashRead(findPg, offset+ndx, buf, len);
   \                     ??osal_nv_read_0:
   \   00002A                ; Setup parameters for call to function HalFlashRead
   \   00002A   78..         MOV     R0,#?V0 + 2
   \   00002C   12....       LCALL   ?PUSH_XSTACK_I_TWO
   \   00002F   EE           MOV     A,R6
   \   000030   FC           MOV     R4,A
   \   000031   EF           MOV     A,R7
   \   000032   FD           MOV     R5,A
   \   000033   EA           MOV     A,R2
   \   000034   25..         ADD     A,?V0 + 0
   \   000036   FA           MOV     R2,A
   \   000037   EB           MOV     A,R3
   \   000038   35..         ADDC    A,?V0 + 1
   \   00003A   FB           MOV     R3,A
   \   00003B   90....       MOV     DPTR,#findPg
   \   00003E   E0           MOVX    A,@DPTR
   \   00003F   F9           MOV     R1,A
   \   000040   12....       LCALL   ??HalFlashRead?relay
   \   000043   7402         MOV     A,#0x2
   \   000045   12....       LCALL   ?DEALLOC_XSTACK8
   1247          
   1248            return ZSUCCESS;
   \   000048   7900         MOV     R1,#0x0
   \                     ??osal_nv_read_1:
   \   00004A   7F06         MOV     R7,#0x6
   \   00004C   02....       LJMP    ?BANKED_LEAVE_XDATA
   1249          }

   \                                 In  segment BANK_RELAYS, align 1
   \                     ??initNV?relay:
   \   000000   12....       LCALL   ?BDISPATCH
   \   000003   ......       DC24    initNV

   \                                 In  segment BANK_RELAYS, align 1
   \                     ??setPageUse?relay:
   \   000000   12....       LCALL   ?BDISPATCH
   \   000003   ......       DC24    setPageUse

   \                                 In  segment BANK_RELAYS, align 1
   \                     ??initPage?relay:
   \   000000   12....       LCALL   ?BDISPATCH
   \   000003   ......       DC24    initPage

   \                                 In  segment BANK_RELAYS, align 1
   \                     ??erasePage?relay:
   \   000000   12....       LCALL   ?BDISPATCH
   \   000003   ......       DC24    erasePage

   \                                 In  segment BANK_RELAYS, align 1
   \                     ??compactPage?relay:
   \   000000   12....       LCALL   ?BDISPATCH
   \   000003   ......       DC24    compactPage

   \                                 In  segment BANK_RELAYS, align 1
   \                     ??findItem?relay:
   \   000000   12....       LCALL   ?BDISPATCH
   \   000003   ......       DC24    findItem

   \                                 In  segment BANK_RELAYS, align 1
   \                     ??initItem?relay:
   \   000000   12....       LCALL   ?BDISPATCH
   \   000003   ......       DC24    initItem

   \                                 In  segment BANK_RELAYS, align 1
   \                     ??setItem?relay:
   \   000000   12....       LCALL   ?BDISPATCH
   \   000003   ......       DC24    setItem

   \                                 In  segment BANK_RELAYS, align 1
   \                     ??calcChkB?relay:
   \   000000   12....       LCALL   ?BDISPATCH
   \   000003   ......       DC24    calcChkB

   \                                 In  segment BANK_RELAYS, align 1
   \                     ??calcChkF?relay:
   \   000000   12....       LCALL   ?BDISPATCH
   \   000003   ......       DC24    calcChkF

   \                                 In  segment BANK_RELAYS, align 1
   \                     ??writeWord?relay:
   \   000000   12....       LCALL   ?BDISPATCH
   \   000003   ......       DC24    writeWord

   \                                 In  segment BANK_RELAYS, align 1
   \                     ??writeWordM?relay:
   \   000000   12....       LCALL   ?BDISPATCH
   \   000003   ......       DC24    writeWordM

   \                                 In  segment BANK_RELAYS, align 1
   \                     ??writeWordH?relay:
   \   000000   12....       LCALL   ?BDISPATCH
   \   000003   ......       DC24    writeWordH

   \                                 In  segment BANK_RELAYS, align 1
   \                     ??writeBuf?relay:
   \   000000   12....       LCALL   ?BDISPATCH
   \   000003   ......       DC24    writeBuf

   \                                 In  segment BANK_RELAYS, align 1
   \                     ??xferBuf?relay:
   \   000000   12....       LCALL   ?BDISPATCH
   \   000003   ......       DC24    xferBuf

   \                                 In  segment BANK_RELAYS, align 1
   \                     ??writeItem?relay:
   \   000000   12....       LCALL   ?BDISPATCH
   \   000003   ......       DC24    writeItem

   \                                 In  segment BANK_RELAYS, align 1
   \                     ??osal_nv_init?relay:
   \   000000   12....       LCALL   ?BDISPATCH
   \   000003   ......       DC24    osal_nv_init

   \                                 In  segment BANK_RELAYS, align 1
   \                     ??osal_nv_item_init?relay:
   \   000000   12....       LCALL   ?BDISPATCH
   \   000003   ......       DC24    osal_nv_item_init

   \                                 In  segment BANK_RELAYS, align 1
   \                     ??osal_nv_item_len?relay:
   \   000000   12....       LCALL   ?BDISPATCH
   \   000003   ......       DC24    osal_nv_item_len

   \                                 In  segment BANK_RELAYS, align 1
   \                     ??osal_nv_write?relay:
   \   000000   12....       LCALL   ?BDISPATCH
   \   000003   ......       DC24    osal_nv_write

   \                                 In  segment BANK_RELAYS, align 1
   \                     ??osal_nv_read?relay:
   \   000000   12....       LCALL   ?BDISPATCH
   \   000003   ......       DC24    osal_nv_read
   1250          
   1251          /*********************************************************************
   1252          *********************************************************************/

   Maximum stack usage in bytes:

     Function            ISTACK PSTACK XSTACK
     --------            ------ ------ ------
     calcChkB                0      0     42
     calcChkF                0      0     57
       -> HalFlashRead       0      0     44
     compactPage             0      0     63
       -> writeWordH         0      0     48
       -> calcChkF           0      0     48
       -> setItem            0      0     48
       -> writeBuf           0      0     52
       -> xferBuf            0      0     56
       -> setItem            0      0     48
       -> HalFlashRead       0      0     52
       -> erasePage          0      0     48
       -> setPageUse         0      0     48
     erasePage               0      0     33
       -> HalAdcCheckVdd     0      0     18
       -> HalFlashErase      0      0     18
     findItem                0      0     47
       -> initPage           0      0     24
     initItem                2      0     55
       -> writeItem          0      0     36
       -> compactPage        0      0     30
     initNV                  0      0     57
       -> initPage           0      0     40
       -> HalFlashRead       0      0     44
       -> setPageUse         0      0     40
       -> setPageUse         0      0     40
       -> compactPage        0      0     40
       -> erasePage          0      0     40
       -> initNV             0      0     40
     initPage                0      0     48
       -> HalFlashRead       0      0     56
       -> calcChkF           0      0     52
       -> findItem           0      0     52
       -> setItem            0      0     52
       -> setItem            0      0     52
     osal_nv_init            2      0      0
       -> initNV             4      0      0
     osal_nv_item_init       0      0     18
       -> findItem           0      0     28
       -> initItem           0      0     32
       -> initNV             0      0     28
     osal_nv_item_len        0      0     20
       -> findItem           0      0     36
       -> HalFlashRead       0      0     40
     osal_nv_read            0      0     20
       -> findItem           0      0     28
       -> HalFlashRead       0      0     32
     osal_nv_write           2      0     43
       -> findItem           0      0     70
       -> HalFlashRead       0      0     74
       -> HalFlashRead       0      0     74
       -> initItem           0      0     74
       -> setItem            0      0     70
       -> xferBuf            0      0     78
       -> writeBuf           0      0     74
       -> xferBuf            0      0     78
       -> calcChkF           0      0     70
       -> writeWordH         0      0     70
       -> HalFlashRead       0      0     74
       -> setItem            0      0     70
       -> compactPage        0      0     70
       -> initNV             0      0     70
     setItem                 0      0     59
       -> HalFlashRead       0      0     48
       -> writeWord          0      0     44
       -> writeWord          0      0     44
     setPageUse              0      0     49
       -> writeWord          0      0     34
     writeBuf                1      0     59
       -> HalFlashRead       0      0     44
       -> writeWord          0      0     40
       -> writeWordM         0      0     44
       -> HalFlashRead       0      0     44
       -> writeWord          0      0     40
     writeItem               0      0     52
       -> setPageUse         0      0     64
       -> writeWord          0      0     64
       -> HalFlashRead       0      0     68
       -> calcChkB           0      0     64
       -> writeBuf           0      0     68
       -> calcChkF           0      0     64
       -> writeWordH         0      0     64
       -> HalFlashRead       0      0     68
     writeWord               0      0     47
       -> HalAdcCheckVdd     0      0     26
       -> HalFlashWrite      0      0     30
     writeWordH              1      0     48
       -> writeWord          0      0     26
     writeWordM              0      0     37
       -> HalAdcCheckVdd     0      0     26
       -> HalFlashWrite      0      0     30
     xferBuf                 0      0     63
       -> HalFlashRead       0      0     48
       -> HalFlashRead       0      0     48
       -> writeWord          0      0     44
       -> HalFlashRead       0      0     48
       -> writeWord          0      0     44
       -> HalFlashRead       0      0     48
       -> HalFlashRead       0      0     48
       -> writeWord          0      0     44


   Segment part sizes:

     Function/Label            Bytes
     --------------            -----
     _nvBuf                    12288
     _nvIEEE                       8
     pgOff                        12
     pgLost                       12
     pgRes                         1
     findPg                        1
     failF                         1
     initNV                      227
     setPageUse                   70
     initPage                    468
     erasePage                    69
     compactPage                 460
     findItem                     72
     initItem                    251
     setItem                     183
     calcChkB                    114
     calcChkF                    167
     writeWord                    86
     writeWordM                   94
     writeWordH                   77
     writeBuf                    391
     xferBuf                     453
     writeItem                   439
     osal_nv_init                 14
     osal_nv_item_init            92
     osal_nv_item_len             84
     osal_nv_write               770
     osal_nv_read                 79
     ??initNV?relay                6
     ??setPageUse?relay            6
     ??initPage?relay              6
     ??erasePage?relay             6
     ??compactPage?relay           6
     ??findItem?relay              6
     ??initItem?relay              6
     ??setItem?relay               6
     ??calcChkB?relay              6
     ??calcChkF?relay              6
     ??writeWord?relay             6
     ??writeWordM?relay            6
     ??writeWordH?relay            6
     ??writeBuf?relay              6
     ??xferBuf?relay               6
     ??writeItem?relay             6
     ??osal_nv_init?relay          6
     ??osal_nv_item_init?relay     6
     ??osal_nv_item_len?relay      6
     ??osal_nv_write?relay         6
     ??osal_nv_read?relay          6

 
  4 660 bytes in segment BANKED_CODE
    126 bytes in segment BANK_RELAYS
      8 bytes in segment IEEE_ADDRESS_SPACE
     27 bytes in segment XDATA_Z
 12 288 bytes in segment ZIGNV_ADDRESS_SPACE
 
  4 786 bytes of CODE  memory
 12 323 bytes of XDATA memory

Errors: none
Warnings: none
