///////////////////////////////////////////////////////////////////////////////
//                                                                            /
// IAR C/C++ Compiler V8.10.3.10338/W32 for 8051        18/Dec/2020  11:23:26 /
// Copyright 2004-2011 IAR Systems AB.                                        /
//                                                                            /
//    Core               =  plain                                             /
//    Code model         =  banked                                            /
//    Data model         =  large                                             /
//    Calling convention =  xdata reentrant                                   /
//    Constant location  =  data_rom                                          /
//    Dptr setup         =  1,16                                              /
//    Source file        =  C:\Users\Administrator\Desktop\eps\ZigBeeÕ®–≈ µ—È /
//                          \4.ZigBeeÕ¯¬Á¥´ ‰PM2.5 µ—È\Components\osal\mcu\cc /
//                          2530\OSAL_Nv.c                                    /
//    Command line       =  -f C:\Users\Administrator\Desktop\eps\ZigBeeÕ®–≈  /
//                          µ—È\4.ZigBeeÕ¯¬Á¥´ ‰PM2.5 µ—È\Projects\zstack\Sam /
//                          ples\SampleApp\CC2530DB\..\..\..\Tools\CC2530DB\f /
//                          8wEndev.cfg (-DCPU32MHZ -DROOT=__near_func        /
//                          -DBLINK_LEDS) -f C:\Users\Administrator\Desktop\e /
//                          ps\ZigBeeÕ®–≈ µ—È\4.ZigBeeÕ¯¬Á¥´ ‰PM2.5 µ—È\Proje /
//                          cts\zstack\Samples\SampleApp\CC2530DB\..\..\..\To /
//                          ols\CC2530DB\f8wConfig.cfg (-DSECURE=0            /
//                          -DZG_SECURE_DYNAMIC=0 -DREFLECTOR                 /
//                          -DDEFAULT_CHANLIST=0x00000800                     /
//                          -DZDAPP_CONFIG_PAN_ID=0xFF11                      /
//                          -DNWK_START_DELAY=100 -DEXTENDED_JOINING_RANDOM_M /
//                          ASK=0x007F -DBEACON_REQUEST_DELAY=100             /
//                          -DBEACON_REQ_DELAY_MASK=0x00FF                    /
//                          -DROUTE_EXPIRY_TIME=30 -DAPSC_ACK_WAIT_DURATION_P /
//                          OLLED=3000 -DNWK_INDIRECT_MSG_TIMEOUT=7           /
//                          -DMAX_RREQ_ENTRIES=8 -DAPSC_MAX_FRAME_RETRIES=3   /
//                          -DNWK_MAX_DATA_RETRIES=2                          /
//                          -DMAX_POLL_FAILURE_RETRIES=2 -DMAX_BCAST=9        /
//                          -DAPS_MAX_GROUPS=16 -DMAX_RTG_ENTRIES=40          /
//                          -DNWK_MAX_BINDING_ENTRIES=4                       /
//                          -DMAX_BINDING_CLUSTER_IDS=4                       /
//                          "-DDEFAULT_KEY={0x01, 0x03, 0x05, 0x07, 0x09,     /
//                          0x0B, 0x0D, 0x0F, 0x00, 0x02, 0x04, 0x06, 0x08,   /
//                          0x0A, 0x0C, 0x0D}" -DMAC_MAX_FRAME_SIZE=116       /
//                          "-DCONST=const __code" -DGENERIC=__generic        /
//                          -DRFD_RCVC_ALWAYS_ON=FALSE -DPOLL_RATE=1000       /
//                          -DQUEUED_POLL_RATE=100 -DRESPONSE_POLL_RATE=100)  /
//                          -DREJOIN_POLL_RATE=440 C:\Users\Administrator\Des /
//                          ktop\eps\ZigBeeÕ®–≈ µ—È\4.ZigBeeÕ¯¬Á¥´ ‰PM2.5 µ—È /
//                          \Components\osal\mcu\cc2530\OSAL_Nv.c -D          /
//                          NWK_AUTO_POLL -D ZTOOL_P1 -D MT_SYS_FUNC -D       /
//                          MT_ZDO_FUNC -D LCD_SUPPORTED=DEBUG -lC            /
//                          C:\Users\Administrator\Desktop\eps\ZigBeeÕ®–≈ µ—È /
//                          \4.ZigBeeÕ¯¬Á¥´ ‰PM2.5 µ—È\Projects\zstack\Sample /
//                          s\SampleApp\CC2530DB\EndDeviceEB\List\ -lA        /
//                          C:\Users\Administrator\Desktop\eps\ZigBeeÕ®–≈ µ—È /
//                          \4.ZigBeeÕ¯¬Á¥´ ‰PM2.5 µ—È\Projects\zstack\Sample /
//                          s\SampleApp\CC2530DB\EndDeviceEB\List\            /
//                          --diag_suppress Pe001,Pa010 -o                    /
//                          C:\Users\Administrator\Desktop\eps\ZigBeeÕ®–≈ µ—È /
//                          \4.ZigBeeÕ¯¬Á¥´ ‰PM2.5 µ—È\Projects\zstack\Sample /
//                          s\SampleApp\CC2530DB\EndDeviceEB\Obj\ -e          /
//                          --no_unroll --no_inline --no_tbaa --debug         /
//                          --core=plain --dptr=16,1 --data_model=large       /
//                          --code_model=banked --calling_convention=xdata_re /
//                          entrant --place_constants=data_rom                /
//                          --nr_virtual_regs 16 -I                           /
//                          C:\Users\Administrator\Desktop\eps\ZigBeeÕ®–≈ µ—È /
//                          \4.ZigBeeÕ¯¬Á¥´ ‰PM2.5 µ—È\Projects\zstack\Sample /
//                          s\SampleApp\CC2530DB\ -I                          /
//                          C:\Users\Administrator\Desktop\eps\ZigBeeÕ®–≈ µ—È /
//                          \4.ZigBeeÕ¯¬Á¥´ ‰PM2.5 µ—È\Projects\zstack\Sample /
//                          s\SampleApp\CC2530DB\..\SOURCE\ -I                /
//                          C:\Users\Administrator\Desktop\eps\ZigBeeÕ®–≈ µ—È /
//                          \4.ZigBeeÕ¯¬Á¥´ ‰PM2.5 µ—È\Projects\zstack\Sample /
//                          s\SampleApp\CC2530DB\..\..\..\ZMAIN\TI2530DB\ -I  /
//                          C:\Users\Administrator\Desktop\eps\ZigBeeÕ®–≈ µ—È /
//                          \4.ZigBeeÕ¯¬Á¥´ ‰PM2.5 µ—È\Projects\zstack\Sample /
//                          s\SampleApp\CC2530DB\..\..\..\..\..\COMPONENTS\MT /
//                          \ -I C:\Users\Administrator\Desktop\eps\ZigBeeÕ®– /
//                          ≈ µ—È\4.ZigBeeÕ¯¬Á¥´ ‰PM2.5 µ—È\Projects\zstack\S /
//                          amples\SampleApp\CC2530DB\..\..\..\..\..\COMPONEN /
//                          TS\HAL\INCLUDE\ -I C:\Users\Administrator\Desktop /
//                          \eps\ZigBeeÕ®–≈ µ—È\4.ZigBeeÕ¯¬Á¥´ ‰PM2.5 µ—È\Pro /
//                          jects\zstack\Samples\SampleApp\CC2530DB\..\..\..\ /
//                          ..\..\COMPONENTS\HAL\TARGET\CC2530EB\ -I          /
//                          C:\Users\Administrator\Desktop\eps\ZigBeeÕ®–≈ µ—È /
//                          \4.ZigBeeÕ¯¬Á¥´ ‰PM2.5 µ—È\Projects\zstack\Sample /
//                          s\SampleApp\CC2530DB\..\..\..\..\..\COMPONENTS\OS /
//                          AL\MCU\CCSOC\ -I C:\Users\Administrator\Desktop\e /
//                          ps\ZigBeeÕ®–≈ µ—È\4.ZigBeeÕ¯¬Á¥´ ‰PM2.5 µ—È\Proje /
//                          cts\zstack\Samples\SampleApp\CC2530DB\..\..\..\.. /
//                          \..\COMPONENTS\OSAL\INCLUDE\ -I                   /
//                          C:\Users\Administrator\Desktop\eps\ZigBeeÕ®–≈ µ—È /
//                          \4.ZigBeeÕ¯¬Á¥´ ‰PM2.5 µ—È\Projects\zstack\Sample /
//                          s\SampleApp\CC2530DB\..\..\..\..\..\COMPONENTS\ST /
//                          ACK\AF\ -I C:\Users\Administrator\Desktop\eps\Zig /
//                          BeeÕ®–≈ µ—È\4.ZigBeeÕ¯¬Á¥´ ‰PM2.5 µ—È\Projects\zs /
//                          tack\Samples\SampleApp\CC2530DB\..\..\..\..\..\CO /
//                          MPONENTS\STACK\NWK\ -I C:\Users\Administrator\Des /
//                          ktop\eps\ZigBeeÕ®–≈ µ—È\4.ZigBeeÕ¯¬Á¥´ ‰PM2.5 µ—È /
//                          \Projects\zstack\Samples\SampleApp\CC2530DB\..\.. /
//                          \..\..\..\COMPONENTS\STACK\SEC\ -I                /
//                          C:\Users\Administrator\Desktop\eps\ZigBeeÕ®–≈ µ—È /
//                          \4.ZigBeeÕ¯¬Á¥´ ‰PM2.5 µ—È\Projects\zstack\Sample /
//                          s\SampleApp\CC2530DB\..\..\..\..\..\COMPONENTS\ST /
//                          ACK\SAPI\ -I C:\Users\Administrator\Desktop\eps\Z /
//                          igBeeÕ®–≈ µ—È\4.ZigBeeÕ¯¬Á¥´ ‰PM2.5 µ—È\Projects\ /
//                          zstack\Samples\SampleApp\CC2530DB\..\..\..\..\..\ /
//                          COMPONENTS\STACK\SYS\ -I                          /
//                          C:\Users\Administrator\Desktop\eps\ZigBeeÕ®–≈ µ—È /
//                          \4.ZigBeeÕ¯¬Á¥´ ‰PM2.5 µ—È\Projects\zstack\Sample /
//                          s\SampleApp\CC2530DB\..\..\..\..\..\COMPONENTS\ST /
//                          ACK\ZDO\ -I C:\Users\Administrator\Desktop\eps\Zi /
//                          gBeeÕ®–≈ µ—È\4.ZigBeeÕ¯¬Á¥´ ‰PM2.5 µ—È\Projects\z /
//                          stack\Samples\SampleApp\CC2530DB\..\..\..\..\..\C /
//                          OMPONENTS\ZMAC\F8W\ -I C:\Users\Administrator\Des /
//                          ktop\eps\ZigBeeÕ®–≈ µ—È\4.ZigBeeÕ¯¬Á¥´ ‰PM2.5 µ—È /
//                          \Projects\zstack\Samples\SampleApp\CC2530DB\..\.. /
//                          \..\..\..\COMPONENTS\ZMAC\ -I                     /
//                          C:\Users\Administrator\Desktop\eps\ZigBeeÕ®–≈ µ—È /
//                          \4.ZigBeeÕ¯¬Á¥´ ‰PM2.5 µ—È\Projects\zstack\Sample /
//                          s\SampleApp\CC2530DB\..\..\..\..\..\COMPONENTS\SE /
//                          RVICES\SADDR\ -I C:\Users\Administrator\Desktop\e /
//                          ps\ZigBeeÕ®–≈ µ—È\4.ZigBeeÕ¯¬Á¥´ ‰PM2.5 µ—È\Proje /
//                          cts\zstack\Samples\SampleApp\CC2530DB\..\..\..\.. /
//                          \..\COMPONENTS\SERVICES\SDATA\ -I                 /
//                          C:\Users\Administrator\Desktop\eps\ZigBeeÕ®–≈ µ—È /
//                          \4.ZigBeeÕ¯¬Á¥´ ‰PM2.5 µ—È\Projects\zstack\Sample /
//                          s\SampleApp\CC2530DB\..\..\..\..\..\COMPONENTS\MA /
//                          C\INCLUDE\ -I C:\Users\Administrator\Desktop\eps\ /
//                          ZigBeeÕ®–≈ µ—È\4.ZigBeeÕ¯¬Á¥´ ‰PM2.5 µ—È\Projects /
//                          \zstack\Samples\SampleApp\CC2530DB\..\..\..\..\.. /
//                          \COMPONENTS\MAC\HIGH_LEVEL\ -I                    /
//                          C:\Users\Administrator\Desktop\eps\ZigBeeÕ®–≈ µ—È /
//                          \4.ZigBeeÕ¯¬Á¥´ ‰PM2.5 µ—È\Projects\zstack\Sample /
//                          s\SampleApp\CC2530DB\..\..\..\..\..\COMPONENTS\MA /
//                          C\LOW_LEVEL\srf04\ -I C:\Users\Administrator\Desk /
//                          top\eps\ZigBeeÕ®–≈ µ—È\4.ZigBeeÕ¯¬Á¥´ ‰PM2.5 µ—È\ /
//                          Projects\zstack\Samples\SampleApp\CC2530DB\..\..\ /
//                          ..\..\..\COMPONENTS\MAC\LOW_LEVEL\srf04\SINGLE_CH /
//                          IP\ -I C:\Users\Administrator\Desktop\eps\ZigBeeÕ /
//                          ®–≈ µ—È\4.ZigBeeÕ¯¬Á¥´ ‰PM2.5 µ—È\Projects\zstack /
//                          \Samples\SampleApp\CC2530DB\..\..\..\..\..\COMPON /
//                          ENTS\HARDWARE\ -Om                                /
//    List file          =  C:\Users\Administrator\Desktop\eps\ZigBeeÕ®–≈ µ—È /
//                          \4.ZigBeeÕ¯¬Á¥´ ‰PM2.5 µ—È\Projects\zstack\Sample /
//                          s\SampleApp\CC2530DB\EndDeviceEB\List\OSAL_Nv.s51 /
//                                                                            /
//                                                                            /
///////////////////////////////////////////////////////////////////////////////

        NAME OSAL_Nv

        RTMODEL "__SystemLibrary", "CLib"
        RTMODEL "__calling_convention", "xdata_reentrant"
        RTMODEL "__code_model", "banked"
        RTMODEL "__core", "plain"
        RTMODEL "__data_model", "large"
        RTMODEL "__dptr_size", "16"
        RTMODEL "__extended_stack", "disabled"
        RTMODEL "__location_for_constants", "data"
        RTMODEL "__number_of_dptrs", "1"
        RTMODEL "__rt_version", "1"

        RSEG DOVERLAY:DATA:NOROOT(0)
        RSEG IOVERLAY:IDATA:NOROOT(0)
        RSEG ISTACK:IDATA:NOROOT(0)
        RSEG PSTACK:XDATA:NOROOT(0)
        RSEG XSTACK:XDATA:NOROOT(0)

        EXTERN ?ALLOC_XSTACK8
        EXTERN ?BANKED_ENTER_XDATA
        EXTERN ?BANKED_LEAVE_XDATA
        EXTERN ?BDISPATCH
        EXTERN ?BRET
        EXTERN ?DEALLOC_XSTACK8
        EXTERN ?PUSH_XSTACK8_X_TWO
        EXTERN ?PUSH_XSTACK_I_ONE
        EXTERN ?PUSH_XSTACK_I_TWO
        EXTERN ?S_SHL
        EXTERN ?US_SHR
        EXTERN ?V0
        EXTERN ?XSP
        EXTERN ?XSTACK_DISP0_8
        EXTERN __INIT_XDATA_Z

        FUNCTION ??calcChkB?relay,0203H
        FUNCTION ??calcChkF?relay,0203H
        FUNCTION ??compactPage?relay,0203H
        FUNCTION ??erasePage?relay,0203H
        FUNCTION ??findItem?relay,0203H
        FUNCTION ??initItem?relay,0203H
        FUNCTION ??initNV?relay,0203H
        FUNCTION ??initPage?relay,0203H
        PUBLIC ??osal_nv_init?relay
        FUNCTION ??osal_nv_init?relay,0203H
        PUBLIC ??osal_nv_item_init?relay
        FUNCTION ??osal_nv_item_init?relay,0203H
        PUBLIC ??osal_nv_item_len?relay
        FUNCTION ??osal_nv_item_len?relay,0203H
        PUBLIC ??osal_nv_read?relay
        FUNCTION ??osal_nv_read?relay,0203H
        PUBLIC ??osal_nv_write?relay
        FUNCTION ??osal_nv_write?relay,0203H
        FUNCTION ??setItem?relay,0203H
        FUNCTION ??setPageUse?relay,0203H
        FUNCTION ??writeBuf?relay,0203H
        FUNCTION ??writeItem?relay,0203H
        FUNCTION ??writeWord?relay,0203H
        FUNCTION ??writeWordH?relay,0203H
        FUNCTION ??writeWordM?relay,0203H
        FUNCTION ??xferBuf?relay,0203H
        PUBLIC _nvBuf
        PUBLIC _nvIEEE
        FUNCTION calcChkB,0203H
        ARGFRAME XSTACK, 32, STACK
        ARGFRAME IOVERLAY, 0, STATIC
        ARGFRAME DOVERLAY, 0, STATIC
        LOCFRAME XSTACK, 10, STACK
        FUNCTION calcChkF,021203H
        ARGFRAME XSTACK, 35, STACK
        ARGFRAME IOVERLAY, 0, STATIC
        ARGFRAME DOVERLAY, 0, STATIC
        LOCFRAME XSTACK, 22, STACK
        FUNCTION compactPage,021203H
        ARGFRAME XSTACK, 35, STACK
        ARGFRAME IOVERLAY, 0, STATIC
        ARGFRAME DOVERLAY, 0, STATIC
        LOCFRAME XSTACK, 28, STACK
        FUNCTION erasePage,021203H
        ARGFRAME XSTACK, 24, STACK
        ARGFRAME IOVERLAY, 0, STATIC
        ARGFRAME DOVERLAY, 0, STATIC
        LOCFRAME XSTACK, 9, STACK
        FUNCTION findItem,021203H
        ARGFRAME XSTACK, 35, STACK
        ARGFRAME IOVERLAY, 0, STATIC
        ARGFRAME DOVERLAY, 0, STATIC
        LOCFRAME XSTACK, 12, STACK
        FUNCTION initItem,021203H
        ARGFRAME XSTACK, 37, STACK
        ARGFRAME IOVERLAY, 0, STATIC
        ARGFRAME DOVERLAY, 0, STATIC
        LOCFRAME ISTACK, 2, STACK
        LOCFRAME XSTACK, 18, STACK
        FUNCTION initNV,021203H
        ARGFRAME XSTACK, 35, STACK
        ARGFRAME IOVERLAY, 0, STATIC
        ARGFRAME DOVERLAY, 0, STATIC
        LOCFRAME XSTACK, 22, STACK
        FUNCTION initPage,021203H
        ARGFRAME XSTACK, 20, STACK
        ARGFRAME IOVERLAY, 0, STATIC
        ARGFRAME DOVERLAY, 0, STATIC
        LOCFRAME XSTACK, 28, STACK
        PUBLIC osal_nv_init
        FUNCTION osal_nv_init,021203H
        ARGFRAME XSTACK, 0, STACK
        LOCFRAME ISTACK, 2, STACK
        PUBLIC osal_nv_item_init
        FUNCTION osal_nv_item_init,021203H
        ARGFRAME XSTACK, 2, STACK
        LOCFRAME XSTACK, 16, STACK
        PUBLIC osal_nv_item_len
        FUNCTION osal_nv_item_len,021203H
        ARGFRAME XSTACK, 0, STACK
        LOCFRAME XSTACK, 20, STACK
        PUBLIC osal_nv_read
        FUNCTION osal_nv_read,021203H
        ARGFRAME XSTACK, 4, STACK
        LOCFRAME XSTACK, 16, STACK
        PUBLIC osal_nv_write
        FUNCTION osal_nv_write,021203H
        ARGFRAME XSTACK, 4, STACK
        LOCFRAME ISTACK, 2, STACK
        LOCFRAME XSTACK, 39, STACK
        FUNCTION setItem,021203H
        ARGFRAME XSTACK, 35, STACK
        ARGFRAME IOVERLAY, 0, STATIC
        ARGFRAME DOVERLAY, 0, STATIC
        LOCFRAME XSTACK, 24, STACK
        FUNCTION setPageUse,021203H
        ARGFRAME XSTACK, 32, STACK
        ARGFRAME IOVERLAY, 0, STATIC
        ARGFRAME DOVERLAY, 0, STATIC
        LOCFRAME XSTACK, 17, STACK
        FUNCTION writeBuf,021203H
        ARGFRAME XSTACK, 37, STACK
        ARGFRAME IOVERLAY, 0, STATIC
        ARGFRAME DOVERLAY, 0, STATIC
        LOCFRAME ISTACK, 1, STACK
        LOCFRAME XSTACK, 22, STACK
        FUNCTION writeItem,021203H
        ARGFRAME XSTACK, 18, STACK
        ARGFRAME IOVERLAY, 0, STATIC
        ARGFRAME DOVERLAY, 0, STATIC
        LOCFRAME XSTACK, 34, STACK
        FUNCTION writeWord,021203H
        ARGFRAME XSTACK, 32, STACK
        ARGFRAME IOVERLAY, 0, STATIC
        ARGFRAME DOVERLAY, 0, STATIC
        LOCFRAME XSTACK, 15, STACK
        FUNCTION writeWordH,021203H
        ARGFRAME XSTACK, 35, STACK
        ARGFRAME IOVERLAY, 0, STATIC
        ARGFRAME DOVERLAY, 0, STATIC
        LOCFRAME ISTACK, 1, STACK
        LOCFRAME XSTACK, 13, STACK
        FUNCTION writeWordM,021203H
        ARGFRAME XSTACK, 22, STACK
        ARGFRAME IOVERLAY, 0, STATIC
        ARGFRAME DOVERLAY, 0, STATIC
        LOCFRAME XSTACK, 15, STACK
        FUNCTION xferBuf,021203H
        ARGFRAME XSTACK, 39, STACK
        ARGFRAME IOVERLAY, 0, STATIC
        ARGFRAME DOVERLAY, 0, STATIC
        LOCFRAME XSTACK, 24, STACK
        
        CFI Names cfiNames0
        CFI StackFrame CFA_SP SP IDATA
        CFI StackFrame CFA_PSP16 PSP16 XDATA
        CFI StackFrame CFA_XSP16 XSP16 XDATA
        CFI StaticOverlayFrame CFA_IOVERLAY IOVERLAY
        CFI StaticOverlayFrame CFA_DOVERLAY DOVERLAY
        CFI Resource `PSW.CY`:1, `B.BR0`:1, `B.BR1`:1, `B.BR2`:1, `B.BR3`:1
        CFI Resource `B.BR4`:1, `B.BR5`:1, `B.BR6`:1, `B.BR7`:1, `VB.BR8`:1
        CFI Resource `VB.BR9`:1, `VB.BR10`:1, `VB.BR11`:1, `VB.BR12`:1
        CFI Resource `VB.BR13`:1, `VB.BR14`:1, `VB.BR15`:1, VB:8, B:8, A:8
        CFI Resource PSW:8, DPL0:8, DPH0:8, R0:8, R1:8, R2:8, R3:8, R4:8, R5:8
        CFI Resource R6:8, R7:8, V0:8, V1:8, V2:8, V3:8, V4:8, V5:8, V6:8, V7:8
        CFI Resource V8:8, V9:8, V10:8, V11:8, V12:8, V13:8, V14:8, V15:8, SP:8
        CFI Resource PSPH:8, PSPL:8, PSP16:16, XSPH:8, XSPL:8, XSP16:16
        CFI VirtualResource ?RET:24
        CFI Resource ?BRET_EXT:8
        CFI VirtualResource ?RET_HIGH:8, ?RET_LOW:8
        CFI ResourceParts PSP16 PSPH, PSPL
        CFI ResourceParts XSP16 XSPH, XSPL
        CFI ResourceParts ?RET ?BRET_EXT, ?RET_HIGH, ?RET_LOW
        CFI EndNames cfiNames0
        
        CFI Common cfiCommon0 Using cfiNames0
        CFI CodeAlign 1
        CFI DataAlign -1
        CFI ReturnAddress ?RET CODE
        CFI CFA_DOVERLAY Used
        CFI CFA_IOVERLAY Used
        CFI CFA_SP SP+-3
        CFI CFA_PSP16 PSP16+0
        CFI CFA_XSP16 XSP16+0
        CFI `PSW.CY` SameValue
        CFI `B.BR0` SameValue
        CFI `B.BR1` SameValue
        CFI `B.BR2` SameValue
        CFI `B.BR3` SameValue
        CFI `B.BR4` SameValue
        CFI `B.BR5` SameValue
        CFI `B.BR6` SameValue
        CFI `B.BR7` SameValue
        CFI `VB.BR8` SameValue
        CFI `VB.BR9` SameValue
        CFI `VB.BR10` SameValue
        CFI `VB.BR11` SameValue
        CFI `VB.BR12` SameValue
        CFI `VB.BR13` SameValue
        CFI `VB.BR14` SameValue
        CFI `VB.BR15` SameValue
        CFI VB SameValue
        CFI B Undefined
        CFI A Undefined
        CFI PSW SameValue
        CFI DPL0 SameValue
        CFI DPH0 SameValue
        CFI R0 Undefined
        CFI R1 Undefined
        CFI R2 Undefined
        CFI R3 Undefined
        CFI R4 Undefined
        CFI R5 Undefined
        CFI R6 SameValue
        CFI R7 SameValue
        CFI V0 SameValue
        CFI V1 SameValue
        CFI V2 SameValue
        CFI V3 SameValue
        CFI V4 SameValue
        CFI V5 SameValue
        CFI V6 SameValue
        CFI V7 SameValue
        CFI V8 SameValue
        CFI V9 SameValue
        CFI V10 SameValue
        CFI V11 SameValue
        CFI V12 SameValue
        CFI V13 SameValue
        CFI V14 SameValue
        CFI V15 SameValue
        CFI PSPH Undefined
        CFI PSPL Undefined
        CFI XSPH Undefined
        CFI XSPL Undefined
        CFI ?RET Concat
        CFI ?BRET_EXT Frame(CFA_SP, 3)
        CFI ?RET_HIGH Frame(CFA_SP, 2)
        CFI ?RET_LOW Frame(CFA_SP, 1)
        CFI EndCommon cfiCommon0
        
HalFlashRead        SYMBOL "HalFlashRead"
HalAdcCheckVdd      SYMBOL "HalAdcCheckVdd"
HalFlashErase       SYMBOL "HalFlashErase"
HalFlashWrite       SYMBOL "HalFlashWrite"
??HalAdcCheckVdd?relay SYMBOL "?relay", HalAdcCheckVdd
??HalFlashErase?relay SYMBOL "?relay", HalFlashErase
??HalFlashRead?relay SYMBOL "?relay", HalFlashRead
??HalFlashWrite?relay SYMBOL "?relay", HalFlashWrite
osal_nv_init        SYMBOL "osal_nv_init"
??osal_nv_init?relay SYMBOL "?relay", osal_nv_init
osal_nv_item_init   SYMBOL "osal_nv_item_init"
??osal_nv_item_init?relay SYMBOL "?relay", osal_nv_item_init
osal_nv_item_len    SYMBOL "osal_nv_item_len"
??osal_nv_item_len?relay SYMBOL "?relay", osal_nv_item_len
osal_nv_read        SYMBOL "osal_nv_read"
??osal_nv_read?relay SYMBOL "?relay", osal_nv_read
osal_nv_write       SYMBOL "osal_nv_write"
??osal_nv_write?relay SYMBOL "?relay", osal_nv_write

        EXTERN HalFlashRead
        FUNCTION HalFlashRead,0202H
        ARGFRAME ISTACK, 0, STACK
        ARGFRAME PSTACK, 0, STACK
        ARGFRAME XSTACK, 37, STACK
        ARGFRAME IOVERLAY, 0, STATIC
        ARGFRAME DOVERLAY, 0, STATIC
        EXTERN HalAdcCheckVdd
        FUNCTION HalAdcCheckVdd,0202H
        ARGFRAME ISTACK, 0, STACK
        ARGFRAME PSTACK, 0, STACK
        ARGFRAME XSTACK, 13, STACK
        ARGFRAME IOVERLAY, 0, STATIC
        ARGFRAME DOVERLAY, 0, STATIC
        EXTERN HalFlashErase
        FUNCTION HalFlashErase,0202H
        ARGFRAME ISTACK, 0, STACK
        ARGFRAME PSTACK, 0, STACK
        ARGFRAME XSTACK, 9, STACK
        ARGFRAME IOVERLAY, 0, STATIC
        ARGFRAME DOVERLAY, 0, STATIC
        EXTERN HalFlashWrite
        FUNCTION HalFlashWrite,0202H
        ARGFRAME ISTACK, 0, STACK
        ARGFRAME PSTACK, 0, STACK
        ARGFRAME XSTACK, 15, STACK
        ARGFRAME IOVERLAY, 0, STATIC
        ARGFRAME DOVERLAY, 0, STATIC
        EXTERN ??HalAdcCheckVdd?relay
        FUNCTION ??HalAdcCheckVdd?relay,00H
        EXTERN ??HalFlashErase?relay
        FUNCTION ??HalFlashErase?relay,00H
        EXTERN ??HalFlashRead?relay
        FUNCTION ??HalFlashRead?relay,00H
        EXTERN ??HalFlashWrite?relay
        FUNCTION ??HalFlashWrite?relay,00H

// C:\Users\Administrator\Desktop\eps\ZigBeeÕ®–≈ µ—È\4.ZigBeeÕ¯¬Á¥´ ‰PM2.5 µ—È\Components\osal\mcu\cc2530\OSAL_Nv.c
//    1 /**************************************************************************************************
//    2   Filename:       OSAL_Nv.c
//    3   Revised:        $Date: 2008-08-06 17:17:11 -0700 (Wed, 06 Aug 2008) $
//    4   Revision:       $Revision: 17715 $
//    5 
//    6   Description:    This module contains the OSAL non-volatile memory functions.
//    7 
//    8 
//    9   Copyright 2006-2009 Texas Instruments Incorporated. All rights reserved.
//   10 
//   11   IMPORTANT: Your use of this Software is limited to those specific rights
//   12   granted under the terms of a software license agreement between the user
//   13   who downloaded the software, his/her employer (which must be your employer)
//   14   and Texas Instruments Incorporated (the "License").  You may not use this
//   15   Software unless you agree to abide by the terms of the License. The License
//   16   limits your use, and you acknowledge, that the Software may not be modified,
//   17   copied or distributed unless embedded on a Texas Instruments microcontroller
//   18   or used solely and exclusively in conjunction with a Texas Instruments radio
//   19   frequency transceiver, which is integrated into your product.  Other than for
//   20   the foregoing purpose, you may not use, reproduce, copy, prepare derivative
//   21   works of, modify, distribute, perform, display or sell this Software and/or
//   22   its documentation for any purpose.
//   23 
//   24   YOU FURTHER ACKNOWLEDGE AND AGREE THAT THE SOFTWARE AND DOCUMENTATION ARE
//   25   PROVIDED ìAS ISî WITHOUT WARRANTY OF ANY KIND, EITHER EXPRESS OR IMPLIED,
//   26   INCLUDING WITHOUT LIMITATION, ANY WARRANTY OF MERCHANTABILITY, TITLE,
//   27   NON-INFRINGEMENT AND FITNESS FOR A PARTICULAR PURPOSE. IN NO EVENT SHALL
//   28   TEXAS INSTRUMENTS OR ITS LICENSORS BE LIABLE OR OBLIGATED UNDER CONTRACT,
//   29   NEGLIGENCE, STRICT LIABILITY, CONTRIBUTION, BREACH OF WARRANTY, OR OTHER
//   30   LEGAL EQUITABLE THEORY ANY DIRECT OR INDIRECT DAMAGES OR EXPENSES
//   31   INCLUDING BUT NOT LIMITED TO ANY INCIDENTAL, SPECIAL, INDIRECT, PUNITIVE
//   32   OR CONSEQUENTIAL DAMAGES, LOST PROFITS OR LOST DATA, COST OF PROCUREMENT
//   33   OF SUBSTITUTE GOODS, TECHNOLOGY, SERVICES, OR ANY CLAIMS BY THIRD PARTIES
//   34   (INCLUDING BUT NOT LIMITED TO ANY DEFENSE THEREOF), OR OTHER SIMILAR COSTS.
//   35 
//   36   Should you have any questions regarding your right to use this Software,
//   37   contact Texas Instruments Incorporated at www.TI.com.
//   38 **************************************************************************************************/
//   39 
//   40 /**************************************************************************************************
//   41   Notes:
//   42     - A trick buried deep in initPage() requires that the MSB of the NV Item Id is to
//   43       be reserved for use by this module.
//   44 **************************************************************************************************/
//   45 
//   46 /*********************************************************************
//   47  * INCLUDES
//   48  */
//   49 
//   50 #include "hal_adc.h"
//   51 #include "hal_flash.h"
//   52 #include "hal_types.h"
//   53 #include "ZComdef.h"
//   54 #include "OSAL_Nv.h"
//   55 
//   56 /*********************************************************************
//   57  * CONSTANTS
//   58  */
//   59 
//   60 #define OSAL_NV_PAGE_SIZE       HAL_FLASH_PAGE_SIZE
//   61 #define OSAL_NV_PAGES_USED      HAL_NV_PAGE_CNT
//   62 #define OSAL_NV_PAGE_BEG        HAL_NV_PAGE_BEG
//   63 #define OSAL_NV_PAGE_END       (OSAL_NV_PAGE_BEG + OSAL_NV_PAGES_USED - 1)
//   64 
//   65 #define OSAL_NV_ACTIVE          0x00
//   66 #define OSAL_NV_ERASED          0xFF
//   67 #define OSAL_NV_ERASED_ID       0xFFFF
//   68 #define OSAL_NV_ZEROED_ID       0x0000
//   69 // Reserve MSB of Id to signal a search for the "old" source copy (new write interrupted/failed.)
//   70 #define OSAL_NV_SOURCE_ID       0x8000
//   71 
//   72 #define OSAL_NV_PAGE_FREE       HAL_FLASH_PAGE_SIZE
//   73 
//   74 // In case pages 0-1 are ever used, define a null page value.
//   75 #define OSAL_NV_PAGE_NULL       0
//   76 
//   77 // In case item Id 0 is ever used, define a null item value.
//   78 #define OSAL_NV_ITEM_NULL       0
//   79 
//   80 #define OSAL_NV_WORD_SIZE       HAL_FLASH_WORD_SIZE
//   81 
//   82 #define OSAL_NV_PAGE_HDR_OFFSET 0
//   83 
//   84 /*********************************************************************
//   85  * MACROS
//   86  */
//   87 
//   88 #define  OSAL_NV_CHECK_BUS_VOLTAGE  (HalAdcCheckVdd( HAL_ADC_VDD_LIMIT_4 ))
//   89 
//   90 #define OSAL_NV_DATA_SIZE( LEN )  \ 
//   91    ((((LEN) + OSAL_NV_WORD_SIZE - 1) / OSAL_NV_WORD_SIZE) * OSAL_NV_WORD_SIZE)
//   92 
//   93 #define OSAL_NV_ITEM_SIZE( LEN )  \ 
//   94   (((((LEN) + OSAL_NV_WORD_SIZE - 1) / OSAL_NV_WORD_SIZE) * OSAL_NV_WORD_SIZE) + OSAL_NV_HDR_SIZE)
//   95 
//   96 /*********************************************************************
//   97  * TYPEDEFS
//   98  */
//   99 
//  100 typedef struct
//  101 {
//  102   uint16 id;
//  103   uint16 len;   // Enforce Flash-WORD size on len.
//  104   uint16 chk;   // Byte-wise checksum of the 'len' data bytes of the item.
//  105   uint16 stat;  // Item status.
//  106 } osalNvHdr_t;
//  107 // Struct member offsets.
//  108 #define OSAL_NV_HDR_ID    0
//  109 #define OSAL_NV_HDR_LEN   2
//  110 #define OSAL_NV_HDR_CHK   4
//  111 #define OSAL_NV_HDR_STAT  6
//  112 
//  113 #define OSAL_NV_HDR_ITEM  2  // Length of any item of a header struct.
//  114 #define OSAL_NV_HDR_SIZE  8
//  115 #define OSAL_NV_HDR_HALF (OSAL_NV_HDR_SIZE / 2)
//  116 
//  117 typedef struct
//  118 {
//  119   uint16 active;
//  120   uint16 inUse;
//  121   uint16 xfer;
//  122   uint16 spare;
//  123 } osalNvPgHdr_t;
//  124 // Struct member offsets.
//  125 #define OSAL_NV_PG_ACTIVE 0
//  126 #define OSAL_NV_PG_INUSE  2
//  127 #define OSAL_NV_PG_XFER   4
//  128 #define OSAL_NV_PG_SPARE  6
//  129 
//  130 #define OSAL_NV_PAGE_HDR_SIZE  8
//  131 #define OSAL_NV_PAGE_HDR_HALF (OSAL_NV_PAGE_HDR_SIZE / 2)
//  132 
//  133 typedef enum
//  134 {
//  135   eNvXfer,
//  136   eNvZero
//  137 } eNvHdrEnum;
//  138 
//  139 typedef enum
//  140 {
//  141   ePgActive,
//  142   ePgInUse,
//  143   ePgXfer,
//  144   ePgSpare
//  145 } ePgHdrEnum;
//  146 
//  147 /*********************************************************************
//  148  * EXTERNAL FUNCTIONS
//  149  */
//  150 
//  151 extern bool HalAdcCheckVdd(uint8 limit);
//  152 
//  153 /*********************************************************************
//  154  * GLOBAL VARIABLES
//  155  */
//  156 
//  157 #ifndef OAD_KEEP_NV_PAGES
//  158 // When NV pages are to remain intact during OAD download,
//  159 // the image itself should not include NV pages.
//  160 #pragma location="ZIGNV_ADDRESS_SPACE"

        RSEG ZIGNV_ADDRESS_SPACE:XDATA:REORDER:NOROOT(0)
        DATA8
//  161 __no_init uint8 _nvBuf[OSAL_NV_PAGES_USED * OSAL_NV_PAGE_SIZE];
_nvBuf:
        DS 12288
//  162 #pragma required=_nvBuf
//  163 #pragma location="IEEE_ADDRESS_SPACE"

        RSEG IEEE_ADDRESS_SPACE:XDATA:REORDER:NOROOT(0)
        DATA8
//  164 __no_init uint8 _nvIEEE[Z_EXTADDR_LEN];
_nvIEEE:
        DS 8
        REQUIRE _nvBuf
//  165 #pragma required=_nvIEEE
//  166 #endif // OAD_KEEP_NV_PAGES
//  167 
//  168 /*********************************************************************
//  169  * LOCAL VARIABLES
//  170  */
//  171 
//  172 // Offset into the page of the first available erased space.

        RSEG XDATA_Z:XDATA:NOROOT(0)
        DATA8
//  173 static uint16 pgOff[OSAL_NV_PAGES_USED];
pgOff:
        DS 12
        REQUIRE __INIT_XDATA_Z
        REQUIRE _nvIEEE
//  174 
//  175 // Count of the bytes lost for the zeroed-out items.

        RSEG XDATA_Z:XDATA:NOROOT(0)
        DATA8
//  176 static uint16 pgLost[OSAL_NV_PAGES_USED];
pgLost:
        DS 12
        REQUIRE __INIT_XDATA_Z
//  177 

        RSEG XDATA_Z:XDATA:NOROOT(0)
        DATA8
//  178 static uint8 pgRes;  // Page reserved for item compacting transfer.
pgRes:
        DS 1
        REQUIRE __INIT_XDATA_Z
//  179 
//  180 // Saving ~100 code bytes to move a uint8* parameter/return value from findItem() to a global.

        RSEG XDATA_Z:XDATA:NOROOT(0)
        DATA8
//  181 static uint8 findPg;
findPg:
        DS 1
        REQUIRE __INIT_XDATA_Z
//  182 
//  183 /* Immediately before the voltage critical operations of a page erase or
//  184  * a word write, check bus voltage. If less than min, set global flag & abort.
//  185  * Since this is to be done at the lowest level, many void functions would have to be changed to
//  186  * return a value and code added to check that value before proceeding, resulting in a very
//  187  * expensive code size hit for implementing this properly. Therefore, use this global as follows:
//  188  * at the start of osal_nv_item_init/osal_nv_write, set to FALSE, and at the end, before returning,
//  189  * check the value. Thus, the global is an accumulator of any error that occurred in any of the
//  190  * attempts to modify Flash with a low bus voltage during the complicated sequence of events that
//  191  * may occur on any item init or write. This is much more expedient and code saving than adding
//  192  * return values and checking return values to early out. No matter which method is used, an NV
//  193  * data record may end up mangled due to the low VCC conditions. The strategy is that the headers
//  194  * and checksums will detect and allow recovery from such a condition.
//  195  *
//  196  * One unfortunate side-effect of using the global fail flag vice adding and checking return
//  197  * values, is that when setting an item Id to zero has failed due to the low VCC check,
//  198  * the page lost-bytes counter is still updated. Having an artificially high lost-byte
//  199  * count makes it look like there are more bytes to recover from compacting a page than there may
//  200  * actually be. The easy work-around implemented is it to invoke initNV() from osal_nv_item_init or
//  201  * osal_nv_write anytime that the failF gets set - this will re-walk all of the pages and set the
//  202  * page offset count and page lost bytes count to their actual values.
//  203  */

        RSEG XDATA_Z:XDATA:NOROOT(0)
        DATA8
//  204 static uint8 failF;
failF:
        DS 1
        REQUIRE __INIT_XDATA_Z
//  205 
//  206 /*********************************************************************
//  207  * LOCAL FUNCTIONS
//  208  */
//  209 
//  210 static uint8  initNV( void );
//  211 
//  212 static void   setPageUse( uint8 pg, uint8 inUse );
//  213 static uint16 initPage( uint8 pg, uint16 id, uint8 findDups );
//  214 static void   erasePage( uint8 pg );
//  215 static void   compactPage( uint8 pg );
//  216 
//  217 static uint16 findItem( uint16 id );
//  218 static uint8  initItem( uint8 flag, uint16 id, uint16 len, void *buf );
//  219 static void   setItem( uint8 pg, uint16 offset, eNvHdrEnum stat );
//  220 
//  221 static uint16 calcChkB( uint16 len, uint8 *buf );
//  222 static uint16 calcChkF( byte pg, uint16 offset, uint16 len );
//  223 
//  224 static void   writeWord( uint8 pg, uint16 offset, uint8 *buf );
//  225 static void   writeWordH( uint8 pg, uint16 offset, uint8 *buf );
//  226 static void   writeWordM( uint8 pg, uint16 offset, uint8 *buf, uint16 cnt );
//  227 static void   writeBuf( uint8 pg, uint16 offset, uint16 len, uint8 *buf );
//  228 static void   xferBuf( uint8 srcPg, uint16 srcOff, uint8 dstPg, uint16 dstOff, uint16 len );
//  229 
//  230 static uint8  writeItem( uint8 pg, uint16 id, uint16 len, void *buf, uint8 flag );
//  231 
//  232 /*********************************************************************
//  233  * @fn      initNV
//  234  *
//  235  * @brief   Initialize the NV flash pages.
//  236  *
//  237  * @param   none
//  238  *
//  239  * @return  TRUE
//  240  */

        RSEG BANKED_CODE:CODE:NOROOT(0)
//  241 static uint8 initNV( void )
initNV:
        CFI Block cfiBlock0 Using cfiCommon0
        CFI Function initNV
        CODE
//  242 {
        FUNCALL initNV, initPage
        LOCFRAME ISTACK, 0, STACK
        LOCFRAME PSTACK, 0, STACK
        LOCFRAME XSTACK, 20, STACK
        LOCFRAME IOVERLAY, 0, STATIC
        LOCFRAME DOVERLAY, 0, STATIC
        ARGFRAME ISTACK, 0, STACK
        ARGFRAME PSTACK, 0, STACK
        ARGFRAME XSTACK, 20, STACK
        ARGFRAME IOVERLAY, 0, STATIC
        ARGFRAME DOVERLAY, 0, STATIC
        FUNCALL initNV, HalFlashRead
        LOCFRAME ISTACK, 0, STACK
        LOCFRAME PSTACK, 0, STACK
        LOCFRAME XSTACK, 22, STACK
        LOCFRAME IOVERLAY, 0, STATIC
        LOCFRAME DOVERLAY, 0, STATIC
        ARGFRAME ISTACK, 0, STACK
        ARGFRAME PSTACK, 0, STACK
        ARGFRAME XSTACK, 22, STACK
        ARGFRAME IOVERLAY, 0, STATIC
        ARGFRAME DOVERLAY, 0, STATIC
        FUNCALL initNV, setPageUse
        LOCFRAME ISTACK, 0, STACK
        LOCFRAME PSTACK, 0, STACK
        LOCFRAME XSTACK, 20, STACK
        LOCFRAME IOVERLAY, 0, STATIC
        LOCFRAME DOVERLAY, 0, STATIC
        ARGFRAME ISTACK, 0, STACK
        ARGFRAME PSTACK, 0, STACK
        ARGFRAME XSTACK, 20, STACK
        ARGFRAME IOVERLAY, 0, STATIC
        ARGFRAME DOVERLAY, 0, STATIC
        FUNCALL initNV, setPageUse
        LOCFRAME ISTACK, 0, STACK
        LOCFRAME PSTACK, 0, STACK
        LOCFRAME XSTACK, 20, STACK
        LOCFRAME IOVERLAY, 0, STATIC
        LOCFRAME DOVERLAY, 0, STATIC
        ARGFRAME ISTACK, 0, STACK
        ARGFRAME PSTACK, 0, STACK
        ARGFRAME XSTACK, 20, STACK
        ARGFRAME IOVERLAY, 0, STATIC
        ARGFRAME DOVERLAY, 0, STATIC
        FUNCALL initNV, compactPage
        LOCFRAME ISTACK, 0, STACK
        LOCFRAME PSTACK, 0, STACK
        LOCFRAME XSTACK, 20, STACK
        LOCFRAME IOVERLAY, 0, STATIC
        LOCFRAME DOVERLAY, 0, STATIC
        ARGFRAME ISTACK, 0, STACK
        ARGFRAME PSTACK, 0, STACK
        ARGFRAME XSTACK, 20, STACK
        ARGFRAME IOVERLAY, 0, STATIC
        ARGFRAME DOVERLAY, 0, STATIC
        FUNCALL initNV, erasePage
        LOCFRAME ISTACK, 0, STACK
        LOCFRAME PSTACK, 0, STACK
        LOCFRAME XSTACK, 20, STACK
        LOCFRAME IOVERLAY, 0, STATIC
        LOCFRAME DOVERLAY, 0, STATIC
        ARGFRAME ISTACK, 0, STACK
        ARGFRAME PSTACK, 0, STACK
        ARGFRAME XSTACK, 20, STACK
        ARGFRAME IOVERLAY, 0, STATIC
        ARGFRAME DOVERLAY, 0, STATIC
        FUNCALL initNV, initNV
        LOCFRAME ISTACK, 0, STACK
        LOCFRAME PSTACK, 0, STACK
        LOCFRAME XSTACK, 20, STACK
        LOCFRAME IOVERLAY, 0, STATIC
        LOCFRAME DOVERLAY, 0, STATIC
        ARGFRAME ISTACK, 0, STACK
        ARGFRAME PSTACK, 0, STACK
        ARGFRAME XSTACK, 20, STACK
        ARGFRAME IOVERLAY, 0, STATIC
        ARGFRAME DOVERLAY, 0, STATIC
        MOV     A,#-0xc
        LCALL   ?BANKED_ENTER_XDATA
        CFI DPH0 load(1, XDATA, add(CFA_XSP16, literal(-1)))
        CFI DPL0 load(1, XDATA, add(CFA_XSP16, literal(-2)))
        CFI ?BRET_EXT load(1, XDATA, add(CFA_XSP16, literal(-3)))
        CFI ?RET_HIGH load(1, XDATA, add(CFA_XSP16, literal(-4)))
        CFI ?RET_LOW load(1, XDATA, add(CFA_XSP16, literal(-5)))
        CFI R7 load(1, XDATA, add(CFA_XSP16, literal(-6)))
        CFI V3 load(1, XDATA, add(CFA_XSP16, literal(-7)))
        CFI V2 load(1, XDATA, add(CFA_XSP16, literal(-8)))
        CFI V1 load(1, XDATA, add(CFA_XSP16, literal(-9)))
        CFI V0 load(1, XDATA, add(CFA_XSP16, literal(-10)))
        CFI VB load(1, XDATA, add(CFA_XSP16, literal(-11)))
        CFI R6 load(1, XDATA, add(CFA_XSP16, literal(-12)))
        CFI CFA_SP SP+0
        CFI CFA_XSP16 add(XSP16, 12)
        ; Saved register size: 12
        ; Auto size: 8
        MOV     A,#-0x8
        LCALL   ?ALLOC_XSTACK8
        CFI CFA_XSP16 add(XSP16, 20)
//  243   osalNvPgHdr_t pgHdr;
//  244   uint8 oldPg = OSAL_NV_PAGE_NULL;
        MOV     ?V0 + 0,#0x0
//  245   uint8 newPg = OSAL_NV_PAGE_NULL;
        MOV     R7,#0x0
//  246   uint8 findDups = FALSE;
        MOV     ?V0 + 1,R7
//  247   uint8 pg;
//  248 
//  249   pgRes = OSAL_NV_PAGE_NULL;
        MOV     DPTR,#pgRes
        CLR     A
        MOVX    @DPTR,A
//  250 
//  251   for ( pg = OSAL_NV_PAGE_BEG; pg <= OSAL_NV_PAGE_END; pg++ )
        MOV     R6,#0x79
        SJMP    ??initNV_0
//  252   {
//  253     HalFlashRead(pg, OSAL_NV_PAGE_HDR_OFFSET, (uint8 *)(&pgHdr), OSAL_NV_HDR_SIZE);
//  254 
//  255     if ( pgHdr.active == OSAL_NV_ERASED_ID )
//  256     {
//  257       if ( pgRes == OSAL_NV_PAGE_NULL )
//  258       {
//  259         pgRes = pg;
//  260       }
//  261       else
//  262       {
//  263         setPageUse( pg, TRUE );
//  264       }
//  265     }
//  266     else  // Page is active.
//  267     {
//  268       // If the page is not yet in use, it is the tgt of items from an xfer.
//  269       if ( pgHdr.inUse == OSAL_NV_ERASED_ID )
//  270       {
//  271         newPg = pg;
//  272       }
//  273       // An Xfer from this page was in progress.
//  274       else if ( pgHdr.xfer != OSAL_NV_ERASED_ID )
??initNV_1:
        MOV     A,#0x4
        LCALL   ?XSTACK_DISP0_8
        MOVX    A,@DPTR
        CPL     A
        JNZ     ??initNV_2
        INC     DPTR
        MOVX    A,@DPTR
        CPL     A
??initNV_2:
        JZ      ??initNV_3
//  275       {
//  276         oldPg = pg;
        MOV     ?V0 + 0,R6
//  277       }
//  278     }
//  279 
//  280     // Calculate page offset and lost bytes - any "old" item triggers an N^2 re-scan from start.
//  281     if ( initPage( pg, OSAL_NV_ITEM_NULL, findDups ) != OSAL_NV_ITEM_NULL )
??initNV_3:
        ; Setup parameters for call to function initPage
        MOV     R4,?V0 + 1
        MOV     R2,#0x0
        MOV     R3,#0x0
        MOV     A,R6
        MOV     R1,A
        LCALL   ??initPage?relay
        MOV     ?V0 + 3,R3
        MOV     A,R2
        ORL     A,?V0 + 3
        JZ      ??initNV_4
//  282     {
//  283       findDups = TRUE;
        MOV     ?V0 + 1,#0x1
//  284       pg = OSAL_NV_PAGE_BEG-1;
        MOV     R6,#0x78
//  285       continue;
//  286     }
??initNV_4:
        INC     R6
??initNV_0:
        MOV     A,R6
        CLR     C
        SUBB    A,#0x7f
        JNC     ??initNV_5
        ; Setup parameters for call to function HalFlashRead
        MOV     ?V0 + 2,#0x8
        MOV     ?V0 + 3,#0x0
        MOV     R0,#?V0 + 2
        LCALL   ?PUSH_XSTACK_I_TWO
        CFI CFA_XSP16 add(XSP16, 22)
        MOV     A,#0x2
        LCALL   ?XSTACK_DISP0_8
        MOV     R4,DPL
        MOV     R5,DPH
        MOV     R2,#0x0
        MOV     R3,#0x0
        MOV     A,R6
        MOV     R1,A
        LCALL   ??HalFlashRead?relay
        MOV     A,#0x2
        LCALL   ?DEALLOC_XSTACK8
        CFI CFA_XSP16 add(XSP16, 20)
        MOV     DPL,?XSP + 0
        MOV     DPH,?XSP + 1
        MOVX    A,@DPTR
        CPL     A
        JNZ     ??initNV_6
        INC     DPTR
        MOVX    A,@DPTR
        CPL     A
??initNV_6:
        JNZ     ??initNV_7
        MOV     DPTR,#pgRes
        MOVX    A,@DPTR
        JNZ     ??initNV_8
        MOV     A,R6
        MOVX    @DPTR,A
        SJMP    ??initNV_3
??initNV_8:
        ; Setup parameters for call to function setPageUse
        MOV     R2,#0x1
        MOV     A,R6
        MOV     R1,A
        LCALL   ??setPageUse?relay
        SJMP    ??initNV_3
??initNV_7:
        MOV     A,#0x2
        LCALL   ?XSTACK_DISP0_8
        MOVX    A,@DPTR
        CPL     A
        JNZ     ??initNV_9
        INC     DPTR
        MOVX    A,@DPTR
        CPL     A
??initNV_9:
        JNZ     ??initNV_1
        MOV     A,R6
        MOV     R7,A
        SJMP    ??initNV_3
//  287   }  // for ( pg = OSAL_NV_PAGE_BEG; pg <= OSAL_NV_PAGE_END; pg++ )
//  288 
//  289   /* First the old page is erased, and then the new page is put into use.
//  290    * So if a transfer was in progress, the new page will always not yet be
//  291    * marked as in use, since that is the last step to ending a transfer.
//  292    */
//  293   if ( newPg != OSAL_NV_PAGE_NULL )
??initNV_5:
        MOV     A,R7
        JZ      ??initNV_10
//  294   {
//  295     /* If there is already a fallow page reserved, keep it and put the newPg in use.
//  296      * An unfinished compaction will finish to the new reserve page and the old page
//  297      * will be erased and reserved.
//  298      */
//  299     if ( pgRes != OSAL_NV_PAGE_NULL )
        MOV     DPTR,#pgRes
        MOVX    A,@DPTR
        JZ      ??initNV_11
//  300     {
//  301       setPageUse( newPg, TRUE );
        ; Setup parameters for call to function setPageUse
        MOV     R2,#0x1
        MOV     A,R7
        MOV     R1,A
        LCALL   ??setPageUse?relay
        SJMP    ??initNV_12
//  302     }
//  303     else if ( oldPg != OSAL_NV_PAGE_NULL )
??initNV_11:
        MOV     A,?V0 + 0
        JZ      ??initNV_12
//  304     {
//  305       pgRes = newPg;
        MOV     A,R7
        MOVX    @DPTR,A
//  306     }
//  307 
//  308     /* If a page compaction was interrupted and the page being compacted is not
//  309      * yet erased, then there may be items remaining to xfer before erasing.
//  310      */
//  311     if ( oldPg != OSAL_NV_PAGE_NULL )
??initNV_12:
        MOV     A,?V0 + 0
        JZ      ??initNV_10
//  312     {
//  313       compactPage( oldPg );
        ; Setup parameters for call to function compactPage
        MOV     R1,A
        LCALL   ??compactPage?relay
//  314     }
//  315   }
//  316 
//  317   /* If no page met the criteria to be the reserve page:
//  318    *  - A compactPage() failed or board reset before doing so.
//  319    *  - Perhaps the user changed which Flash pages are dedicated to NV and downloaded the code
//  320    *    without erasing Flash?
//  321    */
//  322   if ( pgRes == OSAL_NV_PAGE_NULL )
??initNV_10:
        MOV     DPTR,#pgRes
        MOVX    A,@DPTR
        JNZ     ??initNV_13
//  323   {
//  324     for ( pg = OSAL_NV_PAGE_BEG; pg <= OSAL_NV_PAGE_END; pg++ )
        MOV     R6,#0x79
        SJMP    ??initNV_14
//  325     {
//  326       erasePage( pg );
??initNV_15:
        ; Setup parameters for call to function erasePage
        MOV     A,R6
        MOV     R1,A
        LCALL   ??erasePage?relay
//  327     }
        INC     R6
??initNV_14:
        MOV     A,R6
        CLR     C
        SUBB    A,#0x7f
        JC      ??initNV_15
//  328     initNV();
        ; Setup parameters for call to function initNV
        LCALL   ??initNV?relay
//  329   }
//  330 
//  331   return TRUE;
??initNV_13:
        MOV     R1,#0x1
        MOV     A,#0x8
        LCALL   ?DEALLOC_XSTACK8
        CFI CFA_XSP16 add(XSP16, 12)
        MOV     R7,#0x4
        LJMP    ?BANKED_LEAVE_XDATA
        CFI EndBlock cfiBlock0
//  332 }
//  333 
//  334 /*********************************************************************
//  335  * @fn      setPageUse
//  336  *
//  337  * @brief   Set page header active/inUse state according to 'inUse'.
//  338  *
//  339  * @param   pg - Valid NV page to verify and init.
//  340  * @param   inUse - Boolean TRUE if inUse, FALSE if only active.
//  341  *
//  342  * @return  none
//  343  */

        RSEG BANKED_CODE:CODE:NOROOT(0)
//  344 static void setPageUse( uint8 pg, uint8 inUse )
setPageUse:
        CFI Block cfiBlock1 Using cfiCommon0
        CFI Function setPageUse
        CODE
//  345 {
        FUNCALL setPageUse, writeWord
        LOCFRAME ISTACK, 0, STACK
        LOCFRAME PSTACK, 0, STACK
        LOCFRAME XSTACK, 17, STACK
        LOCFRAME IOVERLAY, 0, STATIC
        LOCFRAME DOVERLAY, 0, STATIC
        ARGFRAME ISTACK, 0, STACK
        ARGFRAME PSTACK, 0, STACK
        ARGFRAME XSTACK, 17, STACK
        ARGFRAME IOVERLAY, 0, STATIC
        ARGFRAME DOVERLAY, 0, STATIC
        MOV     A,#-0x9
        LCALL   ?BANKED_ENTER_XDATA
        CFI DPH0 load(1, XDATA, add(CFA_XSP16, literal(-1)))
        CFI DPL0 load(1, XDATA, add(CFA_XSP16, literal(-2)))
        CFI ?BRET_EXT load(1, XDATA, add(CFA_XSP16, literal(-3)))
        CFI ?RET_HIGH load(1, XDATA, add(CFA_XSP16, literal(-4)))
        CFI ?RET_LOW load(1, XDATA, add(CFA_XSP16, literal(-5)))
        CFI R7 load(1, XDATA, add(CFA_XSP16, literal(-6)))
        CFI V0 load(1, XDATA, add(CFA_XSP16, literal(-7)))
        CFI VB load(1, XDATA, add(CFA_XSP16, literal(-8)))
        CFI R6 load(1, XDATA, add(CFA_XSP16, literal(-9)))
        CFI CFA_SP SP+0
        CFI CFA_XSP16 add(XSP16, 9)
        ; Saved register size: 9
        ; Auto size: 8
        MOV     A,#-0x8
        LCALL   ?ALLOC_XSTACK8
        CFI CFA_XSP16 add(XSP16, 17)
        MOV     A,R2
        MOV     R7,A
//  346   osalNvPgHdr_t pgHdr;
//  347 
//  348   pgHdr.active = OSAL_NV_ZEROED_ID;
        MOV     DPL,?XSP + 0
        MOV     DPH,?XSP + 1
        CLR     A
        MOVX    @DPTR,A
        INC     DPTR
        MOVX    @DPTR,A
//  349 
//  350   if ( inUse )
        MOV     A,R7
        JZ      ??setPageUse_0
//  351   {
//  352     pgHdr.inUse = OSAL_NV_ZEROED_ID;
        MOV     A,#0x2
        LCALL   ?XSTACK_DISP0_8
        CLR     A
        SJMP    ??setPageUse_1
//  353   }
//  354   else
//  355   {
//  356     pgHdr.inUse = OSAL_NV_ERASED_ID;
??setPageUse_0:
        MOV     A,#0x2
        LCALL   ?XSTACK_DISP0_8
        MOV     A,#-0x1
??setPageUse_1:
        MOVX    @DPTR,A
        INC     DPTR
        MOVX    @DPTR,A
//  357   }
//  358 
//  359   writeWord( pg, OSAL_NV_PAGE_HDR_OFFSET, (uint8*)(&pgHdr) );
        ; Setup parameters for call to function writeWord
        MOV     DPL,?XSP + 0
        MOV     DPH,?XSP + 1
        MOV     R4,DPL
        MOV     R5,DPH
        MOV     R2,#0x0
        MOV     R3,#0x0
        LCALL   ??writeWord?relay
//  360 }
        MOV     A,#0x8
        LCALL   ?DEALLOC_XSTACK8
        CFI CFA_XSP16 add(XSP16, 9)
        MOV     R7,#0x1
        LJMP    ?BANKED_LEAVE_XDATA
        CFI EndBlock cfiBlock1
//  361 
//  362 /*********************************************************************
//  363  * @fn      initPage
//  364  *
//  365  * @brief   Walk the page items; calculate checksums, lost bytes & page offset.
//  366  *
//  367  * @param   pg - Valid NV page to verify and init.
//  368  * @param   id - Valid NV item Id to use function as a "findItem".
//  369  *               If set to NULL then just perform the page initialization.
//  370  *
//  371  * @return  If 'id' is non-NULL and good checksums are found, return the offset
//  372  *          of the data corresponding to item Id; else OSAL_NV_ITEM_NULL.
//  373  */

        RSEG BANKED_CODE:CODE:NOROOT(0)
//  374 static uint16 initPage( uint8 pg, uint16 id, uint8 findDups )
initPage:
        CFI Block cfiBlock2 Using cfiCommon0
        CFI Function initPage
        CODE
//  375 {
        FUNCALL initPage, HalFlashRead
        LOCFRAME ISTACK, 0, STACK
        LOCFRAME PSTACK, 0, STACK
        LOCFRAME XSTACK, 28, STACK
        LOCFRAME IOVERLAY, 0, STATIC
        LOCFRAME DOVERLAY, 0, STATIC
        ARGFRAME ISTACK, 0, STACK
        ARGFRAME PSTACK, 0, STACK
        ARGFRAME XSTACK, 28, STACK
        ARGFRAME IOVERLAY, 0, STATIC
        ARGFRAME DOVERLAY, 0, STATIC
        FUNCALL initPage, calcChkF
        LOCFRAME ISTACK, 0, STACK
        LOCFRAME PSTACK, 0, STACK
        LOCFRAME XSTACK, 26, STACK
        LOCFRAME IOVERLAY, 0, STATIC
        LOCFRAME DOVERLAY, 0, STATIC
        ARGFRAME ISTACK, 0, STACK
        ARGFRAME PSTACK, 0, STACK
        ARGFRAME XSTACK, 26, STACK
        ARGFRAME IOVERLAY, 0, STATIC
        ARGFRAME DOVERLAY, 0, STATIC
        FUNCALL initPage, findItem
        LOCFRAME ISTACK, 0, STACK
        LOCFRAME PSTACK, 0, STACK
        LOCFRAME XSTACK, 26, STACK
        LOCFRAME IOVERLAY, 0, STATIC
        LOCFRAME DOVERLAY, 0, STATIC
        ARGFRAME ISTACK, 0, STACK
        ARGFRAME PSTACK, 0, STACK
        ARGFRAME XSTACK, 26, STACK
        ARGFRAME IOVERLAY, 0, STATIC
        ARGFRAME DOVERLAY, 0, STATIC
        FUNCALL initPage, setItem
        LOCFRAME ISTACK, 0, STACK
        LOCFRAME PSTACK, 0, STACK
        LOCFRAME XSTACK, 26, STACK
        LOCFRAME IOVERLAY, 0, STATIC
        LOCFRAME DOVERLAY, 0, STATIC
        ARGFRAME ISTACK, 0, STACK
        ARGFRAME PSTACK, 0, STACK
        ARGFRAME XSTACK, 26, STACK
        ARGFRAME IOVERLAY, 0, STATIC
        ARGFRAME DOVERLAY, 0, STATIC
        FUNCALL initPage, setItem
        LOCFRAME ISTACK, 0, STACK
        LOCFRAME PSTACK, 0, STACK
        LOCFRAME XSTACK, 26, STACK
        LOCFRAME IOVERLAY, 0, STATIC
        LOCFRAME DOVERLAY, 0, STATIC
        ARGFRAME ISTACK, 0, STACK
        ARGFRAME PSTACK, 0, STACK
        ARGFRAME XSTACK, 26, STACK
        ARGFRAME IOVERLAY, 0, STATIC
        ARGFRAME DOVERLAY, 0, STATIC
        MOV     A,#-0x12
        LCALL   ?BANKED_ENTER_XDATA
        CFI DPH0 load(1, XDATA, add(CFA_XSP16, literal(-1)))
        CFI DPL0 load(1, XDATA, add(CFA_XSP16, literal(-2)))
        CFI ?BRET_EXT load(1, XDATA, add(CFA_XSP16, literal(-3)))
        CFI ?RET_HIGH load(1, XDATA, add(CFA_XSP16, literal(-4)))
        CFI ?RET_LOW load(1, XDATA, add(CFA_XSP16, literal(-5)))
        CFI R7 load(1, XDATA, add(CFA_XSP16, literal(-6)))
        CFI V9 load(1, XDATA, add(CFA_XSP16, literal(-7)))
        CFI V8 load(1, XDATA, add(CFA_XSP16, literal(-8)))
        CFI V7 load(1, XDATA, add(CFA_XSP16, literal(-9)))
        CFI V6 load(1, XDATA, add(CFA_XSP16, literal(-10)))
        CFI V5 load(1, XDATA, add(CFA_XSP16, literal(-11)))
        CFI V4 load(1, XDATA, add(CFA_XSP16, literal(-12)))
        CFI V3 load(1, XDATA, add(CFA_XSP16, literal(-13)))
        CFI V2 load(1, XDATA, add(CFA_XSP16, literal(-14)))
        CFI V1 load(1, XDATA, add(CFA_XSP16, literal(-15)))
        CFI V0 load(1, XDATA, add(CFA_XSP16, literal(-16)))
        CFI VB load(1, XDATA, add(CFA_XSP16, literal(-17)))
        CFI R6 load(1, XDATA, add(CFA_XSP16, literal(-18)))
        CFI CFA_SP SP+0
        CFI CFA_XSP16 add(XSP16, 18)
        ; Saved register size: 18
        ; Auto size: 8
        MOV     A,#-0x8
        LCALL   ?ALLOC_XSTACK8
        CFI CFA_XSP16 add(XSP16, 26)
        MOV     ?V0 + 4,R1
        MOV     ?V0 + 6,R2
        MOV     ?V0 + 7,R3
        MOV     ?V0 + 5,R4
//  376   uint16 offset = OSAL_NV_PAGE_HDR_SIZE;
        MOV     ?V0 + 2,#0x8
        MOV     ?V0 + 3,#0x0
//  377   uint16 sz, lost = 0;
        MOV     R6,#0x0
        MOV     R7,#0x0
        SJMP    ??initPage_0
//  378   osalNvHdr_t hdr;
//  379 
//  380   do
//  381   {
//  382     HalFlashRead(pg, offset, (uint8 *)(&hdr), OSAL_NV_HDR_SIZE);
//  383 
//  384     if ( hdr.id == OSAL_NV_ERASED_ID )
//  385     {
//  386       break;
//  387     }
//  388     offset += OSAL_NV_HDR_SIZE;
//  389     sz = OSAL_NV_DATA_SIZE( hdr.len );
//  390 
//  391     // A bad 'len' write has blown away the rest of the page.
//  392     if ( (offset + sz) > OSAL_NV_PAGE_FREE )
//  393     {
//  394       lost += (OSAL_NV_PAGE_FREE - offset + OSAL_NV_HDR_SIZE);
//  395       offset = OSAL_NV_PAGE_FREE;
//  396       break;
//  397     }
//  398 
//  399     if ( hdr.id != OSAL_NV_ZEROED_ID )
//  400     {
//  401       /* This trick allows function to do double duty for findItem() without
//  402        * compromising its essential functionality at powerup initialization.
//  403        */
//  404       if ( id != OSAL_NV_ITEM_NULL )
//  405       {
//  406         /* This trick allows asking to find the old/transferred item in case
//  407          * of a successful new item write that gets interrupted before the
//  408          * old item can be zeroed out.
//  409          */
//  410         if ( (id & 0x7fff) == hdr.id )
//  411         {
//  412           if ( (((id & OSAL_NV_SOURCE_ID) == 0) && (hdr.stat == OSAL_NV_ERASED_ID)) ||
//  413                (((id & OSAL_NV_SOURCE_ID) != 0) && (hdr.stat != OSAL_NV_ERASED_ID)) )
//  414           {
//  415             return offset;
//  416           }
//  417         }
//  418       }
//  419       // When invoked from the osal_nv_init(), verify checksums and find & zero any duplicates.
//  420       else
//  421       {
//  422         if ( hdr.chk == calcChkF( pg, offset, hdr.len ) )
//  423         {
//  424           if ( findDups )
//  425           {
//  426             if ( hdr.stat == OSAL_NV_ERASED_ID )
//  427             {
//  428               /* The trick of setting the MSB of the item Id causes the logic
//  429                * immediately above to return a valid page only if the header 'stat'
//  430                * indicates that it was the older item being transferred.
//  431                */
//  432               uint16 off = findItem( (hdr.id | OSAL_NV_SOURCE_ID) );
//  433 
//  434               if ( off != OSAL_NV_ITEM_NULL )
//  435               {
//  436                 setItem( findPg, off, eNvZero );  // Mark old duplicate as invalid.
//  437               }
//  438             }
//  439           }
//  440           // Any "old" item immediately exits and triggers the N^2 exhaustive initialization.
//  441           else if ( hdr.stat != OSAL_NV_ERASED_ID )
//  442           {
//  443             return OSAL_NV_ERASED_ID;
//  444           }
//  445         }
//  446         else
//  447         {
//  448           setItem( pg, offset, eNvZero );  // Mark bad checksum as invalid.
//  449           lost += (OSAL_NV_HDR_SIZE + sz);
//  450         }
//  451       }
//  452     }
//  453     else
//  454     {
//  455       lost += (OSAL_NV_HDR_SIZE + sz);
??initPage_1:
        MOV     A,?V0 + 0
        ADD     A,#0x8
        MOV     R0,A
        MOV     A,?V0 + 1
        ADDC    A,#0x0
        MOV     R1,A
        MOV     A,R6
        ADD     A,R0
        MOV     R6,A
        MOV     A,R7
        ADDC    A,R1
        MOV     R7,A
//  456     }
//  457     offset += sz;
??initPage_2:
        MOV     A,?V0 + 2
        ADD     A,?V0 + 0
        MOV     ?V0 + 2,A
        MOV     A,?V0 + 3
        ADDC    A,?V0 + 1
        MOV     ?V0 + 3,A
//  458 
//  459   } while ( TRUE );
??initPage_0:
        ; Setup parameters for call to function HalFlashRead
        MOV     ?V0 + 0,#0x8
        MOV     ?V0 + 1,#0x0
        MOV     R0,#?V0 + 0
        LCALL   ?PUSH_XSTACK_I_TWO
        CFI CFA_XSP16 add(XSP16, 28)
        MOV     A,#0x2
        LCALL   ?XSTACK_DISP0_8
        MOV     R4,DPL
        MOV     R5,DPH
        MOV     R2,?V0 + 2
        MOV     R3,?V0 + 3
        MOV     R1,?V0 + 4
        LCALL   ??HalFlashRead?relay
        MOV     A,#0x2
        LCALL   ?DEALLOC_XSTACK8
        CFI CFA_XSP16 add(XSP16, 26)
        MOV     DPL,?XSP + 0
        MOV     DPH,?XSP + 1
        MOVX    A,@DPTR
        CPL     A
        JNZ     ??initPage_3
        INC     DPTR
        MOVX    A,@DPTR
        CPL     A
??initPage_3:
        JZ      ??initPage_4
        MOV     A,?V0 + 2
        ADD     A,#0x8
        MOV     ?V0 + 2,A
        MOV     A,?V0 + 3
        ADDC    A,#0x0
        MOV     ?V0 + 3,A
        MOV     A,#0x2
        LCALL   ?XSTACK_DISP0_8
        MOVX    A,@DPTR
        MOV     R4,A
        INC     DPTR
        MOVX    A,@DPTR
        MOV     R5,A
        MOV     A,R4
        ADD     A,#0x3
        MOV     R0,A
        MOV     A,R5
        ADDC    A,#0x0
        MOV     R1,A
        MOV     A,R0
        ANL     A,#0xfc
        MOV     ?V0 + 0,A
        MOV     A,R1
        MOV     ?V0 + 1,A
        MOV     A,?V0 + 2
        ADD     A,?V0 + 0
        MOV     R0,A
        MOV     A,?V0 + 3
        ADDC    A,?V0 + 1
        MOV     R1,A
        CLR     C
        MOV     A,R0
        SUBB    A,#0x1
        MOV     A,R1
        SUBB    A,#0x8
        JC      ??initPage_5
        MOV     A,R6
        ADD     A,#0x8
        MOV     R0,A
        MOV     A,R7
        ADDC    A,#0x8
        MOV     R1,A
        MOV     A,R0
        CLR     C
        SUBB    A,?V0 + 2
        MOV     R6,A
        MOV     A,R1
        SUBB    A,?V0 + 3
        MOV     R7,A
        MOV     ?V0 + 2,#0x0
        MOV     ?V0 + 3,#0x8
//  460 
//  461   pgOff[pg - OSAL_NV_PAGE_BEG] = offset;
??initPage_4:
        MOV     A,?V0 + 4
        CLR     C
        RLC     A
        MOV     R0,A
        CLR     A
        RLC     A
        MOV     R1,A
        MOV     A,#(pgOff + 14) & 0xff
        ADD     A,R0
        MOV     DPL,A
        MOV     A,#((pgOff - 242) >> 8) & 0xff
        ADDC    A,R1
        MOV     DPH,A
        MOV     A,?V0 + 2
        MOVX    @DPTR,A
        INC     DPTR
        MOV     A,?V0 + 3
        MOVX    @DPTR,A
//  462   pgLost[pg - OSAL_NV_PAGE_BEG] = lost;
        MOV     A,#(pgLost + 14) & 0xff
        ADD     A,R0
        MOV     DPL,A
        MOV     A,#((pgLost - 242) >> 8) & 0xff
        ADDC    A,R1
        MOV     DPH,A
        MOV     A,R6
        MOVX    @DPTR,A
        INC     DPTR
        MOV     A,R7
        MOVX    @DPTR,A
//  463 
//  464   return OSAL_NV_ITEM_NULL;
        MOV     R2,#0x0
        MOV     R3,#0x0
??initPage_6:
        MOV     A,#0x8
        LCALL   ?DEALLOC_XSTACK8
        CFI CFA_XSP16 add(XSP16, 18)
        MOV     R7,#0xa
        LJMP    ?BANKED_LEAVE_XDATA
        CFI CFA_XSP16 add(XSP16, 26)
??initPage_5:
        MOV     DPL,?XSP + 0
        MOV     DPH,?XSP + 1
        MOVX    A,@DPTR
        MOV     R0,A
        INC     DPTR
        MOVX    A,@DPTR
        MOV     R1,A
        MOV     A,R0
        ORL     A,R1
        JNZ     $+5
        LJMP    ??initPage_1 & 0xFFFF
        MOV     A,?V0 + 6
        ORL     A,?V0 + 7
        JZ      ??initPage_7
        MOV     R0,?V0 + 6
        MOV     A,?V0 + 7
        ANL     A,#0x7f
        MOV     R1,A
        MOV     DPL,?XSP + 0
        MOV     DPH,?XSP + 1
        MOVX    A,@DPTR
        XRL     A,R0
        JNZ     ??initPage_8
        INC     DPTR
        MOVX    A,@DPTR
        XRL     A,R1
??initPage_8:
        JZ      $+5
        LJMP    ??initPage_2 & 0xFFFF
        MOV     A,?V0 + 7
        ANL     A,#0x80
        MOV     R1,A
        JNZ     ??initPage_9
        MOV     A,#0x6
        LCALL   ?XSTACK_DISP0_8
        MOVX    A,@DPTR
        CPL     A
        JNZ     ??initPage_10
        INC     DPTR
        MOVX    A,@DPTR
        CPL     A
??initPage_10:
        JZ      ??initPage_11
??initPage_9:
        MOV     A,R1
        JNZ     $+5
        LJMP    ??initPage_2 & 0xFFFF
        MOV     A,#0x6
        LCALL   ?XSTACK_DISP0_8
        MOVX    A,@DPTR
        CPL     A
        JNZ     ??initPage_12
        INC     DPTR
        MOVX    A,@DPTR
        CPL     A
??initPage_12:
        JNZ     $+5
        LJMP    ??initPage_2 & 0xFFFF
??initPage_11:
        MOV     R2,?V0 + 2
        MOV     R3,?V0 + 3
        SJMP    ??initPage_6
??initPage_7:
        ; Setup parameters for call to function calcChkF
        MOV     R2,?V0 + 2
        MOV     R3,?V0 + 3
        MOV     R1,?V0 + 4
        LCALL   ??calcChkF?relay
        MOV     ?V0 + 8,R2
        MOV     ?V0 + 9,R3
        MOV     R0,?V0 + 8
        MOV     R1,?V0 + 9
        MOV     A,#0x4
        LCALL   ?XSTACK_DISP0_8
        MOVX    A,@DPTR
        XRL     A,R0
        JNZ     ??initPage_13
        INC     DPTR
        MOVX    A,@DPTR
        XRL     A,R1
??initPage_13:
        JNZ     ??initPage_14
        MOV     A,#0x6
        LCALL   ?XSTACK_DISP0_8
        MOVX    A,@DPTR
        MOV     R0,A
        INC     DPTR
        MOVX    A,@DPTR
        MOV     R1,A
        MOV     A,?V0 + 5
        JZ      ??initPage_15
        MOV     A,#-0x1
        XRL     A,R0
        JNZ     ??initPage_16
        MOV     A,#-0x1
        XRL     A,R1
??initPage_16:
        JZ      $+5
        LJMP    ??initPage_2 & 0xFFFF
        ; Setup parameters for call to function findItem
        MOV     DPL,?XSP + 0
        MOV     DPH,?XSP + 1
        MOVX    A,@DPTR
        MOV     R2,A
        INC     DPTR
        MOVX    A,@DPTR
        ORL     A,#0x80
        MOV     R3,A
        LCALL   ??findItem?relay
        MOV     A,R2
        ORL     A,R3
        JNZ     $+5
        LJMP    ??initPage_2 & 0xFFFF
        ; Setup parameters for call to function setItem
        MOV     R4,#0x1
        MOV     DPTR,#findPg
        MOVX    A,@DPTR
        MOV     R1,A
        LCALL   ??setItem?relay
        LJMP    ??initPage_2 & 0xFFFF
??initPage_15:
        MOV     A,#-0x1
        XRL     A,R0
        JNZ     ??initPage_17
        MOV     A,#-0x1
        XRL     A,R1
??initPage_17:
        JNZ     $+5
        LJMP    ??initPage_2 & 0xFFFF
        MOV     R2,#-0x1
        MOV     R3,#-0x1
        LJMP    ??initPage_6 & 0xFFFF
??initPage_14:
        ; Setup parameters for call to function setItem
        MOV     R4,#0x1
        MOV     R2,?V0 + 2
        MOV     R3,?V0 + 3
        MOV     R1,?V0 + 4
        LCALL   ??setItem?relay
        LJMP    ??initPage_1 & 0xFFFF
        CFI EndBlock cfiBlock2
//  465 }
//  466 
//  467 /*********************************************************************
//  468  * @fn      erasePage
//  469  *
//  470  * @brief   Erases a page in Flash.
//  471  *
//  472  * @param   pg - Valid NV page to erase.
//  473  *
//  474  * @return  none
//  475  */

        RSEG BANKED_CODE:CODE:NOROOT(0)
//  476 static void erasePage( uint8 pg )
erasePage:
        CFI Block cfiBlock3 Using cfiCommon0
        CFI Function erasePage
        CODE
//  477 {
        FUNCALL erasePage, HalAdcCheckVdd
        LOCFRAME ISTACK, 0, STACK
        LOCFRAME PSTACK, 0, STACK
        LOCFRAME XSTACK, 9, STACK
        LOCFRAME IOVERLAY, 0, STATIC
        LOCFRAME DOVERLAY, 0, STATIC
        ARGFRAME ISTACK, 0, STACK
        ARGFRAME PSTACK, 0, STACK
        ARGFRAME XSTACK, 9, STACK
        ARGFRAME IOVERLAY, 0, STATIC
        ARGFRAME DOVERLAY, 0, STATIC
        FUNCALL erasePage, HalFlashErase
        LOCFRAME ISTACK, 0, STACK
        LOCFRAME PSTACK, 0, STACK
        LOCFRAME XSTACK, 9, STACK
        LOCFRAME IOVERLAY, 0, STATIC
        LOCFRAME DOVERLAY, 0, STATIC
        ARGFRAME ISTACK, 0, STACK
        ARGFRAME PSTACK, 0, STACK
        ARGFRAME XSTACK, 9, STACK
        ARGFRAME IOVERLAY, 0, STATIC
        ARGFRAME DOVERLAY, 0, STATIC
        MOV     A,#-0x9
        LCALL   ?BANKED_ENTER_XDATA
        CFI DPH0 load(1, XDATA, add(CFA_XSP16, literal(-1)))
        CFI DPL0 load(1, XDATA, add(CFA_XSP16, literal(-2)))
        CFI ?BRET_EXT load(1, XDATA, add(CFA_XSP16, literal(-3)))
        CFI ?RET_HIGH load(1, XDATA, add(CFA_XSP16, literal(-4)))
        CFI ?RET_LOW load(1, XDATA, add(CFA_XSP16, literal(-5)))
        CFI R7 load(1, XDATA, add(CFA_XSP16, literal(-6)))
        CFI V0 load(1, XDATA, add(CFA_XSP16, literal(-7)))
        CFI VB load(1, XDATA, add(CFA_XSP16, literal(-8)))
        CFI R6 load(1, XDATA, add(CFA_XSP16, literal(-9)))
        CFI CFA_SP SP+0
        CFI CFA_XSP16 add(XSP16, 9)
        ; Saved register size: 9
        ; Auto size: 0
        MOV     A,R1
        MOV     R6,A
//  478   if ( !OSAL_NV_CHECK_BUS_VOLTAGE )
        ; Setup parameters for call to function HalAdcCheckVdd
        MOV     R1,#0x4
        LCALL   ??HalAdcCheckVdd?relay
        MOV     A,R1
        JNZ     ??erasePage_0
//  479   {
//  480     failF = TRUE;
        MOV     DPTR,#failF
        MOV     A,#0x1
        SJMP    ??erasePage_1
//  481     return;
//  482   }
//  483 
//  484   HalFlashErase(pg);
??erasePage_0:
        ; Setup parameters for call to function HalFlashErase
        MOV     A,R6
        MOV     R1,A
        LCALL   ??HalFlashErase?relay
//  485 
//  486   pgOff[pg - OSAL_NV_PAGE_BEG] = OSAL_NV_PAGE_HDR_SIZE;
        MOV     A,R6
        CLR     C
        RLC     A
        MOV     R0,A
        CLR     A
        RLC     A
        MOV     R1,A
        MOV     A,#(pgOff + 14) & 0xff
        ADD     A,R0
        MOV     DPL,A
        MOV     A,#((pgOff - 242) >> 8) & 0xff
        ADDC    A,R1
        MOV     DPH,A
        MOV     A,#0x8
        MOVX    @DPTR,A
        INC     DPTR
        CLR     A
        MOVX    @DPTR,A
//  487   pgLost[pg - OSAL_NV_PAGE_BEG] = 0;
        MOV     A,#(pgLost + 14) & 0xff
        ADD     A,R0
        MOV     DPL,A
        MOV     A,#((pgLost - 242) >> 8) & 0xff
        ADDC    A,R1
        MOV     DPH,A
        CLR     A
        MOVX    @DPTR,A
        INC     DPTR
??erasePage_1:
        MOVX    @DPTR,A
//  488 }
        MOV     R7,#0x1
        LJMP    ?BANKED_LEAVE_XDATA
        CFI EndBlock cfiBlock3
//  489 
//  490 /*********************************************************************
//  491  * @fn      compactPage
//  492  *
//  493  * @brief   Compacts the page specified.
//  494  *
//  495  * @param   srcPg - Valid NV page to erase.
//  496  *
//  497  * @return  none
//  498  */

        RSEG BANKED_CODE:CODE:NOROOT(0)
//  499 static void compactPage( uint8 srcPg )
compactPage:
        CFI Block cfiBlock4 Using cfiCommon0
        CFI Function compactPage
        CODE
//  500 {
        FUNCALL compactPage, writeWordH
        LOCFRAME ISTACK, 0, STACK
        LOCFRAME PSTACK, 0, STACK
        LOCFRAME XSTACK, 24, STACK
        LOCFRAME IOVERLAY, 0, STATIC
        LOCFRAME DOVERLAY, 0, STATIC
        ARGFRAME ISTACK, 0, STACK
        ARGFRAME PSTACK, 0, STACK
        ARGFRAME XSTACK, 24, STACK
        ARGFRAME IOVERLAY, 0, STATIC
        ARGFRAME DOVERLAY, 0, STATIC
        FUNCALL compactPage, calcChkF
        LOCFRAME ISTACK, 0, STACK
        LOCFRAME PSTACK, 0, STACK
        LOCFRAME XSTACK, 24, STACK
        LOCFRAME IOVERLAY, 0, STATIC
        LOCFRAME DOVERLAY, 0, STATIC
        ARGFRAME ISTACK, 0, STACK
        ARGFRAME PSTACK, 0, STACK
        ARGFRAME XSTACK, 24, STACK
        ARGFRAME IOVERLAY, 0, STATIC
        ARGFRAME DOVERLAY, 0, STATIC
        FUNCALL compactPage, setItem
        LOCFRAME ISTACK, 0, STACK
        LOCFRAME PSTACK, 0, STACK
        LOCFRAME XSTACK, 24, STACK
        LOCFRAME IOVERLAY, 0, STATIC
        LOCFRAME DOVERLAY, 0, STATIC
        ARGFRAME ISTACK, 0, STACK
        ARGFRAME PSTACK, 0, STACK
        ARGFRAME XSTACK, 24, STACK
        ARGFRAME IOVERLAY, 0, STATIC
        ARGFRAME DOVERLAY, 0, STATIC
        FUNCALL compactPage, writeBuf
        LOCFRAME ISTACK, 0, STACK
        LOCFRAME PSTACK, 0, STACK
        LOCFRAME XSTACK, 26, STACK
        LOCFRAME IOVERLAY, 0, STATIC
        LOCFRAME DOVERLAY, 0, STATIC
        ARGFRAME ISTACK, 0, STACK
        ARGFRAME PSTACK, 0, STACK
        ARGFRAME XSTACK, 26, STACK
        ARGFRAME IOVERLAY, 0, STATIC
        ARGFRAME DOVERLAY, 0, STATIC
        FUNCALL compactPage, xferBuf
        LOCFRAME ISTACK, 0, STACK
        LOCFRAME PSTACK, 0, STACK
        LOCFRAME XSTACK, 28, STACK
        LOCFRAME IOVERLAY, 0, STATIC
        LOCFRAME DOVERLAY, 0, STATIC
        ARGFRAME ISTACK, 0, STACK
        ARGFRAME PSTACK, 0, STACK
        ARGFRAME XSTACK, 28, STACK
        ARGFRAME IOVERLAY, 0, STATIC
        ARGFRAME DOVERLAY, 0, STATIC
        FUNCALL compactPage, setItem
        LOCFRAME ISTACK, 0, STACK
        LOCFRAME PSTACK, 0, STACK
        LOCFRAME XSTACK, 24, STACK
        LOCFRAME IOVERLAY, 0, STATIC
        LOCFRAME DOVERLAY, 0, STATIC
        ARGFRAME ISTACK, 0, STACK
        ARGFRAME PSTACK, 0, STACK
        ARGFRAME XSTACK, 24, STACK
        ARGFRAME IOVERLAY, 0, STATIC
        ARGFRAME DOVERLAY, 0, STATIC
        FUNCALL compactPage, HalFlashRead
        LOCFRAME ISTACK, 0, STACK
        LOCFRAME PSTACK, 0, STACK
        LOCFRAME XSTACK, 26, STACK
        LOCFRAME IOVERLAY, 0, STATIC
        LOCFRAME DOVERLAY, 0, STATIC
        ARGFRAME ISTACK, 0, STACK
        ARGFRAME PSTACK, 0, STACK
        ARGFRAME XSTACK, 26, STACK
        ARGFRAME IOVERLAY, 0, STATIC
        ARGFRAME DOVERLAY, 0, STATIC
        FUNCALL compactPage, erasePage
        LOCFRAME ISTACK, 0, STACK
        LOCFRAME PSTACK, 0, STACK
        LOCFRAME XSTACK, 24, STACK
        LOCFRAME IOVERLAY, 0, STATIC
        LOCFRAME DOVERLAY, 0, STATIC
        ARGFRAME ISTACK, 0, STACK
        ARGFRAME PSTACK, 0, STACK
        ARGFRAME XSTACK, 24, STACK
        ARGFRAME IOVERLAY, 0, STATIC
        ARGFRAME DOVERLAY, 0, STATIC
        FUNCALL compactPage, setPageUse
        LOCFRAME ISTACK, 0, STACK
        LOCFRAME PSTACK, 0, STACK
        LOCFRAME XSTACK, 24, STACK
        LOCFRAME IOVERLAY, 0, STATIC
        LOCFRAME DOVERLAY, 0, STATIC
        ARGFRAME ISTACK, 0, STACK
        ARGFRAME PSTACK, 0, STACK
        ARGFRAME XSTACK, 24, STACK
        ARGFRAME IOVERLAY, 0, STATIC
        ARGFRAME DOVERLAY, 0, STATIC
        MOV     A,#-0xe
        LCALL   ?BANKED_ENTER_XDATA
        CFI DPH0 load(1, XDATA, add(CFA_XSP16, literal(-1)))
        CFI DPL0 load(1, XDATA, add(CFA_XSP16, literal(-2)))
        CFI ?BRET_EXT load(1, XDATA, add(CFA_XSP16, literal(-3)))
        CFI ?RET_HIGH load(1, XDATA, add(CFA_XSP16, literal(-4)))
        CFI ?RET_LOW load(1, XDATA, add(CFA_XSP16, literal(-5)))
        CFI R7 load(1, XDATA, add(CFA_XSP16, literal(-6)))
        CFI V5 load(1, XDATA, add(CFA_XSP16, literal(-7)))
        CFI V4 load(1, XDATA, add(CFA_XSP16, literal(-8)))
        CFI V3 load(1, XDATA, add(CFA_XSP16, literal(-9)))
        CFI V2 load(1, XDATA, add(CFA_XSP16, literal(-10)))
        CFI V1 load(1, XDATA, add(CFA_XSP16, literal(-11)))
        CFI V0 load(1, XDATA, add(CFA_XSP16, literal(-12)))
        CFI VB load(1, XDATA, add(CFA_XSP16, literal(-13)))
        CFI R6 load(1, XDATA, add(CFA_XSP16, literal(-14)))
        CFI CFA_SP SP+0
        CFI CFA_XSP16 add(XSP16, 14)
        ; Saved register size: 14
        ; Auto size: 10
        MOV     A,#-0xa
        LCALL   ?ALLOC_XSTACK8
        CFI CFA_XSP16 add(XSP16, 24)
        MOV     A,R1
        MOV     R6,A
//  501   uint16 dstOff = pgOff[pgRes-OSAL_NV_PAGE_BEG];
        MOV     DPTR,#pgRes
        MOVX    A,@DPTR
        CLR     C
        RLC     A
        MOV     R0,A
        CLR     A
        RLC     A
        MOV     R1,A
        MOV     A,#(pgOff + 14) & 0xff
        ADD     A,R0
        MOV     DPL,A
        MOV     A,#((pgOff - 242) >> 8) & 0xff
        ADDC    A,R1
        MOV     DPH,A
        MOVX    A,@DPTR
        MOV     ?V0 + 0,A
        INC     DPTR
        MOVX    A,@DPTR
        MOV     ?V0 + 1,A
//  502   uint16 srcOff = OSAL_NV_ZEROED_ID;
        MOV     DPL,?XSP + 0
        MOV     DPH,?XSP + 1
        CLR     A
        MOVX    @DPTR,A
        INC     DPTR
        MOVX    @DPTR,A
//  503   osalNvHdr_t hdr;
//  504 
//  505   // Mark page as being in process of compaction.
//  506   writeWordH( srcPg, OSAL_NV_PG_XFER, (uint8*)(&srcOff) );
        ; Setup parameters for call to function writeWordH
        MOV     DPL,?XSP + 0
        MOV     DPH,?XSP + 1
        MOV     R4,DPL
        MOV     R5,DPH
        MOV     R2,#0x4
        MOV     R3,A
        MOV     A,R6
        MOV     R1,A
        LCALL   ??writeWordH?relay
//  507 
//  508   srcOff = OSAL_NV_PAGE_HDR_SIZE;
        MOV     DPL,?XSP + 0
        MOV     DPH,?XSP + 1
        MOV     A,#0x8
        MOVX    @DPTR,A
        INC     DPTR
        CLR     A
        LJMP    ??compactPage_0 & 0xFFFF
//  509 
//  510   do
//  511   {
//  512     uint16 sz;
//  513     HalFlashRead(srcPg, srcOff, (uint8 *)(&hdr), OSAL_NV_HDR_SIZE);
//  514 
//  515     if ( hdr.id == OSAL_NV_ERASED_ID )
//  516     {
//  517       break;
//  518     }
//  519 
//  520     srcOff += OSAL_NV_HDR_SIZE;
//  521 
//  522     if ( (srcOff + hdr.len) > OSAL_NV_PAGE_FREE )
//  523     {
//  524       break;
//  525     }
//  526 
//  527     sz = OSAL_NV_DATA_SIZE( hdr.len );
??compactPage_1:
        MOV     A,R4
        ADD     A,#0x3
        MOV     R0,A
        MOV     A,R5
        ADDC    A,#0x0
        MOV     R1,A
        MOV     A,R0
        ANL     A,#0xfc
        MOV     ?V0 + 4,A
        MOV     A,R1
        MOV     ?V0 + 5,A
//  528 
//  529     if ( hdr.id != OSAL_NV_ZEROED_ID )
        MOV     A,#0x2
        LCALL   ?XSTACK_DISP0_8
        MOVX    A,@DPTR
        MOV     R0,A
        INC     DPTR
        MOVX    A,@DPTR
        MOV     R1,A
        MOV     A,R0
        ORL     A,R1
        JNZ     $+5
        LJMP    ??compactPage_2 & 0xFFFF
//  530     {
//  531       if ( hdr.chk == calcChkF( srcPg, srcOff, hdr.len ) )
        ; Setup parameters for call to function calcChkF
        MOV     DPL,?XSP + 0
        MOV     DPH,?XSP + 1
        MOVX    A,@DPTR
        MOV     R2,A
        INC     DPTR
        MOVX    A,@DPTR
        MOV     R3,A
        MOV     A,R6
        MOV     R1,A
        LCALL   ??calcChkF?relay
        MOV     ?V0 + 2,R2
        MOV     ?V0 + 3,R3
        MOV     R0,?V0 + 2
        MOV     R1,?V0 + 3
        MOV     A,#0x6
        LCALL   ?XSTACK_DISP0_8
        MOVX    A,@DPTR
        XRL     A,R0
        JNZ     ??compactPage_3
        INC     DPTR
        MOVX    A,@DPTR
        XRL     A,R1
??compactPage_3:
        JNZ     ??compactPage_4
//  532       {
//  533         setItem( srcPg, srcOff, eNvXfer );
        ; Setup parameters for call to function setItem
        MOV     R4,#0x0
        MOV     DPL,?XSP + 0
        MOV     DPH,?XSP + 1
        MOVX    A,@DPTR
        MOV     R2,A
        INC     DPTR
        MOVX    A,@DPTR
        MOV     R3,A
        MOV     A,R6
        MOV     R1,A
        LCALL   ??setItem?relay
//  534         writeBuf( pgRes, dstOff, OSAL_NV_HDR_SIZE, (byte *)(&hdr) );
        ; Setup parameters for call to function writeBuf
        MOV     A,#0x2
        LCALL   ?XSTACK_DISP0_8
        MOV     ?V0 + 2,DPL
        MOV     ?V0 + 3,DPH
        MOV     R0,#?V0 + 2
        LCALL   ?PUSH_XSTACK_I_TWO
        CFI CFA_XSP16 add(XSP16, 26)
        MOV     R4,#0x8
        MOV     R5,#0x0
        MOV     R2,?V0 + 0
        MOV     R3,?V0 + 1
        MOV     DPTR,#pgRes
        MOVX    A,@DPTR
        MOV     R1,A
        LCALL   ??writeBuf?relay
        MOV     A,#0x2
        LCALL   ?DEALLOC_XSTACK8
        CFI CFA_XSP16 add(XSP16, 24)
//  535         dstOff += OSAL_NV_HDR_SIZE;
        MOV     A,?V0 + 0
        ADD     A,#0x8
        MOV     ?V0 + 0,A
        MOV     A,?V0 + 1
        ADDC    A,#0x0
        MOV     ?V0 + 1,A
//  536         xferBuf( srcPg, srcOff, pgRes, dstOff, sz );
        ; Setup parameters for call to function xferBuf
        MOV     R0,#?V0 + 4
        LCALL   ?PUSH_XSTACK_I_TWO
        CFI CFA_XSP16 add(XSP16, 26)
        MOV     R0,#?V0 + 0
        LCALL   ?PUSH_XSTACK_I_TWO
        CFI CFA_XSP16 add(XSP16, 28)
        MOV     DPTR,#pgRes
        MOVX    A,@DPTR
        MOV     R4,A
        MOV     A,#0x4
        LCALL   ?XSTACK_DISP0_8
        MOVX    A,@DPTR
        MOV     R2,A
        INC     DPTR
        MOVX    A,@DPTR
        MOV     R3,A
        MOV     A,R6
        MOV     R1,A
        LCALL   ??xferBuf?relay
        MOV     A,#0x4
        LCALL   ?DEALLOC_XSTACK8
        CFI CFA_XSP16 add(XSP16, 24)
//  537         dstOff += sz;
        MOV     A,?V0 + 0
        ADD     A,?V0 + 4
        MOV     ?V0 + 0,A
        MOV     A,?V0 + 1
        ADDC    A,?V0 + 5
        MOV     ?V0 + 1,A
//  538       }
//  539 
//  540       setItem( srcPg, srcOff, eNvZero );  // Mark old location as invalid.
??compactPage_4:
        ; Setup parameters for call to function setItem
        MOV     R4,#0x1
        MOV     DPL,?XSP + 0
        MOV     DPH,?XSP + 1
        MOVX    A,@DPTR
        MOV     R2,A
        INC     DPTR
        MOVX    A,@DPTR
        MOV     R3,A
        MOV     A,R6
        MOV     R1,A
        LCALL   ??setItem?relay
//  541     }
//  542 
//  543     srcOff += sz;
??compactPage_2:
        MOV     DPL,?XSP + 0
        MOV     DPH,?XSP + 1
        MOVX    A,@DPTR
        ADD     A,?V0 + 4
        MOVX    @DPTR,A
        INC     DPTR
        MOVX    A,@DPTR
        ADDC    A,?V0 + 5
??compactPage_0:
        MOVX    @DPTR,A
//  544 
//  545   } while ( TRUE );
        ; Setup parameters for call to function HalFlashRead
        MOV     ?V0 + 2,#0x8
        MOV     ?V0 + 3,#0x0
        MOV     R0,#?V0 + 2
        LCALL   ?PUSH_XSTACK_I_TWO
        CFI CFA_XSP16 add(XSP16, 26)
        MOV     A,#0x4
        LCALL   ?XSTACK_DISP0_8
        MOV     R4,DPL
        MOV     R5,DPH
        MOV     A,#0x2
        LCALL   ?XSTACK_DISP0_8
        MOVX    A,@DPTR
        MOV     R2,A
        INC     DPTR
        MOVX    A,@DPTR
        MOV     R3,A
        MOV     A,R6
        MOV     R1,A
        LCALL   ??HalFlashRead?relay
        MOV     A,#0x2
        LCALL   ?DEALLOC_XSTACK8
        CFI CFA_XSP16 add(XSP16, 24)
        MOV     A,#0x2
        LCALL   ?XSTACK_DISP0_8
        MOVX    A,@DPTR
        CPL     A
        JNZ     ??compactPage_5
        INC     DPTR
        MOVX    A,@DPTR
        CPL     A
??compactPage_5:
        JZ      ??compactPage_6
        MOV     DPL,?XSP + 0
        MOV     DPH,?XSP + 1
        MOVX    A,@DPTR
        ADD     A,#0x8
        MOVX    @DPTR,A
        INC     DPTR
        MOVX    A,@DPTR
        ADDC    A,#0x0
        MOVX    @DPTR,A
        MOV     A,#0x4
        LCALL   ?XSTACK_DISP0_8
        MOVX    A,@DPTR
        MOV     R4,A
        INC     DPTR
        MOVX    A,@DPTR
        MOV     R5,A
        MOV     DPL,?XSP + 0
        MOV     DPH,?XSP + 1
        MOVX    A,@DPTR
        ADD     A,R4
        MOV     R0,A
        INC     DPTR
        MOVX    A,@DPTR
        ADDC    A,R5
        MOV     R1,A
        CLR     C
        MOV     A,R0
        SUBB    A,#0x1
        MOV     A,R1
        SUBB    A,#0x8
        JNC     $+5
        LJMP    ??compactPage_1 & 0xFFFF
//  546 
//  547   pgOff[pgRes-OSAL_NV_PAGE_BEG] = dstOff;
??compactPage_6:
        MOV     DPTR,#pgRes
        MOVX    A,@DPTR
        CLR     C
        RLC     A
        MOV     R0,A
        CLR     A
        RLC     A
        MOV     R1,A
        MOV     A,#(pgOff + 14) & 0xff
        ADD     A,R0
        MOV     DPL,A
        MOV     A,#((pgOff - 242) >> 8) & 0xff
        ADDC    A,R1
        MOV     DPH,A
        MOV     A,?V0 + 0
        MOVX    @DPTR,A
        INC     DPTR
        MOV     A,?V0 + 1
        MOVX    @DPTR,A
//  548 
//  549   /* In order to recover from a page compaction that is interrupted,
//  550    * the logic in osal_nv_init() depends upon the following order:
//  551    * 1. Compacted page is erased.
//  552    * 2. State of the target of compaction is changed ePgActive to ePgInUse.
//  553    */
//  554   erasePage( srcPg );
        ; Setup parameters for call to function erasePage
        MOV     A,R6
        MOV     R1,A
        LCALL   ??erasePage?relay
//  555 
//  556   // Mark the reserve page as being in use.
//  557   setPageUse( pgRes, TRUE );
        ; Setup parameters for call to function setPageUse
        MOV     R2,#0x1
        MOV     DPTR,#pgRes
        MOVX    A,@DPTR
        MOV     R1,A
        LCALL   ??setPageUse?relay
//  558 
//  559   // Set the reserve page to be the newly erased page.
//  560   pgRes = srcPg;
        MOV     A,R6
        MOV     DPTR,#pgRes
        MOVX    @DPTR,A
//  561 }
        MOV     A,#0xa
        LCALL   ?DEALLOC_XSTACK8
        CFI CFA_XSP16 add(XSP16, 14)
        MOV     R7,#0x6
        LJMP    ?BANKED_LEAVE_XDATA
        CFI EndBlock cfiBlock4
//  562 
//  563 /*********************************************************************
//  564  * @fn      findItem
//  565  *
//  566  * @brief   Find an item Id in NV and return the page and offset to its data.
//  567  *
//  568  * @param   id - Valid NV item Id.
//  569  *
//  570  * @return  Offset of data corresponding to item Id, if found;
//  571  *          otherwise OSAL_NV_ITEM_NULL.
//  572  *
//  573  *          The page containing the item, if found;
//  574  *          otherwise no valid assignment made - left equal to item Id.
//  575  *
//  576  */

        RSEG BANKED_CODE:CODE:NOROOT(0)
//  577 static uint16 findItem( uint16 id )
findItem:
        CFI Block cfiBlock5 Using cfiCommon0
        CFI Function findItem
        CODE
//  578 {
        FUNCALL findItem, initPage
        LOCFRAME ISTACK, 0, STACK
        LOCFRAME PSTACK, 0, STACK
        LOCFRAME XSTACK, 12, STACK
        LOCFRAME IOVERLAY, 0, STATIC
        LOCFRAME DOVERLAY, 0, STATIC
        ARGFRAME ISTACK, 0, STACK
        ARGFRAME PSTACK, 0, STACK
        ARGFRAME XSTACK, 12, STACK
        ARGFRAME IOVERLAY, 0, STATIC
        ARGFRAME DOVERLAY, 0, STATIC
        MOV     A,#-0xc
        LCALL   ?BANKED_ENTER_XDATA
        CFI DPH0 load(1, XDATA, add(CFA_XSP16, literal(-1)))
        CFI DPL0 load(1, XDATA, add(CFA_XSP16, literal(-2)))
        CFI ?BRET_EXT load(1, XDATA, add(CFA_XSP16, literal(-3)))
        CFI ?RET_HIGH load(1, XDATA, add(CFA_XSP16, literal(-4)))
        CFI ?RET_LOW load(1, XDATA, add(CFA_XSP16, literal(-5)))
        CFI R7 load(1, XDATA, add(CFA_XSP16, literal(-6)))
        CFI V3 load(1, XDATA, add(CFA_XSP16, literal(-7)))
        CFI V2 load(1, XDATA, add(CFA_XSP16, literal(-8)))
        CFI V1 load(1, XDATA, add(CFA_XSP16, literal(-9)))
        CFI V0 load(1, XDATA, add(CFA_XSP16, literal(-10)))
        CFI VB load(1, XDATA, add(CFA_XSP16, literal(-11)))
        CFI R6 load(1, XDATA, add(CFA_XSP16, literal(-12)))
        CFI CFA_SP SP+0
        CFI CFA_XSP16 add(XSP16, 12)
        ; Saved register size: 12
        ; Auto size: 0
        MOV     A,R2
        MOV     R6,A
        MOV     A,R3
        SJMP    ??findItem_0
//  579   uint16 off;
//  580   uint8 pg;
//  581 
//  582   for ( pg = OSAL_NV_PAGE_BEG; pg <= OSAL_NV_PAGE_END; pg++ )
//  583   {
//  584     if ( (off = initPage( pg, id, FALSE )) != OSAL_NV_ITEM_NULL )
//  585     {
//  586       findPg = pg;
//  587       return off;
//  588     }
//  589   }
//  590 
//  591   // Now attempt to find the item as the "old" item of a failed/interrupted NV write.
//  592   if ( (id & OSAL_NV_SOURCE_ID) == 0 )
//  593   {
//  594     return findItem( id | OSAL_NV_SOURCE_ID );
??findItem_1:
        MOV     A,#-0x80
        ORL     A,R7
??findItem_0:
        MOV     R7,A
//  595   }
        MOV     ?V0 + 0,#0x79
        SJMP    ??findItem_2
??findItem_3:
        INC     ?V0 + 0
??findItem_2:
        MOV     A,?V0 + 0
        CLR     C
        SUBB    A,#0x7f
        JNC     ??findItem_4
        ; Setup parameters for call to function initPage
        MOV     R4,#0x0
        MOV     A,R6
        MOV     R2,A
        MOV     A,R7
        MOV     R3,A
        MOV     R1,?V0 + 0
        LCALL   ??initPage?relay
        MOV     ?V0 + 3,R3
        MOV     R1,?V0 + 3
        MOV     A,R2
        ORL     A,R1
        JZ      ??findItem_3
        MOV     A,?V0 + 0
        MOV     DPTR,#findPg
        MOVX    @DPTR,A
        SJMP    ??findItem_5
??findItem_4:
        MOV     A,R7
        ANL     A,#0x80
        JZ      ??findItem_1
//  596   else
//  597   {
//  598     findPg = OSAL_NV_PAGE_NULL;
        MOV     DPTR,#findPg
        CLR     A
        MOVX    @DPTR,A
//  599     return OSAL_NV_ITEM_NULL;
        MOV     R2,A
        MOV     R3,A
??findItem_5:
        MOV     R7,#0x4
        LJMP    ?BANKED_LEAVE_XDATA
        CFI EndBlock cfiBlock5
//  600   }
//  601 }
//  602 
//  603 /*********************************************************************
//  604  * @fn      initItem
//  605  *
//  606  * @brief   An NV item is created and initialized with the data passed to the function, if any.
//  607  *
//  608  * @param   id  - Valid NV item Id.
//  609  * @param   len - Item data length.
//  610  * @param  *buf - Pointer to item initalization data. Set to NULL if none.
//  611  *
//  612  * @return  TRUE if item write and read back checksums ok; FALSE otherwise.
//  613  */

        RSEG BANKED_CODE:CODE:NOROOT(0)
//  614 static uint8 initItem( uint8 flag, uint16 id, uint16 len, void *buf )
initItem:
        CFI Block cfiBlock6 Using cfiCommon0
        CFI Function initItem
        CODE
//  615 {
        FUNCALL initItem, writeItem
        LOCFRAME ISTACK, 0, STACK
        LOCFRAME PSTACK, 0, STACK
        LOCFRAME XSTACK, 18, STACK
        LOCFRAME IOVERLAY, 0, STATIC
        LOCFRAME DOVERLAY, 0, STATIC
        ARGFRAME ISTACK, 0, STACK
        ARGFRAME PSTACK, 0, STACK
        ARGFRAME XSTACK, 18, STACK
        ARGFRAME IOVERLAY, 0, STATIC
        ARGFRAME DOVERLAY, 0, STATIC
        FUNCALL initItem, compactPage
        LOCFRAME ISTACK, 0, STACK
        LOCFRAME PSTACK, 0, STACK
        LOCFRAME XSTACK, 15, STACK
        LOCFRAME IOVERLAY, 0, STATIC
        LOCFRAME DOVERLAY, 0, STATIC
        ARGFRAME ISTACK, 0, STACK
        ARGFRAME PSTACK, 0, STACK
        ARGFRAME XSTACK, 15, STACK
        ARGFRAME IOVERLAY, 0, STATIC
        ARGFRAME DOVERLAY, 0, STATIC
        MOV     A,#-0xf
        LCALL   ?BANKED_ENTER_XDATA
        CFI DPH0 load(1, XDATA, add(CFA_XSP16, literal(-1)))
        CFI DPL0 load(1, XDATA, add(CFA_XSP16, literal(-2)))
        CFI ?BRET_EXT load(1, XDATA, add(CFA_XSP16, literal(-3)))
        CFI ?RET_HIGH load(1, XDATA, add(CFA_XSP16, literal(-4)))
        CFI ?RET_LOW load(1, XDATA, add(CFA_XSP16, literal(-5)))
        CFI R7 load(1, XDATA, add(CFA_XSP16, literal(-6)))
        CFI V6 load(1, XDATA, add(CFA_XSP16, literal(-7)))
        CFI V5 load(1, XDATA, add(CFA_XSP16, literal(-8)))
        CFI V4 load(1, XDATA, add(CFA_XSP16, literal(-9)))
        CFI V3 load(1, XDATA, add(CFA_XSP16, literal(-10)))
        CFI V2 load(1, XDATA, add(CFA_XSP16, literal(-11)))
        CFI V1 load(1, XDATA, add(CFA_XSP16, literal(-12)))
        CFI V0 load(1, XDATA, add(CFA_XSP16, literal(-13)))
        CFI VB load(1, XDATA, add(CFA_XSP16, literal(-14)))
        CFI R6 load(1, XDATA, add(CFA_XSP16, literal(-15)))
        CFI CFA_SP SP+0
        CFI CFA_XSP16 add(XSP16, 15)
        ; Saved register size: 15
        ; Auto size: 0
        MOV     A,R1
        MOV     R7,A
        MOV     A,#0xf
        LCALL   ?XSTACK_DISP0_8
        MOVX    A,@DPTR
        MOV     ?V0 + 2,A
        INC     DPTR
        MOVX    A,@DPTR
        MOV     ?V0 + 3,A
//  616   uint16 sz = OSAL_NV_ITEM_SIZE( len );
        MOV     A,R4
        ADD     A,#0x3
        MOV     R0,A
        MOV     A,R5
        ADDC    A,#0x0
        MOV     R1,A
        MOV     A,R0
        ANL     A,#0xfc
        ADD     A,#0x8
        MOV     ?V0 + 4,A
        MOV     A,R1
        ADDC    A,#0x0
        MOV     ?V0 + 5,A
//  617   uint8 rtrn = FALSE;
        MOV     ?V0 + 1,#0x0
//  618   uint8 cnt = OSAL_NV_PAGES_USED;
        MOV     ?V0 + 6,#0x6
//  619   uint8 pg = pgRes+1;  // Set to 1 after the reserve page to even wear across all available pages.
        MOV     DPTR,#pgRes
        MOVX    A,@DPTR
        INC     A
        MOV     R6,A
//  620   uint8 idx = 0;
        MOV     ?V0 + 0,#0x0
//  621 
//  622   do {
//  623     if (pg >= OSAL_NV_PAGE_BEG+OSAL_NV_PAGES_USED)
??initItem_0:
        MOV     A,R6
        CLR     C
        SUBB    A,#0x7f
        JC      ??initItem_1
//  624     {
//  625       pg = OSAL_NV_PAGE_BEG;
        MOV     R6,#0x79
//  626     }
//  627     if ( pg != pgRes )
??initItem_1:
        MOV     DPTR,#pgRes
        MOVX    A,@DPTR
        XRL     A,R6
        JZ      ??initItem_2
//  628     {
//  629       idx = pg - OSAL_NV_PAGE_BEG;
        MOV     A,#-0x79
        ADD     A,R6
        MOV     ?V0 + 0,A
//  630       if ( (pgOff[idx] - pgLost[idx] + sz) <= OSAL_NV_PAGE_FREE )
        CLR     C
        RLC     A
        MOV     R0,A
        CLR     A
        RLC     A
        MOV     R1,A
        MOV     A,#pgOff & 0xff
        ADD     A,R0
        MOV     DPL,A
        MOV     A,#(pgOff >> 8) & 0xff
        ADDC    A,R1
        MOV     DPH,A
        PUSH    DPL
        CFI CFA_SP SP+-1
        PUSH    DPH
        CFI CFA_SP SP+-2
        MOV     A,#pgLost & 0xff
        ADD     A,R0
        MOV     DPL,A
        MOV     A,#(pgLost >> 8) & 0xff
        ADDC    A,R1
        MOV     DPH,A
        MOVX    A,@DPTR
        MOV     R0,A
        INC     DPTR
        MOVX    A,@DPTR
        MOV     R1,A
        POP     DPH
        CFI CFA_SP SP+-1
        POP     DPL
        CFI CFA_SP SP+0
        MOVX    A,@DPTR
        CLR     C
        SUBB    A,R0
        MOV     R0,A
        INC     DPTR
        MOVX    A,@DPTR
        SUBB    A,R1
        MOV     R1,A
        MOV     A,R0
        ADD     A,?V0 + 4
        MOV     R0,A
        MOV     A,R1
        ADDC    A,?V0 + 5
        MOV     R1,A
        CLR     C
        MOV     A,R0
        SUBB    A,#0x1
        MOV     A,R1
        SUBB    A,#0x8
        JC      ??initItem_3
//  631       {
//  632         break;
//  633       }
//  634     }
//  635     pg++;
??initItem_2:
        INC     R6
//  636   } while (--cnt);
        DEC     ?V0 + 6
        MOV     A,?V0 + 6
        JNZ     ??initItem_0
//  637 
//  638   if (cnt)
??initItem_3:
        MOV     A,?V0 + 6
        JZ      ??initItem_4
//  639   {
//  640     // Item fits if an old page is compacted.
//  641     if ( (pgOff[idx] + sz) > OSAL_NV_PAGE_FREE )
        MOV     A,?V0 + 0
        CLR     C
        RLC     A
        MOV     R0,A
        CLR     A
        RLC     A
        MOV     R1,A
        MOV     A,#pgOff & 0xff
        ADD     A,R0
        MOV     DPL,A
        MOV     A,#(pgOff >> 8) & 0xff
        ADDC    A,R1
        MOV     DPH,A
        MOVX    A,@DPTR
        ADD     A,?V0 + 4
        MOV     R0,A
        INC     DPTR
        MOVX    A,@DPTR
        ADDC    A,?V0 + 5
        MOV     R1,A
        CLR     C
        MOV     A,R0
        SUBB    A,#0x1
        MOV     A,R1
        SUBB    A,#0x8
        JC      ??initItem_5
//  642     {
//  643       pg = pgRes;
        MOV     DPTR,#pgRes
        MOVX    A,@DPTR
        MOV     R6,A
//  644     }
//  645 
//  646     // New item is the first one written to the reserved page, then the old page is compacted.
//  647     rtrn = writeItem( pg, id, len, buf, flag );
??initItem_5:
        ; Setup parameters for call to function writeItem
        MOV     A,R7
        MOV     ?V0 + 1,A
        MOV     R0,#?V0 + 1
        LCALL   ?PUSH_XSTACK_I_ONE
        CFI CFA_XSP16 add(XSP16, 16)
        MOV     R0,#?V0 + 2
        LCALL   ?PUSH_XSTACK_I_TWO
        CFI CFA_XSP16 add(XSP16, 18)
        MOV     A,R6
        MOV     R1,A
        LCALL   ??writeItem?relay
        MOV     A,#0x3
        LCALL   ?DEALLOC_XSTACK8
        CFI CFA_XSP16 add(XSP16, 15)
        MOV     A,R1
        MOV     ?V0 + 1,A
//  648 
//  649     if ( pg == pgRes )
        MOV     DPTR,#pgRes
        MOVX    A,@DPTR
        XRL     A,R6
        JNZ     ??initItem_4
//  650     {
//  651       if ( flag )
        MOV     A,#0x79
        ADD     A,?V0 + 0
        MOV     R1,A
        MOV     A,R7
        JZ      ??initItem_6
//  652       {
//  653         compactPage( OSAL_NV_PAGE_BEG+idx );
        ; Setup parameters for call to function compactPage
        LCALL   ??compactPage?relay
        SJMP    ??initItem_4
//  654       }
//  655       else
//  656       {
//  657         *(uint8 *)buf = OSAL_NV_PAGE_BEG+idx;
??initItem_6:
        MOV     A,R1
        MOV     DPL,?V0 + 2
        MOV     DPH,?V0 + 3
        MOVX    @DPTR,A
//  658       }
//  659     }
//  660   }
//  661 
//  662   return rtrn;
??initItem_4:
        MOV     R1,?V0 + 1
        MOV     R7,#0x7
        LJMP    ?BANKED_LEAVE_XDATA
        CFI EndBlock cfiBlock6
//  663 }
//  664 
//  665 /*********************************************************************
//  666  * @fn      setItem
//  667  *
//  668  * @brief   Set an item Id or status to mark its state.
//  669  *
//  670  * @param   pg - Valid NV page.
//  671  * @param   offset - Valid offset into the page of the item data - the header
//  672  *                   offset is calculated from this.
//  673  * @param   stat - Valid enum value for the item status.
//  674  *
//  675  * @return  none
//  676  */

        RSEG BANKED_CODE:CODE:NOROOT(0)
//  677 static void setItem( uint8 pg, uint16 offset, eNvHdrEnum stat )
setItem:
        CFI Block cfiBlock7 Using cfiCommon0
        CFI Function setItem
        CODE
//  678 {
        FUNCALL setItem, HalFlashRead
        LOCFRAME ISTACK, 0, STACK
        LOCFRAME PSTACK, 0, STACK
        LOCFRAME XSTACK, 24, STACK
        LOCFRAME IOVERLAY, 0, STATIC
        LOCFRAME DOVERLAY, 0, STATIC
        ARGFRAME ISTACK, 0, STACK
        ARGFRAME PSTACK, 0, STACK
        ARGFRAME XSTACK, 24, STACK
        ARGFRAME IOVERLAY, 0, STATIC
        ARGFRAME DOVERLAY, 0, STATIC
        FUNCALL setItem, writeWord
        LOCFRAME ISTACK, 0, STACK
        LOCFRAME PSTACK, 0, STACK
        LOCFRAME XSTACK, 22, STACK
        LOCFRAME IOVERLAY, 0, STATIC
        LOCFRAME DOVERLAY, 0, STATIC
        ARGFRAME ISTACK, 0, STACK
        ARGFRAME PSTACK, 0, STACK
        ARGFRAME XSTACK, 22, STACK
        ARGFRAME IOVERLAY, 0, STATIC
        ARGFRAME DOVERLAY, 0, STATIC
        FUNCALL setItem, writeWord
        LOCFRAME ISTACK, 0, STACK
        LOCFRAME PSTACK, 0, STACK
        LOCFRAME XSTACK, 22, STACK
        LOCFRAME IOVERLAY, 0, STATIC
        LOCFRAME DOVERLAY, 0, STATIC
        ARGFRAME ISTACK, 0, STACK
        ARGFRAME PSTACK, 0, STACK
        ARGFRAME XSTACK, 22, STACK
        ARGFRAME IOVERLAY, 0, STATIC
        ARGFRAME DOVERLAY, 0, STATIC
        MOV     A,#-0xe
        LCALL   ?BANKED_ENTER_XDATA
        CFI DPH0 load(1, XDATA, add(CFA_XSP16, literal(-1)))
        CFI DPL0 load(1, XDATA, add(CFA_XSP16, literal(-2)))
        CFI ?BRET_EXT load(1, XDATA, add(CFA_XSP16, literal(-3)))
        CFI ?RET_HIGH load(1, XDATA, add(CFA_XSP16, literal(-4)))
        CFI ?RET_LOW load(1, XDATA, add(CFA_XSP16, literal(-5)))
        CFI R7 load(1, XDATA, add(CFA_XSP16, literal(-6)))
        CFI V5 load(1, XDATA, add(CFA_XSP16, literal(-7)))
        CFI V4 load(1, XDATA, add(CFA_XSP16, literal(-8)))
        CFI V3 load(1, XDATA, add(CFA_XSP16, literal(-9)))
        CFI V2 load(1, XDATA, add(CFA_XSP16, literal(-10)))
        CFI V1 load(1, XDATA, add(CFA_XSP16, literal(-11)))
        CFI V0 load(1, XDATA, add(CFA_XSP16, literal(-12)))
        CFI VB load(1, XDATA, add(CFA_XSP16, literal(-13)))
        CFI R6 load(1, XDATA, add(CFA_XSP16, literal(-14)))
        CFI CFA_SP SP+0
        CFI CFA_XSP16 add(XSP16, 14)
        ; Saved register size: 14
        ; Auto size: 8
        MOV     A,#-0x8
        LCALL   ?ALLOC_XSTACK8
        CFI CFA_XSP16 add(XSP16, 22)
        MOV     ?V0 + 1,R1
        MOV     ?V0 + 0,R4
//  679   osalNvHdr_t hdr;
//  680 
//  681   offset -= OSAL_NV_HDR_SIZE;
        MOV     A,R2
        ADD     A,#-0x8
        MOV     ?V0 + 2,A
        MOV     A,R3
        ADDC    A,#-0x1
        MOV     ?V0 + 3,A
//  682   HalFlashRead(pg, offset, (uint8 *)(&hdr), OSAL_NV_HDR_SIZE);
        ; Setup parameters for call to function HalFlashRead
        MOV     ?V0 + 4,#0x8
        MOV     ?V0 + 5,#0x0
        MOV     R0,#?V0 + 4
        LCALL   ?PUSH_XSTACK_I_TWO
        CFI CFA_XSP16 add(XSP16, 24)
        MOV     A,#0x2
        LCALL   ?XSTACK_DISP0_8
        MOV     R4,DPL
        MOV     R5,DPH
        MOV     R2,?V0 + 2
        MOV     R3,?V0 + 3
        LCALL   ??HalFlashRead?relay
        MOV     A,#0x2
        LCALL   ?DEALLOC_XSTACK8
        CFI CFA_XSP16 add(XSP16, 22)
//  683 
//  684   if ( stat == eNvXfer )
        MOV     A,?V0 + 0
        JNZ     ??setItem_0
//  685   {
//  686     hdr.stat = OSAL_NV_ACTIVE;
        MOV     A,#0x6
        LCALL   ?XSTACK_DISP0_8
        CLR     A
        MOVX    @DPTR,A
        INC     DPTR
        MOVX    @DPTR,A
//  687     writeWord( pg, offset+OSAL_NV_HDR_CHK, (uint8*)(&(hdr.chk)) );
        ; Setup parameters for call to function writeWord
        MOV     A,#0x4
        LCALL   ?XSTACK_DISP0_8
        MOV     R4,DPL
        MOV     R5,DPH
        MOV     A,?V0 + 2
        ADD     A,#0x4
        MOV     R2,A
        MOV     A,?V0 + 3
        ADDC    A,#0x0
        MOV     R3,A
        MOV     R1,?V0 + 1
        LCALL   ??writeWord?relay
        SJMP    ??setItem_1
//  688 }
//  689   else // if ( stat == eNvZero )
//  690   {
//  691     uint16 sz = ((hdr.len + (OSAL_NV_WORD_SIZE-1)) / OSAL_NV_WORD_SIZE) * OSAL_NV_WORD_SIZE +
//  692                                                                           OSAL_NV_HDR_SIZE;
??setItem_0:
        MOV     A,#0x2
        LCALL   ?XSTACK_DISP0_8
        MOVX    A,@DPTR
        ADD     A,#0x3
        MOV     R0,A
        INC     DPTR
        MOVX    A,@DPTR
        ADDC    A,#0x0
        MOV     R1,A
        MOV     A,R0
        ANL     A,#0xfc
        ADD     A,#0x8
        MOV     R6,A
        MOV     A,R1
        ADDC    A,#0x0
        MOV     R7,A
//  693     hdr.id = 0;
        MOV     DPL,?XSP + 0
        MOV     DPH,?XSP + 1
        CLR     A
        MOVX    @DPTR,A
        INC     DPTR
        MOVX    @DPTR,A
//  694     writeWord( pg, offset, (uint8 *)(&hdr) );
        ; Setup parameters for call to function writeWord
        MOV     DPL,?XSP + 0
        MOV     DPH,?XSP + 1
        MOV     R4,DPL
        MOV     R5,DPH
        MOV     R2,?V0 + 2
        MOV     R3,?V0 + 3
        MOV     R1,?V0 + 1
        LCALL   ??writeWord?relay
//  695     pgLost[pg-OSAL_NV_PAGE_BEG] += sz;
        MOV     A,?V0 + 1
        CLR     C
        RLC     A
        MOV     R0,A
        CLR     A
        RLC     A
        MOV     R1,A
        MOV     A,#(pgLost + 14) & 0xff
        ADD     A,R0
        MOV     DPL,A
        MOV     A,#((pgLost - 242) >> 8) & 0xff
        ADDC    A,R1
        MOV     DPH,A
        MOVX    A,@DPTR
        ADD     A,R6
        MOVX    @DPTR,A
        INC     DPTR
        MOVX    A,@DPTR
        ADDC    A,R7
        MOVX    @DPTR,A
//  696   }
//  697 }
??setItem_1:
        MOV     A,#0x8
        LCALL   ?DEALLOC_XSTACK8
        CFI CFA_XSP16 add(XSP16, 14)
        MOV     R7,#0x6
        LJMP    ?BANKED_LEAVE_XDATA
        CFI EndBlock cfiBlock7
//  698 
//  699 /*********************************************************************
//  700  * @fn      calcChkB
//  701  *
//  702  * @brief   Calculates the data checksum over the 'buf' parameter.
//  703  *
//  704  * @param   pg - A valid NV Flash page.
//  705  * @param   offset - A valid offset into the page.
//  706  * @param   len - Byte count of the data to be checksummed.
//  707  *
//  708  * @return  Calculated checksum of the data bytes.
//  709  */

        RSEG BANKED_CODE:CODE:NOROOT(0)
//  710 static uint16 calcChkB( uint16 len, uint8 *buf )
calcChkB:
        CFI Block cfiBlock8 Using cfiCommon0
        CFI Function calcChkB
        CODE
//  711 {
        MOV     A,#-0xa
        LCALL   ?BANKED_ENTER_XDATA
        CFI DPH0 load(1, XDATA, add(CFA_XSP16, literal(-1)))
        CFI DPL0 load(1, XDATA, add(CFA_XSP16, literal(-2)))
        CFI ?BRET_EXT load(1, XDATA, add(CFA_XSP16, literal(-3)))
        CFI ?RET_HIGH load(1, XDATA, add(CFA_XSP16, literal(-4)))
        CFI ?RET_LOW load(1, XDATA, add(CFA_XSP16, literal(-5)))
        CFI R7 load(1, XDATA, add(CFA_XSP16, literal(-6)))
        CFI V1 load(1, XDATA, add(CFA_XSP16, literal(-7)))
        CFI V0 load(1, XDATA, add(CFA_XSP16, literal(-8)))
        CFI VB load(1, XDATA, add(CFA_XSP16, literal(-9)))
        CFI R6 load(1, XDATA, add(CFA_XSP16, literal(-10)))
        CFI CFA_SP SP+0
        CFI CFA_XSP16 add(XSP16, 10)
        ; Saved register size: 10
        ; Auto size: 0
        MOV     A,R2
        MOV     R0,A
        MOV     A,R3
        MOV     R1,A
//  712   uint8 fill = len % OSAL_NV_WORD_SIZE;
        MOV     A,R0
        ANL     A,#0x3
        MOV     ?V0 + 0,A
//  713   uint16 chk;
//  714 
//  715   if ( !buf )
        MOV     A,R4
        ORL     A,R5
        JNZ     ??calcChkB_0
//  716   {
//  717     chk = len * OSAL_NV_ERASED;
        MOV     A,R2
        MOV     B,#-0x1
        MUL     AB
        MOV     R2,A
        MOV     R0,B
        MOV     B,#-0x1
        MOV     A,R3
        MUL     AB
        ADD     A,R0
        MOV     R3,A
        SJMP    ??calcChkB_1
//  718   }
//  719   else
//  720   {
//  721     chk = 0;
??calcChkB_0:
        MOV     R2,#0x0
        MOV     R3,#0x0
        SJMP    ??calcChkB_2
//  722     while ( len-- )
//  723     {
//  724       chk += *buf++;
??calcChkB_3:
        MOV     DPL,R4
        MOV     DPH,R5
        MOVX    A,@DPTR
        MOV     R6,A
        MOV     A,R2
        ADD     A,R6
        MOV     R2,A
        MOV     A,R3
        ADDC    A,#0x0
        MOV     R3,A
        INC     DPTR
        MOV     R4,DPL
        MOV     R5,DPH
//  725     }
??calcChkB_2:
        MOV     A,R0
        MOV     R6,A
        MOV     A,R1
        MOV     R7,A
        MOV     A,R6
        ADD     A,#-0x1
        DEC     R0
        MOV     A,R7
        ADDC    A,#-0x1
        MOV     R1,A
        MOV     A,R6
        ORL     A,R7
        JNZ     ??calcChkB_3
//  726   }
//  727 
//  728   // calcChkF() will calculate over OSAL_NV_WORD_SIZE alignment.
//  729   if ( fill )
??calcChkB_1:
        MOV     A,?V0 + 0
        JZ      ??calcChkB_4
//  730   {
//  731     chk += (OSAL_NV_WORD_SIZE - fill) * OSAL_NV_ERASED;
        MOV     A,#0x4
        CLR     C
        SUBB    A,?V0 + 0
        MOV     R0,A
        SUBB    A,0xE0 /* A   */
        MOV     R1,A
        MOV     A,R0
        MOV     B,#-0x1
        MUL     AB
        MOV     R0,A
        MOV     R4,B
        MOV     B,#-0x1
        MOV     A,R1
        MUL     AB
        ADD     A,R4
        MOV     R1,A
        MOV     A,R2
        ADD     A,R0
        MOV     R2,A
        MOV     A,R3
        ADDC    A,R1
        MOV     R3,A
//  732   }
//  733 
//  734   return chk;
??calcChkB_4:
        MOV     R7,#0x2
        LJMP    ?BANKED_LEAVE_XDATA
        CFI EndBlock cfiBlock8
//  735 }
//  736 
//  737 /*********************************************************************
//  738  * @fn      calcChkF
//  739  *
//  740  * @brief   Calculates the data checksum by reading the data bytes from NV.
//  741  *
//  742  * @param   pg - A valid NV Flash page.
//  743  * @param   offset - A valid offset into the page.
//  744  * @param   len - Byte count of the data to be checksummed.
//  745  *
//  746  * @return  Calculated checksum of the data bytes.
//  747  */

        RSEG BANKED_CODE:CODE:NOROOT(0)
//  748 static uint16 calcChkF( byte pg, uint16 offset, uint16 len )
calcChkF:
        CFI Block cfiBlock9 Using cfiCommon0
        CFI Function calcChkF
        CODE
//  749 {
        FUNCALL calcChkF, HalFlashRead
        LOCFRAME ISTACK, 0, STACK
        LOCFRAME PSTACK, 0, STACK
        LOCFRAME XSTACK, 22, STACK
        LOCFRAME IOVERLAY, 0, STATIC
        LOCFRAME DOVERLAY, 0, STATIC
        ARGFRAME ISTACK, 0, STACK
        ARGFRAME PSTACK, 0, STACK
        ARGFRAME XSTACK, 22, STACK
        ARGFRAME IOVERLAY, 0, STATIC
        ARGFRAME DOVERLAY, 0, STATIC
        MOV     A,#-0x10
        LCALL   ?BANKED_ENTER_XDATA
        CFI DPH0 load(1, XDATA, add(CFA_XSP16, literal(-1)))
        CFI DPL0 load(1, XDATA, add(CFA_XSP16, literal(-2)))
        CFI ?BRET_EXT load(1, XDATA, add(CFA_XSP16, literal(-3)))
        CFI ?RET_HIGH load(1, XDATA, add(CFA_XSP16, literal(-4)))
        CFI ?RET_LOW load(1, XDATA, add(CFA_XSP16, literal(-5)))
        CFI R7 load(1, XDATA, add(CFA_XSP16, literal(-6)))
        CFI V7 load(1, XDATA, add(CFA_XSP16, literal(-7)))
        CFI V6 load(1, XDATA, add(CFA_XSP16, literal(-8)))
        CFI V5 load(1, XDATA, add(CFA_XSP16, literal(-9)))
        CFI V4 load(1, XDATA, add(CFA_XSP16, literal(-10)))
        CFI V3 load(1, XDATA, add(CFA_XSP16, literal(-11)))
        CFI V2 load(1, XDATA, add(CFA_XSP16, literal(-12)))
        CFI V1 load(1, XDATA, add(CFA_XSP16, literal(-13)))
        CFI V0 load(1, XDATA, add(CFA_XSP16, literal(-14)))
        CFI VB load(1, XDATA, add(CFA_XSP16, literal(-15)))
        CFI R6 load(1, XDATA, add(CFA_XSP16, literal(-16)))
        CFI CFA_SP SP+0
        CFI CFA_XSP16 add(XSP16, 16)
        ; Saved register size: 16
        ; Auto size: 4
        MOV     A,#-0x4
        LCALL   ?ALLOC_XSTACK8
        CFI CFA_XSP16 add(XSP16, 20)
        MOV     ?V0 + 4,R1
        MOV     ?V0 + 2,R2
        MOV     ?V0 + 3,R3
        MOV     A,R4
        MOV     R6,A
        MOV     A,R5
        MOV     R7,A
//  750   uint16 chk = 0;
        MOV     ?V0 + 0,#0x0
        MOV     ?V0 + 1,#0x0
//  751 
//  752   len = (len + (OSAL_NV_WORD_SIZE-1)) / OSAL_NV_WORD_SIZE;
        MOV     A,R6
        ADD     A,#0x3
        MOV     ?V0 + 6,A
        MOV     A,R7
        ADDC    A,#0x0
        MOV     ?V0 + 7,A
        MOV     A,#0x2
        MOV     R0,#?V0 + 6
        LCALL   ?US_SHR
        MOV     R6,?V0 + 6
        MOV     R7,?V0 + 7
//  753 
//  754   while ( len-- )
??calcChkF_0:
        MOV     A,R6
        MOV     R0,A
        MOV     A,R7
        MOV     R1,A
        MOV     A,R0
        ADD     A,#-0x1
        DEC     R6
        MOV     A,R1
        ADDC    A,#-0x1
        MOV     R7,A
        MOV     A,R0
        ORL     A,R1
        JZ      ??calcChkF_1
//  755   {
//  756     uint8 cnt, tmp[OSAL_NV_WORD_SIZE];
//  757 
//  758     HalFlashRead(pg, offset, tmp, OSAL_NV_WORD_SIZE);
        ; Setup parameters for call to function HalFlashRead
        MOV     ?V0 + 6,#0x4
        MOV     ?V0 + 7,#0x0
        MOV     R0,#?V0 + 6
        LCALL   ?PUSH_XSTACK_I_TWO
        CFI CFA_XSP16 add(XSP16, 22)
        MOV     A,#0x2
        LCALL   ?XSTACK_DISP0_8
        MOV     R4,DPL
        MOV     R5,DPH
        MOV     R2,?V0 + 2
        MOV     R3,?V0 + 3
        MOV     R1,?V0 + 4
        LCALL   ??HalFlashRead?relay
        MOV     A,#0x2
        LCALL   ?DEALLOC_XSTACK8
        CFI CFA_XSP16 add(XSP16, 20)
//  759     offset += OSAL_NV_WORD_SIZE;
        MOV     A,?V0 + 2
        ADD     A,#0x4
        MOV     ?V0 + 2,A
        MOV     A,?V0 + 3
        ADDC    A,#0x0
        MOV     ?V0 + 3,A
//  760 
//  761     for ( cnt = 0; cnt < OSAL_NV_WORD_SIZE; cnt++ )
        MOV     R0,#0x0
??calcChkF_2:
        MOV     A,R0
        CLR     C
        SUBB    A,#0x4
        JNC     ??calcChkF_0
//  762     {
//  763       chk += tmp[cnt];
        MOV     ?V0 + 6,R0
        MOV     DPL,?XSP + 0
        MOV     DPH,?XSP + 1
        MOV     A,DPL
        ADD     A,?V0 + 6
        MOV     DPL,A
        MOV     A,DPH
        ADDC    A,#0x0
        MOV     DPH,A
        MOVX    A,@DPTR
        MOV     R2,A
        MOV     A,?V0 + 0
        ADD     A,R2
        MOV     ?V0 + 0,A
        MOV     A,?V0 + 1
        ADDC    A,#0x0
        MOV     ?V0 + 1,A
//  764     }
        INC     R0
        SJMP    ??calcChkF_2
//  765   }
//  766 
//  767   return chk;
??calcChkF_1:
        MOV     R2,?V0 + 0
        MOV     R3,?V0 + 1
        MOV     A,#0x4
        LCALL   ?DEALLOC_XSTACK8
        CFI CFA_XSP16 add(XSP16, 16)
        MOV     R7,#0x8
        LJMP    ?BANKED_LEAVE_XDATA
        CFI EndBlock cfiBlock9
//  768 }
//  769 
//  770 /*********************************************************************
//  771  * @fn      writeWord
//  772  *
//  773  * @brief   Writes a Flash-WORD to NV.
//  774  *
//  775  * @param   pg - A valid NV Flash page.
//  776  * @param   offset - A valid offset into the page.
//  777  * @param   buf - Pointer to source buffer.
//  778  *
//  779  * @return  none
//  780  */

        RSEG BANKED_CODE:CODE:NOROOT(0)
//  781 static void writeWord( uint8 pg, uint16 offset, uint8 *buf )
writeWord:
        CFI Block cfiBlock10 Using cfiCommon0
        CFI Function writeWord
        CODE
//  782 {
        FUNCALL writeWord, HalAdcCheckVdd
        LOCFRAME ISTACK, 0, STACK
        LOCFRAME PSTACK, 0, STACK
        LOCFRAME XSTACK, 13, STACK
        LOCFRAME IOVERLAY, 0, STATIC
        LOCFRAME DOVERLAY, 0, STATIC
        ARGFRAME ISTACK, 0, STACK
        ARGFRAME PSTACK, 0, STACK
        ARGFRAME XSTACK, 13, STACK
        ARGFRAME IOVERLAY, 0, STATIC
        ARGFRAME DOVERLAY, 0, STATIC
        FUNCALL writeWord, HalFlashWrite
        LOCFRAME ISTACK, 0, STACK
        LOCFRAME PSTACK, 0, STACK
        LOCFRAME XSTACK, 15, STACK
        LOCFRAME IOVERLAY, 0, STATIC
        LOCFRAME DOVERLAY, 0, STATIC
        ARGFRAME ISTACK, 0, STACK
        ARGFRAME PSTACK, 0, STACK
        ARGFRAME XSTACK, 15, STACK
        ARGFRAME IOVERLAY, 0, STATIC
        ARGFRAME DOVERLAY, 0, STATIC
        MOV     A,#-0xd
        LCALL   ?BANKED_ENTER_XDATA
        CFI DPH0 load(1, XDATA, add(CFA_XSP16, literal(-1)))
        CFI DPL0 load(1, XDATA, add(CFA_XSP16, literal(-2)))
        CFI ?BRET_EXT load(1, XDATA, add(CFA_XSP16, literal(-3)))
        CFI ?RET_HIGH load(1, XDATA, add(CFA_XSP16, literal(-4)))
        CFI ?RET_LOW load(1, XDATA, add(CFA_XSP16, literal(-5)))
        CFI R7 load(1, XDATA, add(CFA_XSP16, literal(-6)))
        CFI V4 load(1, XDATA, add(CFA_XSP16, literal(-7)))
        CFI V3 load(1, XDATA, add(CFA_XSP16, literal(-8)))
        CFI V2 load(1, XDATA, add(CFA_XSP16, literal(-9)))
        CFI V1 load(1, XDATA, add(CFA_XSP16, literal(-10)))
        CFI V0 load(1, XDATA, add(CFA_XSP16, literal(-11)))
        CFI VB load(1, XDATA, add(CFA_XSP16, literal(-12)))
        CFI R6 load(1, XDATA, add(CFA_XSP16, literal(-13)))
        CFI CFA_SP SP+0
        CFI CFA_XSP16 add(XSP16, 13)
        ; Saved register size: 13
        ; Auto size: 0
        MOV     ?V0 + 4,R1
        MOV     ?V0 + 0,R2
        MOV     ?V0 + 1,R3
        MOV     A,R4
        MOV     R6,A
        MOV     A,R5
        MOV     R7,A
//  783   offset = (offset >> 2) + ((uint16)pg << 9);
//  784 
//  785   if ( OSAL_NV_CHECK_BUS_VOLTAGE )
        ; Setup parameters for call to function HalAdcCheckVdd
        MOV     R1,#0x4
        LCALL   ??HalAdcCheckVdd?relay
        MOV     A,R1
        JZ      ??writeWord_0
//  786   {
//  787     HalFlashWrite(offset, buf, 1);
        ; Setup parameters for call to function HalFlashWrite
        MOV     ?V0 + 2,#0x1
        MOV     ?V0 + 3,#0x0
        MOV     R0,#?V0 + 2
        LCALL   ?PUSH_XSTACK_I_TWO
        CFI CFA_XSP16 add(XSP16, 15)
        MOV     A,R6
        MOV     R4,A
        MOV     A,R7
        MOV     R5,A
        MOV     A,#0x2
        MOV     R0,#?V0 + 0
        LCALL   ?US_SHR
        MOV     ?V0 + 2,?V0 + 4
        MOV     A,#0x9
        MOV     R0,#?V0 + 2
        LCALL   ?S_SHL
        MOV     A,?V0 + 0
        ADD     A,#0x0
        MOV     R2,A
        MOV     A,?V0 + 1
        ADDC    A,?V0 + 3
        MOV     R3,A
        LCALL   ??HalFlashWrite?relay
        MOV     A,#0x2
        LCALL   ?DEALLOC_XSTACK8
        CFI CFA_XSP16 add(XSP16, 13)
        SJMP    ??writeWord_1
//  788   }
//  789   else
//  790   {
//  791     failF = TRUE;
??writeWord_0:
        MOV     DPTR,#failF
        MOV     A,#0x1
        MOVX    @DPTR,A
//  792   }
//  793 }
??writeWord_1:
        MOV     R7,#0x5
        LJMP    ?BANKED_LEAVE_XDATA
        CFI EndBlock cfiBlock10
//  794 
//  795 /*********************************************************************
//  796  * @fn      writeWordM
//  797  *
//  798  * @brief   Writes multiple Flash-WORDs to NV.
//  799  *
//  800  * @param   pg - A valid NV Flash page.
//  801  * @param   offset - A valid offset into the page.
//  802  * @param   buf - Pointer to source buffer.
//  803  * @param   cnt - Number of 4-byte blocks to write.
//  804  *
//  805  * @return  none
//  806  */

        RSEG BANKED_CODE:CODE:NOROOT(0)
//  807 static void writeWordM( uint8 pg, uint16 offset, uint8 *buf, uint16 cnt )
writeWordM:
        CFI Block cfiBlock11 Using cfiCommon0
        CFI Function writeWordM
        CODE
//  808 {
        FUNCALL writeWordM, HalAdcCheckVdd
        LOCFRAME ISTACK, 0, STACK
        LOCFRAME PSTACK, 0, STACK
        LOCFRAME XSTACK, 13, STACK
        LOCFRAME IOVERLAY, 0, STATIC
        LOCFRAME DOVERLAY, 0, STATIC
        ARGFRAME ISTACK, 0, STACK
        ARGFRAME PSTACK, 0, STACK
        ARGFRAME XSTACK, 13, STACK
        ARGFRAME IOVERLAY, 0, STATIC
        ARGFRAME DOVERLAY, 0, STATIC
        FUNCALL writeWordM, HalFlashWrite
        LOCFRAME ISTACK, 0, STACK
        LOCFRAME PSTACK, 0, STACK
        LOCFRAME XSTACK, 15, STACK
        LOCFRAME IOVERLAY, 0, STATIC
        LOCFRAME DOVERLAY, 0, STATIC
        ARGFRAME ISTACK, 0, STACK
        ARGFRAME PSTACK, 0, STACK
        ARGFRAME XSTACK, 15, STACK
        ARGFRAME IOVERLAY, 0, STATIC
        ARGFRAME DOVERLAY, 0, STATIC
        MOV     A,#-0xd
        LCALL   ?BANKED_ENTER_XDATA
        CFI DPH0 load(1, XDATA, add(CFA_XSP16, literal(-1)))
        CFI DPL0 load(1, XDATA, add(CFA_XSP16, literal(-2)))
        CFI ?BRET_EXT load(1, XDATA, add(CFA_XSP16, literal(-3)))
        CFI ?RET_HIGH load(1, XDATA, add(CFA_XSP16, literal(-4)))
        CFI ?RET_LOW load(1, XDATA, add(CFA_XSP16, literal(-5)))
        CFI R7 load(1, XDATA, add(CFA_XSP16, literal(-6)))
        CFI V4 load(1, XDATA, add(CFA_XSP16, literal(-7)))
        CFI V3 load(1, XDATA, add(CFA_XSP16, literal(-8)))
        CFI V2 load(1, XDATA, add(CFA_XSP16, literal(-9)))
        CFI V1 load(1, XDATA, add(CFA_XSP16, literal(-10)))
        CFI V0 load(1, XDATA, add(CFA_XSP16, literal(-11)))
        CFI VB load(1, XDATA, add(CFA_XSP16, literal(-12)))
        CFI R6 load(1, XDATA, add(CFA_XSP16, literal(-13)))
        CFI CFA_SP SP+0
        CFI CFA_XSP16 add(XSP16, 13)
        ; Saved register size: 13
        ; Auto size: 0
        MOV     ?V0 + 4,R1
        MOV     ?V0 + 0,R2
        MOV     ?V0 + 1,R3
        MOV     A,R4
        MOV     R6,A
        MOV     A,R5
        MOV     R7,A
        MOV     A,#0xd
        LCALL   ?XSTACK_DISP0_8
        MOVX    A,@DPTR
        MOV     ?V0 + 2,A
        INC     DPTR
        MOVX    A,@DPTR
        MOV     ?V0 + 3,A
//  809   offset = (offset >> 2) + ((uint16)pg << 9);
//  810 
//  811   if ( OSAL_NV_CHECK_BUS_VOLTAGE )
        ; Setup parameters for call to function HalAdcCheckVdd
        MOV     R1,#0x4
        LCALL   ??HalAdcCheckVdd?relay
        MOV     A,R1
        JZ      ??writeWordM_0
//  812   {
//  813     HalFlashWrite(offset, buf, cnt);
        ; Setup parameters for call to function HalFlashWrite
        MOV     R0,#?V0 + 2
        LCALL   ?PUSH_XSTACK_I_TWO
        CFI CFA_XSP16 add(XSP16, 15)
        MOV     A,R6
        MOV     R4,A
        MOV     A,R7
        MOV     R5,A
        MOV     A,#0x2
        MOV     R0,#?V0 + 0
        LCALL   ?US_SHR
        MOV     ?V0 + 2,?V0 + 4
        MOV     ?V0 + 3,A
        MOV     A,#0x9
        MOV     R0,#?V0 + 2
        LCALL   ?S_SHL
        MOV     A,?V0 + 0
        ADD     A,#0x0
        MOV     R2,A
        MOV     A,?V0 + 1
        ADDC    A,?V0 + 3
        MOV     R3,A
        LCALL   ??HalFlashWrite?relay
        MOV     A,#0x2
        LCALL   ?DEALLOC_XSTACK8
        CFI CFA_XSP16 add(XSP16, 13)
        SJMP    ??writeWordM_1
//  814   }
//  815   else
//  816   {
//  817     failF = TRUE;
??writeWordM_0:
        MOV     DPTR,#failF
        MOV     A,#0x1
        MOVX    @DPTR,A
//  818   }
//  819 }
??writeWordM_1:
        MOV     R7,#0x5
        LJMP    ?BANKED_LEAVE_XDATA
        CFI EndBlock cfiBlock11
//  820 
//  821 /*********************************************************************
//  822  * @fn      writeWordH
//  823  *
//  824  * @brief   Writes the 1st half of a Flash-WORD to NV (filling 2nd half with 0xffff).
//  825  *
//  826  * @param   pg - A valid NV Flash page.
//  827  * @param   offset - A valid offset into the page.
//  828  * @param   buf - Pointer to source buffer.
//  829  *
//  830  * @return  none
//  831  */

        RSEG BANKED_CODE:CODE:NOROOT(0)
//  832 static void writeWordH( uint8 pg, uint16 offset, uint8 *buf )
writeWordH:
        CFI Block cfiBlock12 Using cfiCommon0
        CFI Function writeWordH
        CODE
//  833 {
        FUNCALL writeWordH, writeWord
        LOCFRAME ISTACK, 0, STACK
        LOCFRAME PSTACK, 0, STACK
        LOCFRAME XSTACK, 13, STACK
        LOCFRAME IOVERLAY, 0, STATIC
        LOCFRAME DOVERLAY, 0, STATIC
        ARGFRAME ISTACK, 0, STACK
        ARGFRAME PSTACK, 0, STACK
        ARGFRAME XSTACK, 13, STACK
        ARGFRAME IOVERLAY, 0, STATIC
        ARGFRAME DOVERLAY, 0, STATIC
        MOV     A,#-0x9
        LCALL   ?BANKED_ENTER_XDATA
        CFI DPH0 load(1, XDATA, add(CFA_XSP16, literal(-1)))
        CFI DPL0 load(1, XDATA, add(CFA_XSP16, literal(-2)))
        CFI ?BRET_EXT load(1, XDATA, add(CFA_XSP16, literal(-3)))
        CFI ?RET_HIGH load(1, XDATA, add(CFA_XSP16, literal(-4)))
        CFI ?RET_LOW load(1, XDATA, add(CFA_XSP16, literal(-5)))
        CFI R7 load(1, XDATA, add(CFA_XSP16, literal(-6)))
        CFI V0 load(1, XDATA, add(CFA_XSP16, literal(-7)))
        CFI VB load(1, XDATA, add(CFA_XSP16, literal(-8)))
        CFI R6 load(1, XDATA, add(CFA_XSP16, literal(-9)))
        CFI CFA_SP SP+0
        CFI CFA_XSP16 add(XSP16, 9)
        ; Saved register size: 9
        ; Auto size: 4
        MOV     A,#-0x4
        LCALL   ?ALLOC_XSTACK8
        CFI CFA_XSP16 add(XSP16, 13)
//  834   uint8 tmp[4];
//  835 
//  836   tmp[0] = buf[0];
        MOV     DPL,R4
        MOV     DPH,R5
        MOVX    A,@DPTR
        MOV     DPL,?XSP + 0
        MOV     DPH,?XSP + 1
        MOVX    @DPTR,A
//  837   tmp[1] = buf[1];
        MOV     DPL,R4
        MOV     DPH,R5
        INC     DPTR
        MOVX    A,@DPTR
        PUSH    A
        CFI CFA_SP SP+-1
        MOV     A,#0x1
        LCALL   ?XSTACK_DISP0_8
        POP     A
        CFI CFA_SP SP+0
        MOVX    @DPTR,A
//  838   tmp[2] = OSAL_NV_ERASED;
        MOV     A,#0x2
        LCALL   ?XSTACK_DISP0_8
        MOV     A,#-0x1
        MOVX    @DPTR,A
//  839   tmp[3] = OSAL_NV_ERASED;
        MOV     A,#0x3
        LCALL   ?XSTACK_DISP0_8
        MOV     A,#-0x1
        MOVX    @DPTR,A
//  840 
//  841   writeWord( pg, offset, tmp );
        ; Setup parameters for call to function writeWord
        MOV     DPL,?XSP + 0
        MOV     DPH,?XSP + 1
        MOV     R4,DPL
        MOV     R5,DPH
        LCALL   ??writeWord?relay
//  842 }
        MOV     A,#0x4
        LCALL   ?DEALLOC_XSTACK8
        CFI CFA_XSP16 add(XSP16, 9)
        MOV     R7,#0x1
        LJMP    ?BANKED_LEAVE_XDATA
        CFI EndBlock cfiBlock12
//  843 
//  844 /*********************************************************************
//  845  * @fn      writeBuf
//  846  *
//  847  * @brief   Writes a data buffer to NV.
//  848  *
//  849  * @param   dstPg - A valid NV Flash page.
//  850  * @param   offset - A valid offset into the page.
//  851  * @param   len  - Byte count of the data to write.
//  852  * @param   buf  - The data to write.
//  853  *
//  854  * @return  TRUE if data buf checksum matches read back checksum, else FALSE.
//  855  */

        RSEG BANKED_CODE:CODE:NOROOT(0)
//  856 static void writeBuf( uint8 dstPg, uint16 dstOff, uint16 len, uint8 *buf )
writeBuf:
        CFI Block cfiBlock13 Using cfiCommon0
        CFI Function writeBuf
        CODE
//  857 {
        FUNCALL writeBuf, HalFlashRead
        LOCFRAME ISTACK, 0, STACK
        LOCFRAME PSTACK, 0, STACK
        LOCFRAME XSTACK, 22, STACK
        LOCFRAME IOVERLAY, 0, STATIC
        LOCFRAME DOVERLAY, 0, STATIC
        ARGFRAME ISTACK, 0, STACK
        ARGFRAME PSTACK, 0, STACK
        ARGFRAME XSTACK, 22, STACK
        ARGFRAME IOVERLAY, 0, STATIC
        ARGFRAME DOVERLAY, 0, STATIC
        FUNCALL writeBuf, writeWord
        LOCFRAME ISTACK, 0, STACK
        LOCFRAME PSTACK, 0, STACK
        LOCFRAME XSTACK, 20, STACK
        LOCFRAME IOVERLAY, 0, STATIC
        LOCFRAME DOVERLAY, 0, STATIC
        ARGFRAME ISTACK, 0, STACK
        ARGFRAME PSTACK, 0, STACK
        ARGFRAME XSTACK, 20, STACK
        ARGFRAME IOVERLAY, 0, STATIC
        ARGFRAME DOVERLAY, 0, STATIC
        FUNCALL writeBuf, writeWordM
        LOCFRAME ISTACK, 0, STACK
        LOCFRAME PSTACK, 0, STACK
        LOCFRAME XSTACK, 22, STACK
        LOCFRAME IOVERLAY, 0, STATIC
        LOCFRAME DOVERLAY, 0, STATIC
        ARGFRAME ISTACK, 0, STACK
        ARGFRAME PSTACK, 0, STACK
        ARGFRAME XSTACK, 22, STACK
        ARGFRAME IOVERLAY, 0, STATIC
        ARGFRAME DOVERLAY, 0, STATIC
        FUNCALL writeBuf, HalFlashRead
        LOCFRAME ISTACK, 0, STACK
        LOCFRAME PSTACK, 0, STACK
        LOCFRAME XSTACK, 22, STACK
        LOCFRAME IOVERLAY, 0, STATIC
        LOCFRAME DOVERLAY, 0, STATIC
        ARGFRAME ISTACK, 0, STACK
        ARGFRAME PSTACK, 0, STACK
        ARGFRAME XSTACK, 22, STACK
        ARGFRAME IOVERLAY, 0, STATIC
        ARGFRAME DOVERLAY, 0, STATIC
        FUNCALL writeBuf, writeWord
        LOCFRAME ISTACK, 0, STACK
        LOCFRAME PSTACK, 0, STACK
        LOCFRAME XSTACK, 20, STACK
        LOCFRAME IOVERLAY, 0, STATIC
        LOCFRAME DOVERLAY, 0, STATIC
        ARGFRAME ISTACK, 0, STACK
        ARGFRAME PSTACK, 0, STACK
        ARGFRAME XSTACK, 20, STACK
        ARGFRAME IOVERLAY, 0, STATIC
        ARGFRAME DOVERLAY, 0, STATIC
        MOV     A,#-0x10
        LCALL   ?BANKED_ENTER_XDATA
        CFI DPH0 load(1, XDATA, add(CFA_XSP16, literal(-1)))
        CFI DPL0 load(1, XDATA, add(CFA_XSP16, literal(-2)))
        CFI ?BRET_EXT load(1, XDATA, add(CFA_XSP16, literal(-3)))
        CFI ?RET_HIGH load(1, XDATA, add(CFA_XSP16, literal(-4)))
        CFI ?RET_LOW load(1, XDATA, add(CFA_XSP16, literal(-5)))
        CFI R7 load(1, XDATA, add(CFA_XSP16, literal(-6)))
        CFI V7 load(1, XDATA, add(CFA_XSP16, literal(-7)))
        CFI V6 load(1, XDATA, add(CFA_XSP16, literal(-8)))
        CFI V5 load(1, XDATA, add(CFA_XSP16, literal(-9)))
        CFI V4 load(1, XDATA, add(CFA_XSP16, literal(-10)))
        CFI V3 load(1, XDATA, add(CFA_XSP16, literal(-11)))
        CFI V2 load(1, XDATA, add(CFA_XSP16, literal(-12)))
        CFI V1 load(1, XDATA, add(CFA_XSP16, literal(-13)))
        CFI V0 load(1, XDATA, add(CFA_XSP16, literal(-14)))
        CFI VB load(1, XDATA, add(CFA_XSP16, literal(-15)))
        CFI R6 load(1, XDATA, add(CFA_XSP16, literal(-16)))
        CFI CFA_SP SP+0
        CFI CFA_XSP16 add(XSP16, 16)
        ; Saved register size: 16
        ; Auto size: 4
        MOV     A,#-0x4
        LCALL   ?ALLOC_XSTACK8
        CFI CFA_XSP16 add(XSP16, 20)
        MOV     ?V0 + 1,R1
        MOV     A,R2
        MOV     R6,A
        MOV     A,R3
        MOV     R7,A
        MOV     ?V0 + 4,R4
        MOV     ?V0 + 5,R5
        MOV     A,#0x14
        LCALL   ?XSTACK_DISP0_8
        MOVX    A,@DPTR
        MOV     ?V0 + 2,A
        INC     DPTR
        MOVX    A,@DPTR
        MOV     ?V0 + 3,A
//  858   uint8 rem = dstOff % OSAL_NV_WORD_SIZE;
        MOV     A,R6
        ANL     A,#0x3
        MOV     ?V0 + 0,A
//  859   uint8 tmp[OSAL_NV_WORD_SIZE];
//  860 
//  861   if ( rem )
        JNZ     $+5
        LJMP    ??writeBuf_0 & 0xFFFF
//  862   {
//  863     dstOff = (dstOff / OSAL_NV_WORD_SIZE) * OSAL_NV_WORD_SIZE;
        MOV     A,#-0x4
        ANL     A,R6
        MOV     R6,A
//  864     HalFlashRead(dstPg, dstOff, tmp, OSAL_NV_WORD_SIZE);
        ; Setup parameters for call to function HalFlashRead
        MOV     ?V0 + 6,#0x4
        MOV     ?V0 + 7,#0x0
        MOV     R0,#?V0 + 6
        LCALL   ?PUSH_XSTACK_I_TWO
        CFI CFA_XSP16 add(XSP16, 22)
        MOV     A,#0x2
        LCALL   ?XSTACK_DISP0_8
        MOV     R4,DPL
        MOV     R5,DPH
        MOV     A,R6
        MOV     R2,A
        LCALL   ??HalFlashRead?relay
        MOV     A,#0x2
        LCALL   ?DEALLOC_XSTACK8
        CFI CFA_XSP16 add(XSP16, 20)
        SJMP    ??writeBuf_1
//  865 
//  866     while ( (rem < OSAL_NV_WORD_SIZE) && len )
//  867     {
//  868       tmp[rem++] = *buf++;
??writeBuf_2:
        MOV     DPL,?V0 + 2
        MOV     DPH,?V0 + 3
        MOVX    A,@DPTR
        PUSH    A
        CFI CFA_SP SP+-1
        MOV     ?V0 + 6,?V0 + 0
        MOV     DPL,?XSP + 0
        MOV     DPH,?XSP + 1
        MOV     A,DPL
        ADD     A,?V0 + 6
        MOV     DPL,A
        MOV     A,DPH
        ADDC    A,#0x0
        MOV     DPH,A
        POP     A
        CFI CFA_SP SP+0
        MOVX    @DPTR,A
        MOV     DPL,?V0 + 2
        MOV     DPH,?V0 + 3
        INC     DPTR
        MOV     ?V0 + 2,DPL
        MOV     ?V0 + 3,DPH
        INC     ?V0 + 0
//  869       len--;
        MOV     A,?V0 + 4
        ADD     A,#-0x1
        MOV     ?V0 + 4,A
        MOV     A,?V0 + 5
        ADDC    A,#-0x1
        MOV     ?V0 + 5,A
//  870     }
??writeBuf_1:
        MOV     A,?V0 + 0
        CLR     C
        SUBB    A,#0x4
        JNC     ??writeBuf_3
        MOV     A,?V0 + 4
        ORL     A,?V0 + 5
        JNZ     ??writeBuf_2
//  871 
//  872     writeWord( dstPg, dstOff, tmp );
??writeBuf_3:
        ; Setup parameters for call to function writeWord
        MOV     DPL,?XSP + 0
        MOV     DPH,?XSP + 1
        MOV     R4,DPL
        MOV     R5,DPH
        MOV     A,R6
        MOV     R2,A
        MOV     A,R7
        MOV     R3,A
        MOV     R1,?V0 + 1
        LCALL   ??writeWord?relay
//  873     dstOff += OSAL_NV_WORD_SIZE;
        MOV     A,R6
        ADD     A,#0x4
        MOV     R6,A
        MOV     A,R7
        ADDC    A,#0x0
        MOV     R7,A
//  874   }
//  875 
//  876   rem = len % OSAL_NV_WORD_SIZE;
??writeBuf_0:
        MOV     A,?V0 + 4
        ANL     A,#0x3
        MOV     ?V0 + 0,A
//  877   len /= OSAL_NV_WORD_SIZE;
        MOV     ?V0 + 6,?V0 + 4
        MOV     ?V0 + 7,?V0 + 5
        MOV     A,#0x2
        MOV     R0,#?V0 + 6
        LCALL   ?US_SHR
        MOV     ?V0 + 4,?V0 + 6
        MOV     ?V0 + 5,?V0 + 7
//  878 
//  879   if ( len )
        MOV     A,?V0 + 4
        ORL     A,?V0 + 5
        JZ      ??writeBuf_4
//  880   {
//  881     writeWordM( dstPg, dstOff, buf, len );
        ; Setup parameters for call to function writeWordM
        MOV     R0,#?V0 + 4
        LCALL   ?PUSH_XSTACK_I_TWO
        CFI CFA_XSP16 add(XSP16, 22)
        MOV     R4,?V0 + 2
        MOV     R5,?V0 + 3
        MOV     A,R6
        MOV     R2,A
        MOV     A,R7
        MOV     R3,A
        MOV     R1,?V0 + 1
        LCALL   ??writeWordM?relay
        MOV     A,#0x2
        LCALL   ?DEALLOC_XSTACK8
        CFI CFA_XSP16 add(XSP16, 20)
//  882     dstOff += OSAL_NV_WORD_SIZE * len;
        MOV     A,#0x2
        MOV     R0,#?V0 + 4
        LCALL   ?S_SHL
        MOV     R0,?V0 + 4
        MOV     R1,?V0 + 5
        MOV     A,R6
        ADD     A,R0
        MOV     R6,A
        MOV     A,R7
        ADDC    A,R1
        MOV     R7,A
//  883     buf += OSAL_NV_WORD_SIZE * len;
        MOV     A,?V0 + 2
        ADD     A,R0
        MOV     ?V0 + 2,A
        MOV     A,?V0 + 3
        ADDC    A,R1
        MOV     ?V0 + 3,A
//  884   }
//  885 
//  886   if ( rem )
??writeBuf_4:
        MOV     A,?V0 + 0
        JZ      ??writeBuf_5
//  887   {
//  888     uint8 idx = 0;
        MOV     ?V0 + 6,#0x0
//  889     HalFlashRead(dstPg, dstOff, tmp, OSAL_NV_WORD_SIZE);
        ; Setup parameters for call to function HalFlashRead
        MOV     ?V0 + 4,#0x4
        MOV     ?V0 + 5,#0x0
        MOV     R0,#?V0 + 4
        LCALL   ?PUSH_XSTACK_I_TWO
        CFI CFA_XSP16 add(XSP16, 22)
        MOV     A,#0x2
        LCALL   ?XSTACK_DISP0_8
        MOV     R4,DPL
        MOV     R5,DPH
        MOV     A,R6
        MOV     R2,A
        MOV     A,R7
        MOV     R3,A
        MOV     R1,?V0 + 1
        LCALL   ??HalFlashRead?relay
        MOV     A,#0x2
        LCALL   ?DEALLOC_XSTACK8
        CFI CFA_XSP16 add(XSP16, 20)
        SJMP    ??writeBuf_6
//  890     while ( rem-- )
//  891     {
//  892       tmp[idx++] = *buf++;
??writeBuf_7:
        MOV     DPL,?V0 + 2
        MOV     DPH,?V0 + 3
        MOVX    A,@DPTR
        PUSH    A
        CFI CFA_SP SP+-1
        MOV     ?V0 + 4,?V0 + 6
        MOV     DPL,?XSP + 0
        MOV     DPH,?XSP + 1
        MOV     A,DPL
        ADD     A,?V0 + 4
        MOV     DPL,A
        MOV     A,DPH
        ADDC    A,#0x0
        MOV     DPH,A
        POP     A
        CFI CFA_SP SP+0
        MOVX    @DPTR,A
        MOV     DPL,?V0 + 2
        MOV     DPH,?V0 + 3
        INC     DPTR
        MOV     ?V0 + 2,DPL
        MOV     ?V0 + 3,DPH
        INC     ?V0 + 6
//  893     }
??writeBuf_6:
        MOV     ?V0 + 4,?V0 + 0
        MOV     A,#-0x1
        ADD     A,?V0 + 4
        MOV     ?V0 + 0,A
        INC     A
        JNZ     ??writeBuf_7
//  894     writeWord( dstPg, dstOff, tmp );
        ; Setup parameters for call to function writeWord
        MOV     DPL,?XSP + 0
        MOV     DPH,?XSP + 1
        MOV     R4,DPL
        MOV     R5,DPH
        MOV     A,R6
        MOV     R2,A
        MOV     A,R7
        MOV     R3,A
        MOV     R1,?V0 + 1
        LCALL   ??writeWord?relay
//  895   }
//  896 }
??writeBuf_5:
        MOV     A,#0x4
        LCALL   ?DEALLOC_XSTACK8
        CFI CFA_XSP16 add(XSP16, 16)
        MOV     R7,#0x8
        LJMP    ?BANKED_LEAVE_XDATA
        CFI EndBlock cfiBlock13
//  897 
//  898 /*********************************************************************
//  899  * @fn      xferBuf
//  900  *
//  901  * @brief   Xfers an NV buffer from one location to another, enforcing OSAL_NV_WORD_SIZE writes.
//  902  *
//  903  * @return  none
//  904  */

        RSEG BANKED_CODE:CODE:NOROOT(0)
//  905 static void xferBuf( uint8 srcPg, uint16 srcOff, uint8 dstPg, uint16 dstOff, uint16 len )
xferBuf:
        CFI Block cfiBlock14 Using cfiCommon0
        CFI Function xferBuf
        CODE
//  906 {
        FUNCALL xferBuf, HalFlashRead
        LOCFRAME ISTACK, 0, STACK
        LOCFRAME PSTACK, 0, STACK
        LOCFRAME XSTACK, 24, STACK
        LOCFRAME IOVERLAY, 0, STATIC
        LOCFRAME DOVERLAY, 0, STATIC
        ARGFRAME ISTACK, 0, STACK
        ARGFRAME PSTACK, 0, STACK
        ARGFRAME XSTACK, 24, STACK
        ARGFRAME IOVERLAY, 0, STATIC
        ARGFRAME DOVERLAY, 0, STATIC
        FUNCALL xferBuf, HalFlashRead
        LOCFRAME ISTACK, 0, STACK
        LOCFRAME PSTACK, 0, STACK
        LOCFRAME XSTACK, 24, STACK
        LOCFRAME IOVERLAY, 0, STATIC
        LOCFRAME DOVERLAY, 0, STATIC
        ARGFRAME ISTACK, 0, STACK
        ARGFRAME PSTACK, 0, STACK
        ARGFRAME XSTACK, 24, STACK
        ARGFRAME IOVERLAY, 0, STATIC
        ARGFRAME DOVERLAY, 0, STATIC
        FUNCALL xferBuf, writeWord
        LOCFRAME ISTACK, 0, STACK
        LOCFRAME PSTACK, 0, STACK
        LOCFRAME XSTACK, 22, STACK
        LOCFRAME IOVERLAY, 0, STATIC
        LOCFRAME DOVERLAY, 0, STATIC
        ARGFRAME ISTACK, 0, STACK
        ARGFRAME PSTACK, 0, STACK
        ARGFRAME XSTACK, 22, STACK
        ARGFRAME IOVERLAY, 0, STATIC
        ARGFRAME DOVERLAY, 0, STATIC
        FUNCALL xferBuf, HalFlashRead
        LOCFRAME ISTACK, 0, STACK
        LOCFRAME PSTACK, 0, STACK
        LOCFRAME XSTACK, 24, STACK
        LOCFRAME IOVERLAY, 0, STATIC
        LOCFRAME DOVERLAY, 0, STATIC
        ARGFRAME ISTACK, 0, STACK
        ARGFRAME PSTACK, 0, STACK
        ARGFRAME XSTACK, 24, STACK
        ARGFRAME IOVERLAY, 0, STATIC
        ARGFRAME DOVERLAY, 0, STATIC
        FUNCALL xferBuf, writeWord
        LOCFRAME ISTACK, 0, STACK
        LOCFRAME PSTACK, 0, STACK
        LOCFRAME XSTACK, 22, STACK
        LOCFRAME IOVERLAY, 0, STATIC
        LOCFRAME DOVERLAY, 0, STATIC
        ARGFRAME ISTACK, 0, STACK
        ARGFRAME PSTACK, 0, STACK
        ARGFRAME XSTACK, 22, STACK
        ARGFRAME IOVERLAY, 0, STATIC
        ARGFRAME DOVERLAY, 0, STATIC
        FUNCALL xferBuf, HalFlashRead
        LOCFRAME ISTACK, 0, STACK
        LOCFRAME PSTACK, 0, STACK
        LOCFRAME XSTACK, 24, STACK
        LOCFRAME IOVERLAY, 0, STATIC
        LOCFRAME DOVERLAY, 0, STATIC
        ARGFRAME ISTACK, 0, STACK
        ARGFRAME PSTACK, 0, STACK
        ARGFRAME XSTACK, 24, STACK
        ARGFRAME IOVERLAY, 0, STATIC
        ARGFRAME DOVERLAY, 0, STATIC
        FUNCALL xferBuf, HalFlashRead
        LOCFRAME ISTACK, 0, STACK
        LOCFRAME PSTACK, 0, STACK
        LOCFRAME XSTACK, 24, STACK
        LOCFRAME IOVERLAY, 0, STATIC
        LOCFRAME DOVERLAY, 0, STATIC
        ARGFRAME ISTACK, 0, STACK
        ARGFRAME PSTACK, 0, STACK
        ARGFRAME XSTACK, 24, STACK
        ARGFRAME IOVERLAY, 0, STATIC
        ARGFRAME DOVERLAY, 0, STATIC
        FUNCALL xferBuf, writeWord
        LOCFRAME ISTACK, 0, STACK
        LOCFRAME PSTACK, 0, STACK
        LOCFRAME XSTACK, 22, STACK
        LOCFRAME IOVERLAY, 0, STATIC
        LOCFRAME DOVERLAY, 0, STATIC
        ARGFRAME ISTACK, 0, STACK
        ARGFRAME PSTACK, 0, STACK
        ARGFRAME XSTACK, 22, STACK
        ARGFRAME IOVERLAY, 0, STATIC
        ARGFRAME DOVERLAY, 0, STATIC
        MOV     A,#-0x12
        LCALL   ?BANKED_ENTER_XDATA
        CFI DPH0 load(1, XDATA, add(CFA_XSP16, literal(-1)))
        CFI DPL0 load(1, XDATA, add(CFA_XSP16, literal(-2)))
        CFI ?BRET_EXT load(1, XDATA, add(CFA_XSP16, literal(-3)))
        CFI ?RET_HIGH load(1, XDATA, add(CFA_XSP16, literal(-4)))
        CFI ?RET_LOW load(1, XDATA, add(CFA_XSP16, literal(-5)))
        CFI R7 load(1, XDATA, add(CFA_XSP16, literal(-6)))
        CFI V9 load(1, XDATA, add(CFA_XSP16, literal(-7)))
        CFI V8 load(1, XDATA, add(CFA_XSP16, literal(-8)))
        CFI V7 load(1, XDATA, add(CFA_XSP16, literal(-9)))
        CFI V6 load(1, XDATA, add(CFA_XSP16, literal(-10)))
        CFI V5 load(1, XDATA, add(CFA_XSP16, literal(-11)))
        CFI V4 load(1, XDATA, add(CFA_XSP16, literal(-12)))
        CFI V3 load(1, XDATA, add(CFA_XSP16, literal(-13)))
        CFI V2 load(1, XDATA, add(CFA_XSP16, literal(-14)))
        CFI V1 load(1, XDATA, add(CFA_XSP16, literal(-15)))
        CFI V0 load(1, XDATA, add(CFA_XSP16, literal(-16)))
        CFI VB load(1, XDATA, add(CFA_XSP16, literal(-17)))
        CFI R6 load(1, XDATA, add(CFA_XSP16, literal(-18)))
        CFI CFA_SP SP+0
        CFI CFA_XSP16 add(XSP16, 18)
        ; Saved register size: 18
        ; Auto size: 4
        MOV     A,#-0x4
        LCALL   ?ALLOC_XSTACK8
        CFI CFA_XSP16 add(XSP16, 22)
        MOV     ?V0 + 6,R1
        MOV     ?V0 + 4,R2
        MOV     ?V0 + 5,R3
        MOV     ?V0 + 3,R4
        MOV     A,#0x16
        LCALL   ?XSTACK_DISP0_8
        MOVX    A,@DPTR
        MOV     ?V0 + 0,A
        INC     DPTR
        MOVX    A,@DPTR
        MOV     ?V0 + 1,A
        MOV     A,#0x18
        LCALL   ?XSTACK_DISP0_8
        MOVX    A,@DPTR
        MOV     R6,A
        INC     DPTR
        MOVX    A,@DPTR
        MOV     R7,A
//  907   uint8 rem = dstOff % OSAL_NV_WORD_SIZE;
        MOV     A,?V0 + 0
        ANL     A,#0x3
        MOV     ?V0 + 2,A
//  908   uint8 tmp[OSAL_NV_WORD_SIZE];
//  909 
//  910   if ( rem )
        JNZ     $+5
        LJMP    ??xferBuf_0 & 0xFFFF
//  911   {
//  912     dstOff -= rem;
        MOV     ?V0 + 8,A
        CLR     C
        MOV     A,?V0 + 0
        SUBB    A,?V0 + 8
        MOV     ?V0 + 0,A
        MOV     A,?V0 + 1
        SUBB    A,#0x0
        MOV     ?V0 + 1,A
//  913     HalFlashRead(dstPg, dstOff, tmp, OSAL_NV_WORD_SIZE);
        ; Setup parameters for call to function HalFlashRead
        MOV     ?V0 + 8,#0x4
        MOV     ?V0 + 9,#0x0
        MOV     R0,#?V0 + 8
        LCALL   ?PUSH_XSTACK_I_TWO
        CFI CFA_XSP16 add(XSP16, 24)
        MOV     A,#0x2
        LCALL   ?XSTACK_DISP0_8
        MOV     R4,DPL
        MOV     R5,DPH
        MOV     R2,?V0 + 0
        MOV     R3,?V0 + 1
        MOV     R1,?V0 + 3
        LCALL   ??HalFlashRead?relay
        MOV     A,#0x2
        LCALL   ?DEALLOC_XSTACK8
        CFI CFA_XSP16 add(XSP16, 22)
        SJMP    ??xferBuf_1
//  914 
//  915     while ( (rem < OSAL_NV_WORD_SIZE) && len )
//  916     {
//  917       HalFlashRead(srcPg, srcOff, tmp+rem, 1);
??xferBuf_2:
        ; Setup parameters for call to function HalFlashRead
        MOV     ?V0 + 8,#0x1
        MOV     R0,#?V0 + 8
        LCALL   ?PUSH_XSTACK_I_TWO
        CFI CFA_XSP16 add(XSP16, 24)
        MOV     ?V0 + 8,?V0 + 2
        MOV     A,#0x2
        LCALL   ?XSTACK_DISP0_8
        MOV     A,DPL
        ADD     A,?V0 + 8
        MOV     R4,A
        MOV     A,DPH
        ADDC    A,#0x0
        MOV     R5,A
        MOV     R2,?V0 + 4
        MOV     R3,?V0 + 5
        MOV     R1,?V0 + 6
        LCALL   ??HalFlashRead?relay
        MOV     A,#0x2
        LCALL   ?DEALLOC_XSTACK8
        CFI CFA_XSP16 add(XSP16, 22)
//  918       srcOff++;
        MOV     A,?V0 + 4
        ADD     A,#0x1
        MOV     ?V0 + 4,A
        MOV     A,?V0 + 5
        ADDC    A,#0x0
        MOV     ?V0 + 5,A
//  919       rem++;
        INC     ?V0 + 2
//  920       len--;
        MOV     A,R6
        ADD     A,#-0x1
        DEC     R6
        MOV     A,R7
        ADDC    A,#-0x1
        MOV     R7,A
//  921     }
??xferBuf_1:
        MOV     A,?V0 + 2
        CLR     C
        SUBB    A,#0x4
        JNC     ??xferBuf_3
        MOV     A,R6
        ORL     A,R7
        JNZ     ??xferBuf_2
//  922 
//  923     writeWord( dstPg, dstOff, tmp );
??xferBuf_3:
        ; Setup parameters for call to function writeWord
        MOV     DPL,?XSP + 0
        MOV     DPH,?XSP + 1
        MOV     R4,DPL
        MOV     R5,DPH
        MOV     R2,?V0 + 0
        MOV     R3,?V0 + 1
        MOV     R1,?V0 + 3
        LCALL   ??writeWord?relay
//  924     dstOff += OSAL_NV_WORD_SIZE;
        MOV     A,?V0 + 0
        ADD     A,#0x4
        MOV     ?V0 + 0,A
        MOV     A,?V0 + 1
        ADDC    A,#0x0
        MOV     ?V0 + 1,A
//  925   }
//  926 
//  927   rem = len % OSAL_NV_WORD_SIZE;
??xferBuf_0:
        MOV     A,R6
        ANL     A,#0x3
        MOV     ?V0 + 2,A
//  928   len /= OSAL_NV_WORD_SIZE;
        MOV     ?V0 + 8,R6
        MOV     ?V0 + 9,R7
        MOV     A,#0x2
        MOV     R0,#?V0 + 8
        LCALL   ?US_SHR
        MOV     R6,?V0 + 8
        MOV     R7,?V0 + 9
        SJMP    ??xferBuf_4
//  929 
//  930   while ( len-- )
//  931   {
//  932     HalFlashRead(srcPg, srcOff, tmp, OSAL_NV_WORD_SIZE);
??xferBuf_5:
        ; Setup parameters for call to function HalFlashRead
        MOV     ?V0 + 8,#0x4
        MOV     ?V0 + 9,#0x0
        MOV     R0,#?V0 + 8
        LCALL   ?PUSH_XSTACK_I_TWO
        CFI CFA_XSP16 add(XSP16, 24)
        MOV     A,#0x2
        LCALL   ?XSTACK_DISP0_8
        MOV     R4,DPL
        MOV     R5,DPH
        MOV     R2,?V0 + 4
        MOV     R3,?V0 + 5
        MOV     R1,?V0 + 6
        LCALL   ??HalFlashRead?relay
        MOV     A,#0x2
        LCALL   ?DEALLOC_XSTACK8
        CFI CFA_XSP16 add(XSP16, 22)
//  933     srcOff += OSAL_NV_WORD_SIZE;
        MOV     A,?V0 + 4
        ADD     A,#0x4
        MOV     ?V0 + 4,A
        MOV     A,?V0 + 5
        ADDC    A,#0x0
        MOV     ?V0 + 5,A
//  934     writeWord( dstPg, dstOff, tmp );
        ; Setup parameters for call to function writeWord
        MOV     DPL,?XSP + 0
        MOV     DPH,?XSP + 1
        MOV     R4,DPL
        MOV     R5,DPH
        MOV     R2,?V0 + 0
        MOV     R3,?V0 + 1
        MOV     R1,?V0 + 3
        LCALL   ??writeWord?relay
//  935     dstOff += OSAL_NV_WORD_SIZE;
        MOV     A,?V0 + 0
        ADD     A,#0x4
        MOV     ?V0 + 0,A
        MOV     A,?V0 + 1
        ADDC    A,#0x0
        MOV     ?V0 + 1,A
//  936   }
??xferBuf_4:
        MOV     A,R6
        MOV     R0,A
        MOV     A,R7
        MOV     R1,A
        MOV     A,R0
        ADD     A,#-0x1
        DEC     R6
        MOV     A,R1
        ADDC    A,#-0x1
        MOV     R7,A
        MOV     A,R0
        ORL     A,R1
        JNZ     ??xferBuf_5
//  937 
//  938   if ( rem )
        MOV     A,?V0 + 2
        JZ      ??xferBuf_6
//  939   {
//  940     uint8 idx = 0;
        MOV     R6,#0x0
//  941     HalFlashRead(dstPg, dstOff, tmp, OSAL_NV_WORD_SIZE);
        ; Setup parameters for call to function HalFlashRead
        MOV     ?V0 + 8,#0x4
        MOV     ?V0 + 9,R6
        MOV     R0,#?V0 + 8
        LCALL   ?PUSH_XSTACK_I_TWO
        CFI CFA_XSP16 add(XSP16, 24)
        MOV     A,#0x2
        LCALL   ?XSTACK_DISP0_8
        MOV     R4,DPL
        MOV     R5,DPH
        MOV     R2,?V0 + 0
        MOV     R3,?V0 + 1
        MOV     R1,?V0 + 3
        LCALL   ??HalFlashRead?relay
        MOV     A,#0x2
        LCALL   ?DEALLOC_XSTACK8
        CFI CFA_XSP16 add(XSP16, 22)
        SJMP    ??xferBuf_7
//  942     while ( rem-- )
//  943     {
//  944       HalFlashRead(srcPg, srcOff, tmp+idx, 1);
??xferBuf_8:
        ; Setup parameters for call to function HalFlashRead
        MOV     ?V0 + 8,#0x1
        MOV     R0,#?V0 + 8
        LCALL   ?PUSH_XSTACK_I_TWO
        CFI CFA_XSP16 add(XSP16, 24)
        MOV     ?V0 + 8,R6
        MOV     A,#0x2
        LCALL   ?XSTACK_DISP0_8
        MOV     A,DPL
        ADD     A,?V0 + 8
        MOV     R4,A
        MOV     A,DPH
        ADDC    A,#0x0
        MOV     R5,A
        MOV     R2,?V0 + 4
        MOV     R3,?V0 + 5
        MOV     R1,?V0 + 6
        LCALL   ??HalFlashRead?relay
        MOV     A,#0x2
        LCALL   ?DEALLOC_XSTACK8
        CFI CFA_XSP16 add(XSP16, 22)
//  945       srcOff++;
        MOV     A,?V0 + 4
        ADD     A,#0x1
        MOV     ?V0 + 4,A
        MOV     A,?V0 + 5
        ADDC    A,#0x0
        MOV     ?V0 + 5,A
//  946       idx++;
        INC     R6
//  947     }
??xferBuf_7:
        MOV     R7,?V0 + 2
        MOV     A,#-0x1
        ADD     A,R7
        MOV     ?V0 + 2,A
        INC     A
        JNZ     ??xferBuf_8
//  948     writeWord( dstPg, dstOff, tmp );
        ; Setup parameters for call to function writeWord
        MOV     DPL,?XSP + 0
        MOV     DPH,?XSP + 1
        MOV     R4,DPL
        MOV     R5,DPH
        MOV     R2,?V0 + 0
        MOV     R3,?V0 + 1
        MOV     R1,?V0 + 3
        LCALL   ??writeWord?relay
//  949   }
//  950 }
??xferBuf_6:
        MOV     A,#0x4
        LCALL   ?DEALLOC_XSTACK8
        CFI CFA_XSP16 add(XSP16, 18)
        MOV     R7,#0xa
        LJMP    ?BANKED_LEAVE_XDATA
        CFI EndBlock cfiBlock14
//  951 
//  952 /*********************************************************************
//  953  * @fn      writeItem
//  954  *
//  955  * @brief   Writes an item header/data combo to the specified NV page.
//  956  *
//  957  * @param   pg - Valid NV Flash page.
//  958  * @param   id - Valid NV item Id.
//  959  * @param   len  - Byte count of the data to write.
//  960  * @param   buf  - The data to write. If NULL, no data/checksum write.
//  961  * @param   flag - TRUE if the checksum should be written, FALSE otherwise.
//  962  *
//  963  * @return  TRUE if header/data to write matches header/data read back, else FALSE.
//  964  */

        RSEG BANKED_CODE:CODE:NOROOT(0)
//  965 static uint8 writeItem( uint8 pg, uint16 id, uint16 len, void *buf, uint8 flag )
writeItem:
        CFI Block cfiBlock15 Using cfiCommon0
        CFI Function writeItem
        CODE
//  966 {
        FUNCALL writeItem, setPageUse
        LOCFRAME ISTACK, 0, STACK
        LOCFRAME PSTACK, 0, STACK
        LOCFRAME XSTACK, 32, STACK
        LOCFRAME IOVERLAY, 0, STATIC
        LOCFRAME DOVERLAY, 0, STATIC
        ARGFRAME ISTACK, 0, STACK
        ARGFRAME PSTACK, 0, STACK
        ARGFRAME XSTACK, 32, STACK
        ARGFRAME IOVERLAY, 0, STATIC
        ARGFRAME DOVERLAY, 0, STATIC
        FUNCALL writeItem, writeWord
        LOCFRAME ISTACK, 0, STACK
        LOCFRAME PSTACK, 0, STACK
        LOCFRAME XSTACK, 32, STACK
        LOCFRAME IOVERLAY, 0, STATIC
        LOCFRAME DOVERLAY, 0, STATIC
        ARGFRAME ISTACK, 0, STACK
        ARGFRAME PSTACK, 0, STACK
        ARGFRAME XSTACK, 32, STACK
        ARGFRAME IOVERLAY, 0, STATIC
        ARGFRAME DOVERLAY, 0, STATIC
        FUNCALL writeItem, HalFlashRead
        LOCFRAME ISTACK, 0, STACK
        LOCFRAME PSTACK, 0, STACK
        LOCFRAME XSTACK, 34, STACK
        LOCFRAME IOVERLAY, 0, STATIC
        LOCFRAME DOVERLAY, 0, STATIC
        ARGFRAME ISTACK, 0, STACK
        ARGFRAME PSTACK, 0, STACK
        ARGFRAME XSTACK, 34, STACK
        ARGFRAME IOVERLAY, 0, STATIC
        ARGFRAME DOVERLAY, 0, STATIC
        FUNCALL writeItem, calcChkB
        LOCFRAME ISTACK, 0, STACK
        LOCFRAME PSTACK, 0, STACK
        LOCFRAME XSTACK, 32, STACK
        LOCFRAME IOVERLAY, 0, STATIC
        LOCFRAME DOVERLAY, 0, STATIC
        ARGFRAME ISTACK, 0, STACK
        ARGFRAME PSTACK, 0, STACK
        ARGFRAME XSTACK, 32, STACK
        ARGFRAME IOVERLAY, 0, STATIC
        ARGFRAME DOVERLAY, 0, STATIC
        FUNCALL writeItem, writeBuf
        LOCFRAME ISTACK, 0, STACK
        LOCFRAME PSTACK, 0, STACK
        LOCFRAME XSTACK, 34, STACK
        LOCFRAME IOVERLAY, 0, STATIC
        LOCFRAME DOVERLAY, 0, STATIC
        ARGFRAME ISTACK, 0, STACK
        ARGFRAME PSTACK, 0, STACK
        ARGFRAME XSTACK, 34, STACK
        ARGFRAME IOVERLAY, 0, STATIC
        ARGFRAME DOVERLAY, 0, STATIC
        FUNCALL writeItem, calcChkF
        LOCFRAME ISTACK, 0, STACK
        LOCFRAME PSTACK, 0, STACK
        LOCFRAME XSTACK, 32, STACK
        LOCFRAME IOVERLAY, 0, STATIC
        LOCFRAME DOVERLAY, 0, STATIC
        ARGFRAME ISTACK, 0, STACK
        ARGFRAME PSTACK, 0, STACK
        ARGFRAME XSTACK, 32, STACK
        ARGFRAME IOVERLAY, 0, STATIC
        ARGFRAME DOVERLAY, 0, STATIC
        FUNCALL writeItem, writeWordH
        LOCFRAME ISTACK, 0, STACK
        LOCFRAME PSTACK, 0, STACK
        LOCFRAME XSTACK, 32, STACK
        LOCFRAME IOVERLAY, 0, STATIC
        LOCFRAME DOVERLAY, 0, STATIC
        ARGFRAME ISTACK, 0, STACK
        ARGFRAME PSTACK, 0, STACK
        ARGFRAME XSTACK, 32, STACK
        ARGFRAME IOVERLAY, 0, STATIC
        ARGFRAME DOVERLAY, 0, STATIC
        FUNCALL writeItem, HalFlashRead
        LOCFRAME ISTACK, 0, STACK
        LOCFRAME PSTACK, 0, STACK
        LOCFRAME XSTACK, 34, STACK
        LOCFRAME IOVERLAY, 0, STATIC
        LOCFRAME DOVERLAY, 0, STATIC
        ARGFRAME ISTACK, 0, STACK
        ARGFRAME PSTACK, 0, STACK
        ARGFRAME XSTACK, 34, STACK
        ARGFRAME IOVERLAY, 0, STATIC
        ARGFRAME DOVERLAY, 0, STATIC
        MOV     A,#-0x16
        LCALL   ?BANKED_ENTER_XDATA
        CFI DPH0 load(1, XDATA, add(CFA_XSP16, literal(-1)))
        CFI DPL0 load(1, XDATA, add(CFA_XSP16, literal(-2)))
        CFI ?BRET_EXT load(1, XDATA, add(CFA_XSP16, literal(-3)))
        CFI ?RET_HIGH load(1, XDATA, add(CFA_XSP16, literal(-4)))
        CFI ?RET_LOW load(1, XDATA, add(CFA_XSP16, literal(-5)))
        CFI R7 load(1, XDATA, add(CFA_XSP16, literal(-6)))
        CFI V13 load(1, XDATA, add(CFA_XSP16, literal(-7)))
        CFI V12 load(1, XDATA, add(CFA_XSP16, literal(-8)))
        CFI V11 load(1, XDATA, add(CFA_XSP16, literal(-9)))
        CFI V10 load(1, XDATA, add(CFA_XSP16, literal(-10)))
        CFI V9 load(1, XDATA, add(CFA_XSP16, literal(-11)))
        CFI V8 load(1, XDATA, add(CFA_XSP16, literal(-12)))
        CFI V7 load(1, XDATA, add(CFA_XSP16, literal(-13)))
        CFI V6 load(1, XDATA, add(CFA_XSP16, literal(-14)))
        CFI V5 load(1, XDATA, add(CFA_XSP16, literal(-15)))
        CFI V4 load(1, XDATA, add(CFA_XSP16, literal(-16)))
        CFI V3 load(1, XDATA, add(CFA_XSP16, literal(-17)))
        CFI V2 load(1, XDATA, add(CFA_XSP16, literal(-18)))
        CFI V1 load(1, XDATA, add(CFA_XSP16, literal(-19)))
        CFI V0 load(1, XDATA, add(CFA_XSP16, literal(-20)))
        CFI VB load(1, XDATA, add(CFA_XSP16, literal(-21)))
        CFI R6 load(1, XDATA, add(CFA_XSP16, literal(-22)))
        CFI CFA_SP SP+0
        CFI CFA_XSP16 add(XSP16, 22)
        ; Saved register size: 22
        ; Auto size: 10
        MOV     A,#-0xa
        LCALL   ?ALLOC_XSTACK8
        CFI CFA_XSP16 add(XSP16, 32)
        MOV     ?V0 + 0,R1
        MOV     ?V0 + 8,R2
        MOV     ?V0 + 9,R3
        MOV     ?V0 + 2,R4
        MOV     ?V0 + 3,R5
        MOV     A,#0x20
        LCALL   ?XSTACK_DISP0_8
        MOVX    A,@DPTR
        MOV     ?V0 + 6,A
        INC     DPTR
        MOVX    A,@DPTR
        MOV     ?V0 + 7,A
        MOV     A,#0x22
        LCALL   ?XSTACK_DISP0_8
        MOVX    A,@DPTR
        MOV     ?V0 + 4,A
//  967   uint16 offset = pgOff[pg-OSAL_NV_PAGE_BEG];
        MOV     A,R1
        CLR     C
        RLC     A
        MOV     R0,A
        CLR     A
        RLC     A
        MOV     R1,A
        MOV     A,#(pgOff + 14) & 0xff
        ADD     A,R0
        MOV     ?V0 + 12,A
        MOV     A,#((pgOff - 242) >> 8) & 0xff
        ADDC    A,R1
        MOV     ?V0 + 13,A
        MOV     DPL,?V0 + 12
        MOV     DPH,A
        MOVX    A,@DPTR
        MOV     R6,A
        INC     DPTR
        MOVX    A,@DPTR
        MOV     R7,A
//  968   uint8 rtrn = FALSE;
        MOV     ?V0 + 1,#0x0
//  969   osalNvHdr_t hdr;
//  970 
//  971   if ( pg == pgRes )
        MOV     DPTR,#pgRes
        MOVX    A,@DPTR
        XRL     A,?V0 + 0
        JNZ     ??writeItem_0
//  972   {
//  973     /* Mark reserve page as being active, in process of receiving items.
//  974      * Invoking function must effect a page compaction.
//  975      */
//  976     setPageUse( pg, FALSE );
        ; Setup parameters for call to function setPageUse
        MOV     R2,#0x0
        MOV     R1,?V0 + 0
        LCALL   ??setPageUse?relay
//  977   }
//  978 
//  979   hdr.id = id;
??writeItem_0:
        MOV     A,#0x2
        LCALL   ?XSTACK_DISP0_8
        MOV     A,?V0 + 8
        MOVX    @DPTR,A
        INC     DPTR
        MOV     A,?V0 + 9
        MOVX    @DPTR,A
//  980   hdr.len = len;
        MOV     A,#0x4
        LCALL   ?XSTACK_DISP0_8
        MOV     A,?V0 + 2
        MOVX    @DPTR,A
        INC     DPTR
        MOV     A,?V0 + 3
        MOVX    @DPTR,A
//  981 
//  982   writeWord( pg, offset, (uint8 *)&hdr );
        ; Setup parameters for call to function writeWord
        MOV     A,#0x2
        LCALL   ?XSTACK_DISP0_8
        MOV     R4,DPL
        MOV     R5,DPH
        MOV     A,R6
        MOV     R2,A
        MOV     A,R7
        MOV     R3,A
        MOV     R1,?V0 + 0
        LCALL   ??writeWord?relay
//  983   HalFlashRead(pg, offset, (uint8 *)(&hdr), OSAL_NV_HDR_SIZE);
        ; Setup parameters for call to function HalFlashRead
        MOV     ?V0 + 10,#0x8
        MOV     ?V0 + 11,#0x0
        MOV     R0,#?V0 + 10
        LCALL   ?PUSH_XSTACK_I_TWO
        CFI CFA_XSP16 add(XSP16, 34)
        MOV     A,#0x4
        LCALL   ?XSTACK_DISP0_8
        MOV     R4,DPL
        MOV     R5,DPH
        MOV     A,R6
        MOV     R2,A
        MOV     A,R7
        MOV     R3,A
        MOV     R1,?V0 + 0
        LCALL   ??HalFlashRead?relay
        MOV     A,#0x2
        LCALL   ?DEALLOC_XSTACK8
        CFI CFA_XSP16 add(XSP16, 32)
//  984 
//  985   if ( (hdr.id == id) && (hdr.len == len) )
        MOV     A,#0x2
        LCALL   ?XSTACK_DISP0_8
        MOVX    A,@DPTR
        XRL     A,?V0 + 8
        JNZ     ??writeItem_1
        INC     DPTR
        MOVX    A,@DPTR
        XRL     A,?V0 + 9
??writeItem_1:
        JZ      $+5
        LJMP    ??writeItem_2 & 0xFFFF
        MOV     A,#0x4
        LCALL   ?XSTACK_DISP0_8
        MOVX    A,@DPTR
        XRL     A,?V0 + 2
        JNZ     ??writeItem_3
        INC     DPTR
        MOVX    A,@DPTR
        XRL     A,?V0 + 3
??writeItem_3:
        JZ      $+5
        LJMP    ??writeItem_2 & 0xFFFF
//  986   {
//  987     if ( flag )
        MOV     A,?V0 + 4
        JNZ     $+5
        LJMP    ??writeItem_4 & 0xFFFF
//  988     {
//  989       uint16 chk = calcChkB( len, buf );
        ; Setup parameters for call to function calcChkB
        MOV     R4,?V0 + 6
        MOV     R5,?V0 + 7
        MOV     R2,?V0 + 2
        MOV     R3,?V0 + 3
        LCALL   ??calcChkB?relay
        MOV     DPL,?XSP + 0
        MOV     DPH,?XSP + 1
        MOV     A,R2
        MOVX    @DPTR,A
        INC     DPTR
        MOV     A,R3
        MOVX    @DPTR,A
//  990 
//  991       offset += OSAL_NV_HDR_SIZE;
        MOV     A,R6
        ADD     A,#0x8
        MOV     R6,A
        MOV     A,R7
        ADDC    A,#0x0
        MOV     R7,A
//  992       if ( buf != NULL )
        MOV     A,?V0 + 6
        ORL     A,?V0 + 7
        JZ      ??writeItem_5
//  993       {
//  994         writeBuf( pg, offset, len, buf );
        ; Setup parameters for call to function writeBuf
        MOV     R0,#?V0 + 6
        LCALL   ?PUSH_XSTACK_I_TWO
        CFI CFA_XSP16 add(XSP16, 34)
        MOV     R4,?V0 + 2
        MOV     R5,?V0 + 3
        MOV     A,R6
        MOV     R2,A
        MOV     A,R7
        MOV     R3,A
        MOV     R1,?V0 + 0
        LCALL   ??writeBuf?relay
        MOV     A,#0x2
        LCALL   ?DEALLOC_XSTACK8
        CFI CFA_XSP16 add(XSP16, 32)
//  995       }
//  996 
//  997       if ( chk == calcChkF( pg, offset, len ) )
??writeItem_5:
        ; Setup parameters for call to function calcChkF
        MOV     R4,?V0 + 2
        MOV     R5,?V0 + 3
        MOV     A,R6
        MOV     R2,A
        MOV     A,R7
        MOV     R3,A
        MOV     R1,?V0 + 0
        LCALL   ??calcChkF?relay
        MOV     ?V0 + 2,R2
        MOV     ?V0 + 3,R3
        MOV     R0,?V0 + 2
        MOV     R1,?V0 + 3
        MOV     DPL,?XSP + 0
        MOV     DPH,?XSP + 1
        MOVX    A,@DPTR
        XRL     A,R0
        JNZ     ??writeItem_6
        INC     DPTR
        MOVX    A,@DPTR
        XRL     A,R1
??writeItem_6:
        JNZ     ??writeItem_2
//  998       {
//  999         writeWordH(pg, (offset-OSAL_NV_WORD_SIZE), (uint8 *)&chk);
        ; Setup parameters for call to function writeWordH
        MOV     DPL,?XSP + 0
        MOV     DPH,?XSP + 1
        MOV     R4,DPL
        MOV     R5,DPH
        MOV     A,R6
        ADD     A,#-0x4
        MOV     R2,A
        MOV     A,R7
        ADDC    A,#-0x1
        MOV     R3,A
        MOV     R1,?V0 + 0
        LCALL   ??writeWordH?relay
// 1000         HalFlashRead(pg, (offset-OSAL_NV_HDR_SIZE), (uint8 *)(&hdr), OSAL_NV_HDR_SIZE);
        ; Setup parameters for call to function HalFlashRead
        MOV     ?V0 + 2,#0x8
        MOV     ?V0 + 3,#0x0
        MOV     R0,#?V0 + 2
        LCALL   ?PUSH_XSTACK_I_TWO
        CFI CFA_XSP16 add(XSP16, 34)
        MOV     A,#0x4
        LCALL   ?XSTACK_DISP0_8
        MOV     R4,DPL
        MOV     R5,DPH
        MOV     A,R6
        ADD     A,#-0x8
        MOV     R2,A
        MOV     A,R7
        ADDC    A,#-0x1
        MOV     R3,A
        MOV     R1,?V0 + 0
        LCALL   ??HalFlashRead?relay
        MOV     A,#0x2
        LCALL   ?DEALLOC_XSTACK8
        CFI CFA_XSP16 add(XSP16, 32)
// 1001 
// 1002         if ( chk == hdr.chk )
        MOV     DPL,?XSP + 0
        MOV     DPH,?XSP + 1
        MOVX    A,@DPTR
        MOV     R0,A
        INC     DPTR
        MOVX    A,@DPTR
        MOV     R1,A
        MOV     A,#0x6
        LCALL   ?XSTACK_DISP0_8
        MOVX    A,@DPTR
        XRL     A,R0
        JNZ     ??writeItem_7
        INC     DPTR
        MOVX    A,@DPTR
        XRL     A,R1
??writeItem_7:
        JNZ     ??writeItem_2
// 1003         {
// 1004           rtrn = pg;
??writeItem_4:
        MOV     ?V0 + 1,?V0 + 0
// 1005         }
// 1006       }
// 1007     }
// 1008     else
// 1009     {
// 1010       rtrn = pg;
// 1011     }
// 1012   }
// 1013 
// 1014   len = OSAL_NV_ITEM_SIZE( hdr.len );
// 1015   pgOff[pg-OSAL_NV_PAGE_BEG] += len;
??writeItem_2:
        MOV     A,#0x4
        LCALL   ?XSTACK_DISP0_8
        MOVX    A,@DPTR
        ADD     A,#0x3
        MOV     R0,A
        INC     DPTR
        MOVX    A,@DPTR
        ADDC    A,#0x0
        MOV     R1,A
        MOV     A,R0
        ANL     A,#0xfc
        ADD     A,#0x8
        MOV     R0,A
        MOV     A,R1
        ADDC    A,#0x0
        MOV     R1,A
        MOV     DPL,?V0 + 12
        MOV     DPH,?V0 + 13
        MOVX    A,@DPTR
        ADD     A,R0
        MOVX    @DPTR,A
        INC     DPTR
        MOVX    A,@DPTR
        ADDC    A,R1
        MOVX    @DPTR,A
// 1016 
// 1017   return rtrn;
        MOV     R1,?V0 + 1
        MOV     A,#0xa
        LCALL   ?DEALLOC_XSTACK8
        CFI CFA_XSP16 add(XSP16, 22)
        MOV     R7,#0xe
        LJMP    ?BANKED_LEAVE_XDATA
        CFI EndBlock cfiBlock15
// 1018 }
// 1019 
// 1020 /*********************************************************************
// 1021  * @fn      osal_nv_init
// 1022  *
// 1023  * @brief   Initialize NV service.
// 1024  *
// 1025  * @param   p - Not used.
// 1026  *
// 1027  * @return  none
// 1028  */

        RSEG BANKED_CODE:CODE:NOROOT(0)
// 1029 void osal_nv_init( void *p )
osal_nv_init:
        CFI Block cfiBlock16 Using cfiCommon0
        CFI Function osal_nv_init
        CODE
// 1030 {
        FUNCALL osal_nv_init, initNV
        LOCFRAME ISTACK, 2, STACK
        LOCFRAME PSTACK, 0, STACK
        LOCFRAME XSTACK, 0, STACK
        LOCFRAME IOVERLAY, 0, STATIC
        LOCFRAME DOVERLAY, 0, STATIC
        ARGFRAME ISTACK, 2, STACK
        ARGFRAME PSTACK, 0, STACK
        ARGFRAME XSTACK, 0, STACK
        ARGFRAME IOVERLAY, 0, STATIC
        ARGFRAME DOVERLAY, 0, STATIC
        PUSH    DPL
        CFI DPL0 Frame(CFA_SP, 4)
        CFI CFA_SP SP+-4
        PUSH    DPH
        CFI DPH0 Frame(CFA_SP, 5)
        CFI CFA_SP SP+-5
        ; Saved register size: 2
        ; Auto size: 0
// 1031   (void)p;  // Suppress Lint warning.
// 1032   (void)initNV();  // Always returns TRUE after pages have been erased.
        ; Setup parameters for call to function initNV
        LCALL   ??initNV?relay
// 1033 }
        POP     DPH
        CFI DPH0 SameValue
        CFI CFA_SP SP+-4
        POP     DPL
        CFI DPL0 SameValue
        CFI CFA_SP SP+-3
        LJMP    ?BRET
        CFI EndBlock cfiBlock16
// 1034 
// 1035 /*********************************************************************
// 1036  * @fn      osal_nv_item_init
// 1037  *
// 1038  * @brief   If the NV item does not already exist, it is created and
// 1039  *          initialized with the data passed to the function, if any.
// 1040  *          This function must be called before calling osal_nv_read() or
// 1041  *          osal_nv_write().
// 1042  *
// 1043  * @param   id  - Valid NV item Id.
// 1044  * @param   len - Item length.
// 1045  * @param  *buf - Pointer to item initalization data. Set to NULL if none.
// 1046  *
// 1047  * @return  NV_ITEM_UNINIT - Id did not exist and was created successfully.
// 1048  *          ZSUCCESS       - Id already existed, no action taken.
// 1049  *          NV_OPER_FAILED - Failure to find or create Id.
// 1050  */

        RSEG BANKED_CODE:CODE:NOROOT(0)
// 1051 uint8 osal_nv_item_init( uint16 id, uint16 len, void *buf )
osal_nv_item_init:
        CFI Block cfiBlock17 Using cfiCommon0
        CFI Function osal_nv_item_init
        CODE
// 1052 {
        FUNCALL osal_nv_item_init, findItem
        LOCFRAME ISTACK, 0, STACK
        LOCFRAME PSTACK, 0, STACK
        LOCFRAME XSTACK, 14, STACK
        LOCFRAME IOVERLAY, 0, STATIC
        LOCFRAME DOVERLAY, 0, STATIC
        ARGFRAME ISTACK, 0, STACK
        ARGFRAME PSTACK, 0, STACK
        ARGFRAME XSTACK, 14, STACK
        ARGFRAME IOVERLAY, 0, STATIC
        ARGFRAME DOVERLAY, 0, STATIC
        FUNCALL osal_nv_item_init, initItem
        LOCFRAME ISTACK, 0, STACK
        LOCFRAME PSTACK, 0, STACK
        LOCFRAME XSTACK, 16, STACK
        LOCFRAME IOVERLAY, 0, STATIC
        LOCFRAME DOVERLAY, 0, STATIC
        ARGFRAME ISTACK, 0, STACK
        ARGFRAME PSTACK, 0, STACK
        ARGFRAME XSTACK, 16, STACK
        ARGFRAME IOVERLAY, 0, STATIC
        ARGFRAME DOVERLAY, 0, STATIC
        FUNCALL osal_nv_item_init, initNV
        LOCFRAME ISTACK, 0, STACK
        LOCFRAME PSTACK, 0, STACK
        LOCFRAME XSTACK, 14, STACK
        LOCFRAME IOVERLAY, 0, STATIC
        LOCFRAME DOVERLAY, 0, STATIC
        ARGFRAME ISTACK, 0, STACK
        ARGFRAME PSTACK, 0, STACK
        ARGFRAME XSTACK, 14, STACK
        ARGFRAME IOVERLAY, 0, STATIC
        ARGFRAME DOVERLAY, 0, STATIC
        MOV     A,#-0xe
        LCALL   ?BANKED_ENTER_XDATA
        CFI DPH0 load(1, XDATA, add(CFA_XSP16, literal(-1)))
        CFI DPL0 load(1, XDATA, add(CFA_XSP16, literal(-2)))
        CFI ?BRET_EXT load(1, XDATA, add(CFA_XSP16, literal(-3)))
        CFI ?RET_HIGH load(1, XDATA, add(CFA_XSP16, literal(-4)))
        CFI ?RET_LOW load(1, XDATA, add(CFA_XSP16, literal(-5)))
        CFI R7 load(1, XDATA, add(CFA_XSP16, literal(-6)))
        CFI V5 load(1, XDATA, add(CFA_XSP16, literal(-7)))
        CFI V4 load(1, XDATA, add(CFA_XSP16, literal(-8)))
        CFI V3 load(1, XDATA, add(CFA_XSP16, literal(-9)))
        CFI V2 load(1, XDATA, add(CFA_XSP16, literal(-10)))
        CFI V1 load(1, XDATA, add(CFA_XSP16, literal(-11)))
        CFI V0 load(1, XDATA, add(CFA_XSP16, literal(-12)))
        CFI VB load(1, XDATA, add(CFA_XSP16, literal(-13)))
        CFI R6 load(1, XDATA, add(CFA_XSP16, literal(-14)))
        CFI CFA_SP SP+0
        CFI CFA_XSP16 add(XSP16, 14)
        ; Saved register size: 14
        ; Auto size: 0
        MOV     A,R2
        MOV     R6,A
        MOV     A,R3
        MOV     R7,A
        MOV     ?V0 + 0,R4
        MOV     ?V0 + 1,R5
        MOV     A,#0xe
        LCALL   ?XSTACK_DISP0_8
        MOVX    A,@DPTR
        MOV     ?V0 + 2,A
        INC     DPTR
        MOVX    A,@DPTR
        MOV     ?V0 + 3,A
// 1053   /* Global fail flag for fail due to low bus voltage has less impact on code
// 1054    * size than passing back a return value all the way from the lowest level.
// 1055    */
// 1056   failF = FALSE;
        MOV     DPTR,#failF
        CLR     A
        MOVX    @DPTR,A
// 1057 
// 1058   if ( (findItem( id ) != OSAL_NV_ITEM_NULL) )
        ; Setup parameters for call to function findItem
        LCALL   ??findItem?relay
        MOV     ?V0 + 5,R3
        MOV     A,R2
        ORL     A,?V0 + 5
        JZ      ??osal_nv_item_init_0
// 1059   {
// 1060     return ZSUCCESS;
        MOV     R1,#0x0
        SJMP    ??osal_nv_item_init_1
// 1061   }
// 1062   else if ( initItem( TRUE, id, len, buf ) )
??osal_nv_item_init_0:
        ; Setup parameters for call to function initItem
        MOV     R0,#?V0 + 2
        LCALL   ?PUSH_XSTACK_I_TWO
        CFI CFA_XSP16 add(XSP16, 16)
        MOV     R4,?V0 + 0
        MOV     R5,?V0 + 1
        MOV     A,R6
        MOV     R2,A
        MOV     A,R7
        MOV     R3,A
        MOV     R1,#0x1
        LCALL   ??initItem?relay
        MOV     A,#0x2
        LCALL   ?DEALLOC_XSTACK8
        CFI CFA_XSP16 add(XSP16, 14)
        MOV     A,R1
        JZ      ??osal_nv_item_init_2
// 1063   {
// 1064     if ( failF )
        MOV     DPTR,#failF
        MOVX    A,@DPTR
        JZ      ??osal_nv_item_init_3
// 1065     {
// 1066       (void)initNV();  // See comment at the declaration of failF.
        ; Setup parameters for call to function initNV
        LCALL   ??initNV?relay
// 1067       return NV_OPER_FAILED;
        SJMP    ??osal_nv_item_init_2
// 1068     }
// 1069     else
// 1070     {
// 1071       return NV_ITEM_UNINIT;
??osal_nv_item_init_3:
        MOV     R1,#0x9
        SJMP    ??osal_nv_item_init_1
// 1072     }
// 1073   }
// 1074   else
// 1075   {
// 1076     return NV_OPER_FAILED;
??osal_nv_item_init_2:
        MOV     R1,#0xa
??osal_nv_item_init_1:
        MOV     R7,#0x6
        LJMP    ?BANKED_LEAVE_XDATA
        CFI EndBlock cfiBlock17
// 1077   }
// 1078 }
// 1079 
// 1080 /*********************************************************************
// 1081  * @fn      osal_nv_item_len
// 1082  *
// 1083  * @brief   Get the data length of the item stored in NV memory.
// 1084  *
// 1085  * @param   id  - Valid NV item Id.
// 1086  *
// 1087  * @return  Item length, if found; zero otherwise.
// 1088  */

        RSEG BANKED_CODE:CODE:NOROOT(0)
// 1089 uint16 osal_nv_item_len( uint16 id )
osal_nv_item_len:
        CFI Block cfiBlock18 Using cfiCommon0
        CFI Function osal_nv_item_len
        CODE
// 1090 {
        FUNCALL osal_nv_item_len, findItem
        LOCFRAME ISTACK, 0, STACK
        LOCFRAME PSTACK, 0, STACK
        LOCFRAME XSTACK, 18, STACK
        LOCFRAME IOVERLAY, 0, STATIC
        LOCFRAME DOVERLAY, 0, STATIC
        ARGFRAME ISTACK, 0, STACK
        ARGFRAME PSTACK, 0, STACK
        ARGFRAME XSTACK, 18, STACK
        ARGFRAME IOVERLAY, 0, STATIC
        ARGFRAME DOVERLAY, 0, STATIC
        FUNCALL osal_nv_item_len, HalFlashRead
        LOCFRAME ISTACK, 0, STACK
        LOCFRAME PSTACK, 0, STACK
        LOCFRAME XSTACK, 20, STACK
        LOCFRAME IOVERLAY, 0, STATIC
        LOCFRAME DOVERLAY, 0, STATIC
        ARGFRAME ISTACK, 0, STACK
        ARGFRAME PSTACK, 0, STACK
        ARGFRAME XSTACK, 20, STACK
        ARGFRAME IOVERLAY, 0, STATIC
        ARGFRAME DOVERLAY, 0, STATIC
        MOV     A,#-0xa
        LCALL   ?BANKED_ENTER_XDATA
        CFI DPH0 load(1, XDATA, add(CFA_XSP16, literal(-1)))
        CFI DPL0 load(1, XDATA, add(CFA_XSP16, literal(-2)))
        CFI ?BRET_EXT load(1, XDATA, add(CFA_XSP16, literal(-3)))
        CFI ?RET_HIGH load(1, XDATA, add(CFA_XSP16, literal(-4)))
        CFI ?RET_LOW load(1, XDATA, add(CFA_XSP16, literal(-5)))
        CFI R7 load(1, XDATA, add(CFA_XSP16, literal(-6)))
        CFI V1 load(1, XDATA, add(CFA_XSP16, literal(-7)))
        CFI V0 load(1, XDATA, add(CFA_XSP16, literal(-8)))
        CFI VB load(1, XDATA, add(CFA_XSP16, literal(-9)))
        CFI R6 load(1, XDATA, add(CFA_XSP16, literal(-10)))
        CFI CFA_SP SP+0
        CFI CFA_XSP16 add(XSP16, 10)
        ; Saved register size: 10
        ; Auto size: 8
        MOV     A,#-0x8
        LCALL   ?ALLOC_XSTACK8
        CFI CFA_XSP16 add(XSP16, 18)
// 1091   uint16 offset = findItem( id );
        ; Setup parameters for call to function findItem
        LCALL   ??findItem?relay
// 1092 
// 1093   if ( offset == OSAL_NV_ITEM_NULL )
        MOV     A,R2
        ORL     A,R3
        JNZ     ??osal_nv_item_len_0
// 1094   {
// 1095     return 0;
        MOV     R2,#0x0
        MOV     R3,#0x0
        SJMP    ??osal_nv_item_len_1
// 1096   }
// 1097   else
// 1098   {
// 1099     osalNvHdr_t hdr;
// 1100     HalFlashRead(findPg, (offset - OSAL_NV_HDR_SIZE), (uint8 *)(&hdr), OSAL_NV_HDR_SIZE);
??osal_nv_item_len_0:
        ; Setup parameters for call to function HalFlashRead
        MOV     ?V0 + 0,#0x8
        MOV     ?V0 + 1,#0x0
        MOV     R0,#?V0 + 0
        LCALL   ?PUSH_XSTACK_I_TWO
        CFI CFA_XSP16 add(XSP16, 20)
        MOV     A,#0x2
        LCALL   ?XSTACK_DISP0_8
        MOV     R4,DPL
        MOV     R5,DPH
        MOV     A,R2
        ADD     A,#-0x8
        MOV     R2,A
        MOV     A,R3
        ADDC    A,#-0x1
        MOV     R3,A
        MOV     DPTR,#findPg
        MOVX    A,@DPTR
        MOV     R1,A
        LCALL   ??HalFlashRead?relay
        MOV     A,#0x2
        LCALL   ?DEALLOC_XSTACK8
        CFI CFA_XSP16 add(XSP16, 18)
// 1101     return hdr.len;
        MOV     A,#0x2
        LCALL   ?XSTACK_DISP0_8
        MOVX    A,@DPTR
        MOV     R2,A
        INC     DPTR
        MOVX    A,@DPTR
        MOV     R3,A
??osal_nv_item_len_1:
        MOV     A,#0x8
        LCALL   ?DEALLOC_XSTACK8
        CFI CFA_XSP16 add(XSP16, 10)
        MOV     R7,#0x2
        LJMP    ?BANKED_LEAVE_XDATA
        CFI EndBlock cfiBlock18
// 1102   }
// 1103 }
// 1104 
// 1105 /*********************************************************************
// 1106  * @fn      osal_nv_write
// 1107  *
// 1108  * @brief   Write a data item to NV. Function can write an entire item to NV or
// 1109  *          an element of an item by indexing into the item with an offset.
// 1110  *
// 1111  * @param   id  - Valid NV item Id.
// 1112  * @param   ndx - Index offset into item
// 1113  * @param   len - Length of data to write.
// 1114  * @param  *buf - Data to write.
// 1115  *
// 1116  * @return  ZSUCCESS if successful, NV_ITEM_UNINIT if item did not
// 1117  *          exist in NV and offset is non-zero, NV_OPER_FAILED if failure.
// 1118  */

        RSEG BANKED_CODE:CODE:NOROOT(0)
// 1119 uint8 osal_nv_write( uint16 id, uint16 ndx, uint16 len, void *buf )
osal_nv_write:
        CFI Block cfiBlock19 Using cfiCommon0
        CFI Function osal_nv_write
        CODE
// 1120 {
        FUNCALL osal_nv_write, findItem
        LOCFRAME ISTACK, 0, STACK
        LOCFRAME PSTACK, 0, STACK
        LOCFRAME XSTACK, 35, STACK
        LOCFRAME IOVERLAY, 0, STATIC
        LOCFRAME DOVERLAY, 0, STATIC
        ARGFRAME ISTACK, 0, STACK
        ARGFRAME PSTACK, 0, STACK
        ARGFRAME XSTACK, 35, STACK
        ARGFRAME IOVERLAY, 0, STATIC
        ARGFRAME DOVERLAY, 0, STATIC
        FUNCALL osal_nv_write, HalFlashRead
        LOCFRAME ISTACK, 0, STACK
        LOCFRAME PSTACK, 0, STACK
        LOCFRAME XSTACK, 37, STACK
        LOCFRAME IOVERLAY, 0, STATIC
        LOCFRAME DOVERLAY, 0, STATIC
        ARGFRAME ISTACK, 0, STACK
        ARGFRAME PSTACK, 0, STACK
        ARGFRAME XSTACK, 37, STACK
        ARGFRAME IOVERLAY, 0, STATIC
        ARGFRAME DOVERLAY, 0, STATIC
        FUNCALL osal_nv_write, HalFlashRead
        LOCFRAME ISTACK, 0, STACK
        LOCFRAME PSTACK, 0, STACK
        LOCFRAME XSTACK, 37, STACK
        LOCFRAME IOVERLAY, 0, STATIC
        LOCFRAME DOVERLAY, 0, STATIC
        ARGFRAME ISTACK, 0, STACK
        ARGFRAME PSTACK, 0, STACK
        ARGFRAME XSTACK, 37, STACK
        ARGFRAME IOVERLAY, 0, STATIC
        ARGFRAME DOVERLAY, 0, STATIC
        FUNCALL osal_nv_write, initItem
        LOCFRAME ISTACK, 0, STACK
        LOCFRAME PSTACK, 0, STACK
        LOCFRAME XSTACK, 37, STACK
        LOCFRAME IOVERLAY, 0, STATIC
        LOCFRAME DOVERLAY, 0, STATIC
        ARGFRAME ISTACK, 0, STACK
        ARGFRAME PSTACK, 0, STACK
        ARGFRAME XSTACK, 37, STACK
        ARGFRAME IOVERLAY, 0, STATIC
        ARGFRAME DOVERLAY, 0, STATIC
        FUNCALL osal_nv_write, setItem
        LOCFRAME ISTACK, 0, STACK
        LOCFRAME PSTACK, 0, STACK
        LOCFRAME XSTACK, 35, STACK
        LOCFRAME IOVERLAY, 0, STATIC
        LOCFRAME DOVERLAY, 0, STATIC
        ARGFRAME ISTACK, 0, STACK
        ARGFRAME PSTACK, 0, STACK
        ARGFRAME XSTACK, 35, STACK
        ARGFRAME IOVERLAY, 0, STATIC
        ARGFRAME DOVERLAY, 0, STATIC
        FUNCALL osal_nv_write, xferBuf
        LOCFRAME ISTACK, 0, STACK
        LOCFRAME PSTACK, 0, STACK
        LOCFRAME XSTACK, 39, STACK
        LOCFRAME IOVERLAY, 0, STATIC
        LOCFRAME DOVERLAY, 0, STATIC
        ARGFRAME ISTACK, 0, STACK
        ARGFRAME PSTACK, 0, STACK
        ARGFRAME XSTACK, 39, STACK
        ARGFRAME IOVERLAY, 0, STATIC
        ARGFRAME DOVERLAY, 0, STATIC
        FUNCALL osal_nv_write, writeBuf
        LOCFRAME ISTACK, 0, STACK
        LOCFRAME PSTACK, 0, STACK
        LOCFRAME XSTACK, 37, STACK
        LOCFRAME IOVERLAY, 0, STATIC
        LOCFRAME DOVERLAY, 0, STATIC
        ARGFRAME ISTACK, 0, STACK
        ARGFRAME PSTACK, 0, STACK
        ARGFRAME XSTACK, 37, STACK
        ARGFRAME IOVERLAY, 0, STATIC
        ARGFRAME DOVERLAY, 0, STATIC
        FUNCALL osal_nv_write, xferBuf
        LOCFRAME ISTACK, 0, STACK
        LOCFRAME PSTACK, 0, STACK
        LOCFRAME XSTACK, 39, STACK
        LOCFRAME IOVERLAY, 0, STATIC
        LOCFRAME DOVERLAY, 0, STATIC
        ARGFRAME ISTACK, 0, STACK
        ARGFRAME PSTACK, 0, STACK
        ARGFRAME XSTACK, 39, STACK
        ARGFRAME IOVERLAY, 0, STATIC
        ARGFRAME DOVERLAY, 0, STATIC
        FUNCALL osal_nv_write, calcChkF
        LOCFRAME ISTACK, 0, STACK
        LOCFRAME PSTACK, 0, STACK
        LOCFRAME XSTACK, 35, STACK
        LOCFRAME IOVERLAY, 0, STATIC
        LOCFRAME DOVERLAY, 0, STATIC
        ARGFRAME ISTACK, 0, STACK
        ARGFRAME PSTACK, 0, STACK
        ARGFRAME XSTACK, 35, STACK
        ARGFRAME IOVERLAY, 0, STATIC
        ARGFRAME DOVERLAY, 0, STATIC
        FUNCALL osal_nv_write, writeWordH
        LOCFRAME ISTACK, 0, STACK
        LOCFRAME PSTACK, 0, STACK
        LOCFRAME XSTACK, 35, STACK
        LOCFRAME IOVERLAY, 0, STATIC
        LOCFRAME DOVERLAY, 0, STATIC
        ARGFRAME ISTACK, 0, STACK
        ARGFRAME PSTACK, 0, STACK
        ARGFRAME XSTACK, 35, STACK
        ARGFRAME IOVERLAY, 0, STATIC
        ARGFRAME DOVERLAY, 0, STATIC
        FUNCALL osal_nv_write, HalFlashRead
        LOCFRAME ISTACK, 0, STACK
        LOCFRAME PSTACK, 0, STACK
        LOCFRAME XSTACK, 37, STACK
        LOCFRAME IOVERLAY, 0, STATIC
        LOCFRAME DOVERLAY, 0, STATIC
        ARGFRAME ISTACK, 0, STACK
        ARGFRAME PSTACK, 0, STACK
        ARGFRAME XSTACK, 37, STACK
        ARGFRAME IOVERLAY, 0, STATIC
        ARGFRAME DOVERLAY, 0, STATIC
        FUNCALL osal_nv_write, setItem
        LOCFRAME ISTACK, 0, STACK
        LOCFRAME PSTACK, 0, STACK
        LOCFRAME XSTACK, 35, STACK
        LOCFRAME IOVERLAY, 0, STATIC
        LOCFRAME DOVERLAY, 0, STATIC
        ARGFRAME ISTACK, 0, STACK
        ARGFRAME PSTACK, 0, STACK
        ARGFRAME XSTACK, 35, STACK
        ARGFRAME IOVERLAY, 0, STATIC
        ARGFRAME DOVERLAY, 0, STATIC
        FUNCALL osal_nv_write, compactPage
        LOCFRAME ISTACK, 0, STACK
        LOCFRAME PSTACK, 0, STACK
        LOCFRAME XSTACK, 35, STACK
        LOCFRAME IOVERLAY, 0, STATIC
        LOCFRAME DOVERLAY, 0, STATIC
        ARGFRAME ISTACK, 0, STACK
        ARGFRAME PSTACK, 0, STACK
        ARGFRAME XSTACK, 35, STACK
        ARGFRAME IOVERLAY, 0, STATIC
        ARGFRAME DOVERLAY, 0, STATIC
        FUNCALL osal_nv_write, initNV
        LOCFRAME ISTACK, 0, STACK
        LOCFRAME PSTACK, 0, STACK
        LOCFRAME XSTACK, 35, STACK
        LOCFRAME IOVERLAY, 0, STATIC
        LOCFRAME DOVERLAY, 0, STATIC
        ARGFRAME ISTACK, 0, STACK
        ARGFRAME PSTACK, 0, STACK
        ARGFRAME XSTACK, 35, STACK
        ARGFRAME IOVERLAY, 0, STATIC
        ARGFRAME DOVERLAY, 0, STATIC
        MOV     A,#-0x18
        LCALL   ?BANKED_ENTER_XDATA
        CFI DPH0 load(1, XDATA, add(CFA_XSP16, literal(-1)))
        CFI DPL0 load(1, XDATA, add(CFA_XSP16, literal(-2)))
        CFI ?BRET_EXT load(1, XDATA, add(CFA_XSP16, literal(-3)))
        CFI ?RET_HIGH load(1, XDATA, add(CFA_XSP16, literal(-4)))
        CFI ?RET_LOW load(1, XDATA, add(CFA_XSP16, literal(-5)))
        CFI R7 load(1, XDATA, add(CFA_XSP16, literal(-6)))
        CFI V15 load(1, XDATA, add(CFA_XSP16, literal(-7)))
        CFI V14 load(1, XDATA, add(CFA_XSP16, literal(-8)))
        CFI V13 load(1, XDATA, add(CFA_XSP16, literal(-9)))
        CFI V12 load(1, XDATA, add(CFA_XSP16, literal(-10)))
        CFI V11 load(1, XDATA, add(CFA_XSP16, literal(-11)))
        CFI V10 load(1, XDATA, add(CFA_XSP16, literal(-12)))
        CFI V9 load(1, XDATA, add(CFA_XSP16, literal(-13)))
        CFI V8 load(1, XDATA, add(CFA_XSP16, literal(-14)))
        CFI V7 load(1, XDATA, add(CFA_XSP16, literal(-15)))
        CFI V6 load(1, XDATA, add(CFA_XSP16, literal(-16)))
        CFI V5 load(1, XDATA, add(CFA_XSP16, literal(-17)))
        CFI V4 load(1, XDATA, add(CFA_XSP16, literal(-18)))
        CFI V3 load(1, XDATA, add(CFA_XSP16, literal(-19)))
        CFI V2 load(1, XDATA, add(CFA_XSP16, literal(-20)))
        CFI V1 load(1, XDATA, add(CFA_XSP16, literal(-21)))
        CFI V0 load(1, XDATA, add(CFA_XSP16, literal(-22)))
        CFI VB load(1, XDATA, add(CFA_XSP16, literal(-23)))
        CFI R6 load(1, XDATA, add(CFA_XSP16, literal(-24)))
        CFI CFA_SP SP+0
        CFI CFA_XSP16 add(XSP16, 24)
        ; Saved register size: 24
        ; Auto size: 11
        MOV     A,#-0xb
        LCALL   ?ALLOC_XSTACK8
        CFI CFA_XSP16 add(XSP16, 35)
        MOV     ?V0 + 10,R2
        MOV     ?V0 + 11,R3
        MOV     ?V0 + 2,R4
        MOV     ?V0 + 3,R5
        MOV     A,#0x23
        LCALL   ?XSTACK_DISP0_8
        MOVX    A,@DPTR
        MOV     ?V0 + 8,A
        INC     DPTR
        MOVX    A,@DPTR
        MOV     ?V0 + 9,A
// 1121   uint8 rtrn = ZSUCCESS;
        MOV     ?V0 + 4,#0x0
// 1122 
// 1123   /* Global fail flag for fail due to low bus voltage has less impact on code
// 1124    * size than passing back a return value all the way from the lowest level.
// 1125    */
// 1126   failF = FALSE;
        MOV     DPTR,#failF
        CLR     A
        MOVX    @DPTR,A
// 1127 
// 1128   if ( len != 0 )
        MOV     A,?V0 + 8
        ORL     A,?V0 + 9
        JNZ     $+5
        LJMP    ??osal_nv_write_0 & 0xFFFF
// 1129   {
// 1130     osalNvHdr_t hdr;
// 1131     uint16 origOff, srcOff;
// 1132     uint16 cnt;
// 1133     uint8 *ptr;
// 1134 
// 1135     origOff = srcOff = findItem( id );
        ; Setup parameters for call to function findItem
        LCALL   ??findItem?relay
        MOV     ?V0 + 0,R2
        MOV     ?V0 + 1,R3
        MOV     R0,?V0 + 0
        MOV     R1,?V0 + 1
        MOV     A,R0
        MOV     R6,A
        MOV     A,R1
        MOV     R7,A
        MOV     ?V0 + 14,R0
        MOV     ?V0 + 15,R1
// 1136     if ( srcOff == OSAL_NV_ITEM_NULL )
        MOV     A,R6
        ORL     A,R7
        JNZ     ??osal_nv_write_1
// 1137     {
// 1138       return NV_ITEM_UNINIT;
        MOV     R1,#0x9
        LJMP    ??osal_nv_write_2 & 0xFFFF
// 1139     }
// 1140 
// 1141     HalFlashRead(findPg, (srcOff - OSAL_NV_HDR_SIZE), (uint8 *)(&hdr), OSAL_NV_HDR_SIZE);
??osal_nv_write_1:
        ; Setup parameters for call to function HalFlashRead
        MOV     ?V0 + 0,#0x8
        MOV     ?V0 + 1,#0x0
        MOV     R0,#?V0 + 0
        LCALL   ?PUSH_XSTACK_I_TWO
        CFI CFA_XSP16 add(XSP16, 37)
        MOV     A,#0x5
        LCALL   ?XSTACK_DISP0_8
        MOV     R4,DPL
        MOV     R5,DPH
        MOV     A,R6
        ADD     A,#-0x8
        MOV     R2,A
        MOV     A,R7
        ADDC    A,#-0x1
        MOV     R3,A
        MOV     DPTR,#findPg
        MOVX    A,@DPTR
        MOV     R1,A
        LCALL   ??HalFlashRead?relay
        MOV     A,#0x2
        LCALL   ?DEALLOC_XSTACK8
        CFI CFA_XSP16 add(XSP16, 35)
// 1142     if ( hdr.len < (ndx + len) )
        MOV     A,#0x5
        LCALL   ?XSTACK_DISP0_8
        MOV     A,?V0 + 2
        ADD     A,?V0 + 8
        MOV     R0,A
        MOV     A,?V0 + 3
        ADDC    A,?V0 + 9
        MOV     R1,A
        CLR     C
        MOVX    A,@DPTR
        SUBB    A,R0
        INC     DPTR
        MOVX    A,@DPTR
        SUBB    A,R1
        JNC     ??osal_nv_write_3
// 1143     {
// 1144       return NV_OPER_FAILED;
        MOV     R1,#0xa
        LJMP    ??osal_nv_write_2 & 0xFFFF
// 1145     }
// 1146 
// 1147     srcOff += ndx;
??osal_nv_write_3:
        MOV     A,R6
        ADD     A,?V0 + 2
        MOV     R6,A
        MOV     A,R7
        ADDC    A,?V0 + 3
        MOV     R7,A
// 1148     ptr = buf;
        MOV     A,#0x25
        LCALL   ?XSTACK_DISP0_8
        MOVX    A,@DPTR
        MOV     ?V0 + 6,A
        INC     DPTR
        MOVX    A,@DPTR
        MOV     ?V0 + 7,A
// 1149     cnt = len;
        MOV     ?V0 + 0,?V0 + 8
        MOV     ?V0 + 1,?V0 + 9
        SJMP    ??osal_nv_write_4
// 1150     while ( cnt )
// 1151     {
// 1152       uint8 tmp;
// 1153       HalFlashRead(findPg, srcOff++, &tmp, 1);
// 1154       if ( tmp != *ptr++ )
// 1155       {
// 1156         break;
// 1157       }
// 1158       cnt--;
??osal_nv_write_5:
        MOV     A,?V0 + 0
        ADD     A,#-0x1
        MOV     ?V0 + 0,A
        MOV     A,?V0 + 1
        ADDC    A,#-0x1
        MOV     ?V0 + 1,A
??osal_nv_write_4:
        MOV     A,?V0 + 0
        ORL     A,?V0 + 1
        JZ      ??osal_nv_write_6
        ; Setup parameters for call to function HalFlashRead
        MOV     ?V0 + 12,#0x1
        MOV     ?V0 + 13,#0x0
        MOV     R0,#?V0 + 12
        LCALL   ?PUSH_XSTACK_I_TWO
        CFI CFA_XSP16 add(XSP16, 37)
        MOV     A,#0x2
        LCALL   ?XSTACK_DISP0_8
        MOV     R4,DPL
        MOV     R5,DPH
        MOV     A,R6
        MOV     R2,A
        MOV     A,R7
        MOV     R3,A
        MOV     DPTR,#findPg
        MOVX    A,@DPTR
        MOV     R1,A
        LCALL   ??HalFlashRead?relay
        MOV     A,#0x2
        LCALL   ?DEALLOC_XSTACK8
        CFI CFA_XSP16 add(XSP16, 35)
        MOV     A,R6
        ADD     A,#0x1
        INC     R6
        MOV     A,R7
        ADDC    A,#0x0
        MOV     R7,A
        MOV     R0,?V0 + 6
        MOV     R1,?V0 + 7
        MOV     DPL,R0
        MOV     DPH,R1
        INC     DPTR
        MOV     ?V0 + 6,DPL
        MOV     ?V0 + 7,DPH
        MOV     DPL,?XSP + 0
        MOV     DPH,?XSP + 1
        MOVX    A,@DPTR
        MOV     R2,A
        MOV     DPL,R0
        MOV     DPH,R1
        MOVX    A,@DPTR
        XRL     A,R2
        JZ      ??osal_nv_write_5
// 1159     }
// 1160 
// 1161     if ( cnt != 0 )  // If the buffer to write is different in one or more bytes.
??osal_nv_write_6:
        MOV     A,?V0 + 0
        ORL     A,?V0 + 1
        JNZ     $+5
        LJMP    ??osal_nv_write_0 & 0xFFFF
// 1162     {
// 1163       uint8 comPg, dstPg = initItem( FALSE, id, hdr.len, &comPg );
        ; Setup parameters for call to function initItem
        MOV     DPL,?XSP + 0
        MOV     DPH,?XSP + 1
        MOV     ?V0 + 0,DPL
        MOV     ?V0 + 1,DPH
        MOV     R0,#?V0 + 0
        LCALL   ?PUSH_XSTACK_I_TWO
        CFI CFA_XSP16 add(XSP16, 37)
        MOV     A,#0x7
        LCALL   ?XSTACK_DISP0_8
        MOVX    A,@DPTR
        MOV     R4,A
        INC     DPTR
        MOVX    A,@DPTR
        MOV     R5,A
        MOV     R2,?V0 + 10
        MOV     R3,?V0 + 11
        MOV     R1,#0x0
        LCALL   ??initItem?relay
        MOV     A,#0x2
        LCALL   ?DEALLOC_XSTACK8
        CFI CFA_XSP16 add(XSP16, 35)
        MOV     A,R1
        MOV     ?V0 + 0,A
// 1164 
// 1165       if ( dstPg != OSAL_NV_PAGE_NULL )
        JNZ     $+5
        LJMP    ??osal_nv_write_7 & 0xFFFF
// 1166       {
// 1167         uint16 tmp = OSAL_NV_DATA_SIZE( hdr.len );
        MOV     A,#0x5
        LCALL   ?XSTACK_DISP0_8
        MOVX    A,@DPTR
        ADD     A,#0x3
        MOV     R0,A
        INC     DPTR
        MOVX    A,@DPTR
        ADDC    A,#0x0
        MOV     R1,A
        MOV     A,R0
        ANL     A,#0xfc
        MOV     R0,A
        MOV     A,#0x1
        LCALL   ?XSTACK_DISP0_8
        MOV     A,R0
        MOVX    @DPTR,A
        INC     DPTR
        MOV     A,R1
        MOVX    @DPTR,A
// 1168         uint16 dstOff = pgOff[dstPg-OSAL_NV_PAGE_BEG] - tmp;
        MOV     A,?V0 + 0
        CLR     C
        RLC     A
        MOV     R0,A
        CLR     A
        RLC     A
        MOV     R1,A
        MOV     A,#(pgOff + 14) & 0xff
        ADD     A,R0
        MOV     ?V0 + 6,A
        MOV     A,#((pgOff - 242) >> 8) & 0xff
        ADDC    A,R1
        MOV     ?V0 + 7,A
        MOV     DPL,?V0 + 6
        MOV     DPH,A
        PUSH    DPL
        CFI CFA_SP SP+-1
        PUSH    DPH
        CFI CFA_SP SP+-2
        MOV     A,#0x1
        LCALL   ?XSTACK_DISP0_8
        MOVX    A,@DPTR
        MOV     R0,A
        INC     DPTR
        MOVX    A,@DPTR
        MOV     R1,A
        POP     DPH
        CFI CFA_SP SP+-1
        POP     DPL
        CFI CFA_SP SP+0
        MOVX    A,@DPTR
        CLR     C
        SUBB    A,R0
        MOV     R6,A
        INC     DPTR
        MOVX    A,@DPTR
        SUBB    A,R1
        MOV     R7,A
// 1169         uint8 srcPg = findPg;
        MOV     DPTR,#findPg
        MOVX    A,@DPTR
        MOV     ?V0 + 1,A
// 1170         srcOff = origOff;
// 1171 
// 1172         setItem( srcPg, srcOff, eNvXfer );
        ; Setup parameters for call to function setItem
        MOV     R4,#0x0
        MOV     R2,?V0 + 14
        MOV     R3,?V0 + 15
        MOV     R1,A
        LCALL   ??setItem?relay
// 1173 
// 1174         xferBuf( srcPg, srcOff, dstPg, dstOff, ndx );
        ; Setup parameters for call to function xferBuf
        MOV     R0,#?V0 + 2
        LCALL   ?PUSH_XSTACK_I_TWO
        CFI CFA_XSP16 add(XSP16, 37)
        MOV     ?V0 + 10,R6
        MOV     ?V0 + 11,R7
        MOV     R0,#?V0 + 10
        LCALL   ?PUSH_XSTACK_I_TWO
        CFI CFA_XSP16 add(XSP16, 39)
        MOV     R4,?V0 + 0
        MOV     R2,?V0 + 14
        MOV     R3,?V0 + 15
        MOV     R1,?V0 + 1
        LCALL   ??xferBuf?relay
        MOV     A,#0x4
        LCALL   ?DEALLOC_XSTACK8
        CFI CFA_XSP16 add(XSP16, 35)
// 1175         srcOff += ndx;
// 1176         dstOff += ndx;
        MOV     A,R6
        ADD     A,?V0 + 2
        MOV     R6,A
        MOV     A,R7
        ADDC    A,?V0 + 3
        MOV     R7,A
// 1177 
// 1178         writeBuf( dstPg, dstOff, len, buf );
        ; Setup parameters for call to function writeBuf
        MOV     A,#0x25
        LCALL   ?XSTACK_DISP0_8
        LCALL   ?PUSH_XSTACK8_X_TWO
        CFI CFA_XSP16 add(XSP16, 37)
        MOV     R4,?V0 + 8
        MOV     R5,?V0 + 9
        MOV     A,R6
        MOV     R2,A
        MOV     A,R7
        MOV     R3,A
        MOV     R1,?V0 + 0
        LCALL   ??writeBuf?relay
        MOV     A,#0x2
        LCALL   ?DEALLOC_XSTACK8
        CFI CFA_XSP16 add(XSP16, 35)
// 1179         srcOff += len;
// 1180         dstOff += len;
// 1181 
// 1182         xferBuf( srcPg, srcOff, dstPg, dstOff, (hdr.len-ndx-len) );
        ; Setup parameters for call to function xferBuf
        MOV     A,#0x5
        LCALL   ?XSTACK_DISP0_8
        MOVX    A,@DPTR
        CLR     C
        SUBB    A,?V0 + 2
        MOV     R0,A
        INC     DPTR
        MOVX    A,@DPTR
        SUBB    A,?V0 + 3
        MOV     R1,A
        MOV     A,R0
        CLR     C
        SUBB    A,?V0 + 8
        MOV     ?V0 + 10,A
        MOV     A,R1
        SUBB    A,?V0 + 9
        MOV     ?V0 + 11,A
        MOV     R0,#?V0 + 10
        LCALL   ?PUSH_XSTACK_I_TWO
        CFI CFA_XSP16 add(XSP16, 37)
        MOV     A,R6
        ADD     A,?V0 + 8
        MOV     ?V0 + 10,A
        MOV     A,R7
        ADDC    A,?V0 + 9
        MOV     ?V0 + 11,A
        MOV     R0,#?V0 + 10
        LCALL   ?PUSH_XSTACK_I_TWO
        CFI CFA_XSP16 add(XSP16, 39)
        MOV     R4,?V0 + 0
        MOV     A,?V0 + 14
        ADD     A,?V0 + 2
        MOV     R0,A
        MOV     A,?V0 + 15
        ADDC    A,?V0 + 3
        MOV     R1,A
        MOV     A,R0
        ADD     A,?V0 + 8
        MOV     R2,A
        MOV     A,R1
        ADDC    A,?V0 + 9
        MOV     R3,A
        MOV     R1,?V0 + 1
        LCALL   ??xferBuf?relay
        MOV     A,#0x4
        LCALL   ?DEALLOC_XSTACK8
        CFI CFA_XSP16 add(XSP16, 35)
// 1183 
// 1184         // Calculate and write the new checksum.
// 1185         dstOff = pgOff[dstPg-OSAL_NV_PAGE_BEG] - tmp;
        MOV     DPL,?V0 + 6
        MOV     DPH,?V0 + 7
        PUSH    DPL
        CFI CFA_SP SP+-1
        PUSH    DPH
        CFI CFA_SP SP+-2
        MOV     A,#0x1
        LCALL   ?XSTACK_DISP0_8
        MOVX    A,@DPTR
        MOV     R0,A
        INC     DPTR
        MOVX    A,@DPTR
        MOV     R1,A
        POP     DPH
        CFI CFA_SP SP+-1
        POP     DPL
        CFI CFA_SP SP+0
        MOVX    A,@DPTR
        CLR     C
        SUBB    A,R0
        MOV     R6,A
        INC     DPTR
        MOVX    A,@DPTR
        SUBB    A,R1
        MOV     R7,A
// 1186         tmp = calcChkF( dstPg, dstOff, hdr.len );
        ; Setup parameters for call to function calcChkF
        MOV     A,#0x5
        LCALL   ?XSTACK_DISP0_8
        MOVX    A,@DPTR
        MOV     R4,A
        INC     DPTR
        MOVX    A,@DPTR
        MOV     R5,A
        MOV     A,R6
        MOV     R2,A
        MOV     A,R7
        MOV     R3,A
        MOV     R1,?V0 + 0
        LCALL   ??calcChkF?relay
        MOV     A,#0x1
        LCALL   ?XSTACK_DISP0_8
        MOV     A,R2
        MOVX    @DPTR,A
        INC     DPTR
        MOV     A,R3
        MOVX    @DPTR,A
// 1187         dstOff -= OSAL_NV_HDR_SIZE;
        MOV     A,R6
        ADD     A,#-0x8
        MOV     R6,A
        MOV     A,R7
        ADDC    A,#-0x1
        MOV     R7,A
// 1188         writeWordH( dstPg, (dstOff+OSAL_NV_HDR_CHK), (uint8 *)&tmp );
        ; Setup parameters for call to function writeWordH
        MOV     A,#0x1
        LCALL   ?XSTACK_DISP0_8
        MOV     R4,DPL
        MOV     R5,DPH
        MOV     A,R6
        ADD     A,#0x4
        MOV     R2,A
        MOV     A,R7
        ADDC    A,#0x0
        MOV     R3,A
        MOV     R1,?V0 + 0
        LCALL   ??writeWordH?relay
// 1189         HalFlashRead(dstPg, dstOff, (uint8 *)(&hdr), OSAL_NV_HDR_SIZE);
        ; Setup parameters for call to function HalFlashRead
        MOV     ?V0 + 2,#0x8
        MOV     ?V0 + 3,#0x0
        MOV     R0,#?V0 + 2
        LCALL   ?PUSH_XSTACK_I_TWO
        CFI CFA_XSP16 add(XSP16, 37)
        MOV     A,#0x5
        LCALL   ?XSTACK_DISP0_8
        MOV     R4,DPL
        MOV     R5,DPH
        MOV     A,R6
        MOV     R2,A
        MOV     A,R7
        MOV     R3,A
        MOV     R1,?V0 + 0
        LCALL   ??HalFlashRead?relay
        MOV     A,#0x2
        LCALL   ?DEALLOC_XSTACK8
        CFI CFA_XSP16 add(XSP16, 35)
// 1190 
// 1191         if ( tmp == hdr.chk )
        MOV     A,#0x1
        LCALL   ?XSTACK_DISP0_8
        MOVX    A,@DPTR
        MOV     R0,A
        INC     DPTR
        MOVX    A,@DPTR
        MOV     R1,A
        MOV     A,#0x7
        LCALL   ?XSTACK_DISP0_8
        MOVX    A,@DPTR
        XRL     A,R0
        JNZ     ??osal_nv_write_8
        INC     DPTR
        MOVX    A,@DPTR
        XRL     A,R1
??osal_nv_write_8:
        JNZ     ??osal_nv_write_9
// 1192         {
// 1193           setItem( srcPg, origOff, eNvZero );
        ; Setup parameters for call to function setItem
        MOV     R4,#0x1
        MOV     R2,?V0 + 14
        MOV     R3,?V0 + 15
        MOV     R1,?V0 + 1
        LCALL   ??setItem?relay
        SJMP    ??osal_nv_write_10
// 1194         }
// 1195         else
// 1196         {
// 1197           rtrn = NV_OPER_FAILED;
??osal_nv_write_9:
        MOV     ?V0 + 4,#0xa
// 1198         }
// 1199 
// 1200         if ( dstPg == pgRes )
??osal_nv_write_10:
        MOV     DPTR,#pgRes
        MOVX    A,@DPTR
        XRL     A,?V0 + 0
        JNZ     ??osal_nv_write_0
// 1201         {
// 1202           compactPage( comPg );
        ; Setup parameters for call to function compactPage
        MOV     DPL,?XSP + 0
        MOV     DPH,?XSP + 1
        MOVX    A,@DPTR
        MOV     R1,A
        LCALL   ??compactPage?relay
        SJMP    ??osal_nv_write_0
// 1203         }
// 1204       }
// 1205       else
// 1206       {
// 1207         rtrn = NV_OPER_FAILED;
??osal_nv_write_7:
        MOV     ?V0 + 4,#0xa
// 1208       }
// 1209     }
// 1210   }
// 1211 
// 1212   if ( failF )
??osal_nv_write_0:
        MOV     DPTR,#failF
        MOVX    A,@DPTR
        JZ      ??osal_nv_write_11
// 1213   {
// 1214     (void)initNV();  // See comment at the declaration of failF.
        ; Setup parameters for call to function initNV
        LCALL   ??initNV?relay
// 1215     rtrn = NV_OPER_FAILED;
        MOV     ?V0 + 4,#0xa
// 1216   }
// 1217 
// 1218   return rtrn;
??osal_nv_write_11:
        MOV     R1,?V0 + 4
??osal_nv_write_2:
        MOV     A,#0xb
        LCALL   ?DEALLOC_XSTACK8
        CFI CFA_XSP16 add(XSP16, 24)
        MOV     R7,#0x10
        LJMP    ?BANKED_LEAVE_XDATA
        CFI EndBlock cfiBlock19
// 1219 }
// 1220 
// 1221 /*********************************************************************
// 1222  * @fn      osal_nv_read
// 1223  *
// 1224  * @brief   Read data from NV. This function can be used to read an entire item from NV or
// 1225  *          an element of an item by indexing into the item with an offset.
// 1226  *          Read data is copied into *buf.
// 1227  *
// 1228  * @param   id  - Valid NV item Id.
// 1229  * @param   ndx - Index offset into item
// 1230  * @param   len - Length of data to read.
// 1231  * @param  *buf - Data is read into this buffer.
// 1232  *
// 1233  * @return  ZSUCCESS if NV data was copied to the parameter 'buf'.
// 1234  *          Otherwise, NV_OPER_FAILED for failure.
// 1235  */

        RSEG BANKED_CODE:CODE:NOROOT(0)
// 1236 uint8 osal_nv_read( uint16 id, uint16 ndx, uint16 len, void *buf )
osal_nv_read:
        CFI Block cfiBlock20 Using cfiCommon0
        CFI Function osal_nv_read
        CODE
// 1237 {
        FUNCALL osal_nv_read, findItem
        LOCFRAME ISTACK, 0, STACK
        LOCFRAME PSTACK, 0, STACK
        LOCFRAME XSTACK, 14, STACK
        LOCFRAME IOVERLAY, 0, STATIC
        LOCFRAME DOVERLAY, 0, STATIC
        ARGFRAME ISTACK, 0, STACK
        ARGFRAME PSTACK, 0, STACK
        ARGFRAME XSTACK, 14, STACK
        ARGFRAME IOVERLAY, 0, STATIC
        ARGFRAME DOVERLAY, 0, STATIC
        FUNCALL osal_nv_read, HalFlashRead
        LOCFRAME ISTACK, 0, STACK
        LOCFRAME PSTACK, 0, STACK
        LOCFRAME XSTACK, 16, STACK
        LOCFRAME IOVERLAY, 0, STATIC
        LOCFRAME DOVERLAY, 0, STATIC
        ARGFRAME ISTACK, 0, STACK
        ARGFRAME PSTACK, 0, STACK
        ARGFRAME XSTACK, 16, STACK
        ARGFRAME IOVERLAY, 0, STATIC
        ARGFRAME DOVERLAY, 0, STATIC
        MOV     A,#-0xe
        LCALL   ?BANKED_ENTER_XDATA
        CFI DPH0 load(1, XDATA, add(CFA_XSP16, literal(-1)))
        CFI DPL0 load(1, XDATA, add(CFA_XSP16, literal(-2)))
        CFI ?BRET_EXT load(1, XDATA, add(CFA_XSP16, literal(-3)))
        CFI ?RET_HIGH load(1, XDATA, add(CFA_XSP16, literal(-4)))
        CFI ?RET_LOW load(1, XDATA, add(CFA_XSP16, literal(-5)))
        CFI R7 load(1, XDATA, add(CFA_XSP16, literal(-6)))
        CFI V5 load(1, XDATA, add(CFA_XSP16, literal(-7)))
        CFI V4 load(1, XDATA, add(CFA_XSP16, literal(-8)))
        CFI V3 load(1, XDATA, add(CFA_XSP16, literal(-9)))
        CFI V2 load(1, XDATA, add(CFA_XSP16, literal(-10)))
        CFI V1 load(1, XDATA, add(CFA_XSP16, literal(-11)))
        CFI V0 load(1, XDATA, add(CFA_XSP16, literal(-12)))
        CFI VB load(1, XDATA, add(CFA_XSP16, literal(-13)))
        CFI R6 load(1, XDATA, add(CFA_XSP16, literal(-14)))
        CFI CFA_SP SP+0
        CFI CFA_XSP16 add(XSP16, 14)
        ; Saved register size: 14
        ; Auto size: 0
        MOV     ?V0 + 0,R4
        MOV     ?V0 + 1,R5
        MOV     A,#0xe
        LCALL   ?XSTACK_DISP0_8
        MOVX    A,@DPTR
        MOV     ?V0 + 2,A
        INC     DPTR
        MOVX    A,@DPTR
        MOV     ?V0 + 3,A
        MOV     A,#0x10
        LCALL   ?XSTACK_DISP0_8
        MOVX    A,@DPTR
        MOV     R6,A
        INC     DPTR
        MOVX    A,@DPTR
        MOV     R7,A
// 1238   uint16 offset;
// 1239 
// 1240   offset = findItem( id );
        ; Setup parameters for call to function findItem
        LCALL   ??findItem?relay
// 1241   if ( offset == OSAL_NV_ITEM_NULL )
        MOV     A,R2
        ORL     A,R3
        JNZ     ??osal_nv_read_0
// 1242   {
// 1243     return NV_OPER_FAILED;
        MOV     R1,#0xa
        SJMP    ??osal_nv_read_1
// 1244   }
// 1245 
// 1246   HalFlashRead(findPg, offset+ndx, buf, len);
??osal_nv_read_0:
        ; Setup parameters for call to function HalFlashRead
        MOV     R0,#?V0 + 2
        LCALL   ?PUSH_XSTACK_I_TWO
        CFI CFA_XSP16 add(XSP16, 16)
        MOV     A,R6
        MOV     R4,A
        MOV     A,R7
        MOV     R5,A
        MOV     A,R2
        ADD     A,?V0 + 0
        MOV     R2,A
        MOV     A,R3
        ADDC    A,?V0 + 1
        MOV     R3,A
        MOV     DPTR,#findPg
        MOVX    A,@DPTR
        MOV     R1,A
        LCALL   ??HalFlashRead?relay
        MOV     A,#0x2
        LCALL   ?DEALLOC_XSTACK8
        CFI CFA_XSP16 add(XSP16, 14)
// 1247 
// 1248   return ZSUCCESS;
        MOV     R1,#0x0
??osal_nv_read_1:
        MOV     R7,#0x6
        LJMP    ?BANKED_LEAVE_XDATA
        CFI EndBlock cfiBlock20
// 1249 }

        RSEG BANK_RELAYS:CODE:REORDER:NOROOT(0)
??initNV?relay:
        LCALL   ?BDISPATCH
        DATA
        DC24    initNV

        RSEG BANK_RELAYS:CODE:REORDER:NOROOT(0)
??setPageUse?relay:
        LCALL   ?BDISPATCH
        DATA
        DC24    setPageUse

        RSEG BANK_RELAYS:CODE:REORDER:NOROOT(0)
??initPage?relay:
        LCALL   ?BDISPATCH
        DATA
        DC24    initPage

        RSEG BANK_RELAYS:CODE:REORDER:NOROOT(0)
??erasePage?relay:
        LCALL   ?BDISPATCH
        DATA
        DC24    erasePage

        RSEG BANK_RELAYS:CODE:REORDER:NOROOT(0)
??compactPage?relay:
        LCALL   ?BDISPATCH
        DATA
        DC24    compactPage

        RSEG BANK_RELAYS:CODE:REORDER:NOROOT(0)
??findItem?relay:
        LCALL   ?BDISPATCH
        DATA
        DC24    findItem

        RSEG BANK_RELAYS:CODE:REORDER:NOROOT(0)
??initItem?relay:
        LCALL   ?BDISPATCH
        DATA
        DC24    initItem

        RSEG BANK_RELAYS:CODE:REORDER:NOROOT(0)
??setItem?relay:
        LCALL   ?BDISPATCH
        DATA
        DC24    setItem

        RSEG BANK_RELAYS:CODE:REORDER:NOROOT(0)
??calcChkB?relay:
        LCALL   ?BDISPATCH
        DATA
        DC24    calcChkB

        RSEG BANK_RELAYS:CODE:REORDER:NOROOT(0)
??calcChkF?relay:
        LCALL   ?BDISPATCH
        DATA
        DC24    calcChkF

        RSEG BANK_RELAYS:CODE:REORDER:NOROOT(0)
??writeWord?relay:
        LCALL   ?BDISPATCH
        DATA
        DC24    writeWord

        RSEG BANK_RELAYS:CODE:REORDER:NOROOT(0)
??writeWordM?relay:
        LCALL   ?BDISPATCH
        DATA
        DC24    writeWordM

        RSEG BANK_RELAYS:CODE:REORDER:NOROOT(0)
??writeWordH?relay:
        LCALL   ?BDISPATCH
        DATA
        DC24    writeWordH

        RSEG BANK_RELAYS:CODE:REORDER:NOROOT(0)
??writeBuf?relay:
        LCALL   ?BDISPATCH
        DATA
        DC24    writeBuf

        RSEG BANK_RELAYS:CODE:REORDER:NOROOT(0)
??xferBuf?relay:
        LCALL   ?BDISPATCH
        DATA
        DC24    xferBuf

        RSEG BANK_RELAYS:CODE:REORDER:NOROOT(0)
??writeItem?relay:
        LCALL   ?BDISPATCH
        DATA
        DC24    writeItem

        RSEG BANK_RELAYS:CODE:REORDER:NOROOT(0)
??osal_nv_init?relay:
        LCALL   ?BDISPATCH
        DATA
        DC24    osal_nv_init

        RSEG BANK_RELAYS:CODE:REORDER:NOROOT(0)
??osal_nv_item_init?relay:
        LCALL   ?BDISPATCH
        DATA
        DC24    osal_nv_item_init

        RSEG BANK_RELAYS:CODE:REORDER:NOROOT(0)
??osal_nv_item_len?relay:
        LCALL   ?BDISPATCH
        DATA
        DC24    osal_nv_item_len

        RSEG BANK_RELAYS:CODE:REORDER:NOROOT(0)
??osal_nv_write?relay:
        LCALL   ?BDISPATCH
        DATA
        DC24    osal_nv_write

        RSEG BANK_RELAYS:CODE:REORDER:NOROOT(0)
??osal_nv_read?relay:
        LCALL   ?BDISPATCH
        DATA
        DC24    osal_nv_read

        END
// 1250 
// 1251 /*********************************************************************
// 1252 *********************************************************************/
// 
//  4 660 bytes in segment BANKED_CODE
//    126 bytes in segment BANK_RELAYS
//      8 bytes in segment IEEE_ADDRESS_SPACE
//     27 bytes in segment XDATA_Z
// 12 288 bytes in segment ZIGNV_ADDRESS_SPACE
// 
//  4 786 bytes of CODE  memory
// 12 323 bytes of XDATA memory
//
//Errors: none
//Warnings: none
