///////////////////////////////////////////////////////////////////////////////
//                                                                            /
// IAR C/C++ Compiler V8.10.3.10338/W32 for 8051        18/Dec/2020  11:23:30 /
// Copyright 2004-2011 IAR Systems AB.                                        /
//                                                                            /
//    Core               =  plain                                             /
//    Code model         =  banked                                            /
//    Data model         =  large                                             /
//    Calling convention =  xdata reentrant                                   /
//    Constant location  =  data_rom                                          /
//    Dptr setup         =  1,16                                              /
//    Source file        =  C:\Users\Administrator\Desktop\eps\ZigBeeÕ®–≈ µ—È /
//                          \4.ZigBeeÕ¯¬Á¥´ ‰PM2.5 µ—È\Components\stack\zdo\Z /
//                          DProfile.c                                        /
//    Command line       =  -f C:\Users\Administrator\Desktop\eps\ZigBeeÕ®–≈  /
//                          µ—È\4.ZigBeeÕ¯¬Á¥´ ‰PM2.5 µ—È\Projects\zstack\Sam /
//                          ples\SampleApp\CC2530DB\..\..\..\Tools\CC2530DB\f /
//                          8wEndev.cfg (-DCPU32MHZ -DROOT=__near_func        /
//                          -DBLINK_LEDS) -f C:\Users\Administrator\Desktop\e /
//                          ps\ZigBeeÕ®–≈ µ—È\4.ZigBeeÕ¯¬Á¥´ ‰PM2.5 µ—È\Proje /
//                          cts\zstack\Samples\SampleApp\CC2530DB\..\..\..\To /
//                          ols\CC2530DB\f8wConfig.cfg (-DSECURE=0            /
//                          -DZG_SECURE_DYNAMIC=0 -DREFLECTOR                 /
//                          -DDEFAULT_CHANLIST=0x00000800                     /
//                          -DZDAPP_CONFIG_PAN_ID=0xFF11                      /
//                          -DNWK_START_DELAY=100 -DEXTENDED_JOINING_RANDOM_M /
//                          ASK=0x007F -DBEACON_REQUEST_DELAY=100             /
//                          -DBEACON_REQ_DELAY_MASK=0x00FF                    /
//                          -DROUTE_EXPIRY_TIME=30 -DAPSC_ACK_WAIT_DURATION_P /
//                          OLLED=3000 -DNWK_INDIRECT_MSG_TIMEOUT=7           /
//                          -DMAX_RREQ_ENTRIES=8 -DAPSC_MAX_FRAME_RETRIES=3   /
//                          -DNWK_MAX_DATA_RETRIES=2                          /
//                          -DMAX_POLL_FAILURE_RETRIES=2 -DMAX_BCAST=9        /
//                          -DAPS_MAX_GROUPS=16 -DMAX_RTG_ENTRIES=40          /
//                          -DNWK_MAX_BINDING_ENTRIES=4                       /
//                          -DMAX_BINDING_CLUSTER_IDS=4                       /
//                          "-DDEFAULT_KEY={0x01, 0x03, 0x05, 0x07, 0x09,     /
//                          0x0B, 0x0D, 0x0F, 0x00, 0x02, 0x04, 0x06, 0x08,   /
//                          0x0A, 0x0C, 0x0D}" -DMAC_MAX_FRAME_SIZE=116       /
//                          "-DCONST=const __code" -DGENERIC=__generic        /
//                          -DRFD_RCVC_ALWAYS_ON=FALSE -DPOLL_RATE=1000       /
//                          -DQUEUED_POLL_RATE=100 -DRESPONSE_POLL_RATE=100)  /
//                          -DREJOIN_POLL_RATE=440 C:\Users\Administrator\Des /
//                          ktop\eps\ZigBeeÕ®–≈ µ—È\4.ZigBeeÕ¯¬Á¥´ ‰PM2.5 µ—È /
//                          \Components\stack\zdo\ZDProfile.c -D              /
//                          NWK_AUTO_POLL -D ZTOOL_P1 -D MT_SYS_FUNC -D       /
//                          MT_ZDO_FUNC -D LCD_SUPPORTED=DEBUG -lC            /
//                          C:\Users\Administrator\Desktop\eps\ZigBeeÕ®–≈ µ—È /
//                          \4.ZigBeeÕ¯¬Á¥´ ‰PM2.5 µ—È\Projects\zstack\Sample /
//                          s\SampleApp\CC2530DB\EndDeviceEB\List\ -lA        /
//                          C:\Users\Administrator\Desktop\eps\ZigBeeÕ®–≈ µ—È /
//                          \4.ZigBeeÕ¯¬Á¥´ ‰PM2.5 µ—È\Projects\zstack\Sample /
//                          s\SampleApp\CC2530DB\EndDeviceEB\List\            /
//                          --diag_suppress Pe001,Pa010 -o                    /
//                          C:\Users\Administrator\Desktop\eps\ZigBeeÕ®–≈ µ—È /
//                          \4.ZigBeeÕ¯¬Á¥´ ‰PM2.5 µ—È\Projects\zstack\Sample /
//                          s\SampleApp\CC2530DB\EndDeviceEB\Obj\ -e          /
//                          --no_unroll --no_inline --no_tbaa --debug         /
//                          --core=plain --dptr=16,1 --data_model=large       /
//                          --code_model=banked --calling_convention=xdata_re /
//                          entrant --place_constants=data_rom                /
//                          --nr_virtual_regs 16 -I                           /
//                          C:\Users\Administrator\Desktop\eps\ZigBeeÕ®–≈ µ—È /
//                          \4.ZigBeeÕ¯¬Á¥´ ‰PM2.5 µ—È\Projects\zstack\Sample /
//                          s\SampleApp\CC2530DB\ -I                          /
//                          C:\Users\Administrator\Desktop\eps\ZigBeeÕ®–≈ µ—È /
//                          \4.ZigBeeÕ¯¬Á¥´ ‰PM2.5 µ—È\Projects\zstack\Sample /
//                          s\SampleApp\CC2530DB\..\SOURCE\ -I                /
//                          C:\Users\Administrator\Desktop\eps\ZigBeeÕ®–≈ µ—È /
//                          \4.ZigBeeÕ¯¬Á¥´ ‰PM2.5 µ—È\Projects\zstack\Sample /
//                          s\SampleApp\CC2530DB\..\..\..\ZMAIN\TI2530DB\ -I  /
//                          C:\Users\Administrator\Desktop\eps\ZigBeeÕ®–≈ µ—È /
//                          \4.ZigBeeÕ¯¬Á¥´ ‰PM2.5 µ—È\Projects\zstack\Sample /
//                          s\SampleApp\CC2530DB\..\..\..\..\..\COMPONENTS\MT /
//                          \ -I C:\Users\Administrator\Desktop\eps\ZigBeeÕ®– /
//                          ≈ µ—È\4.ZigBeeÕ¯¬Á¥´ ‰PM2.5 µ—È\Projects\zstack\S /
//                          amples\SampleApp\CC2530DB\..\..\..\..\..\COMPONEN /
//                          TS\HAL\INCLUDE\ -I C:\Users\Administrator\Desktop /
//                          \eps\ZigBeeÕ®–≈ µ—È\4.ZigBeeÕ¯¬Á¥´ ‰PM2.5 µ—È\Pro /
//                          jects\zstack\Samples\SampleApp\CC2530DB\..\..\..\ /
//                          ..\..\COMPONENTS\HAL\TARGET\CC2530EB\ -I          /
//                          C:\Users\Administrator\Desktop\eps\ZigBeeÕ®–≈ µ—È /
//                          \4.ZigBeeÕ¯¬Á¥´ ‰PM2.5 µ—È\Projects\zstack\Sample /
//                          s\SampleApp\CC2530DB\..\..\..\..\..\COMPONENTS\OS /
//                          AL\MCU\CCSOC\ -I C:\Users\Administrator\Desktop\e /
//                          ps\ZigBeeÕ®–≈ µ—È\4.ZigBeeÕ¯¬Á¥´ ‰PM2.5 µ—È\Proje /
//                          cts\zstack\Samples\SampleApp\CC2530DB\..\..\..\.. /
//                          \..\COMPONENTS\OSAL\INCLUDE\ -I                   /
//                          C:\Users\Administrator\Desktop\eps\ZigBeeÕ®–≈ µ—È /
//                          \4.ZigBeeÕ¯¬Á¥´ ‰PM2.5 µ—È\Projects\zstack\Sample /
//                          s\SampleApp\CC2530DB\..\..\..\..\..\COMPONENTS\ST /
//                          ACK\AF\ -I C:\Users\Administrator\Desktop\eps\Zig /
//                          BeeÕ®–≈ µ—È\4.ZigBeeÕ¯¬Á¥´ ‰PM2.5 µ—È\Projects\zs /
//                          tack\Samples\SampleApp\CC2530DB\..\..\..\..\..\CO /
//                          MPONENTS\STACK\NWK\ -I C:\Users\Administrator\Des /
//                          ktop\eps\ZigBeeÕ®–≈ µ—È\4.ZigBeeÕ¯¬Á¥´ ‰PM2.5 µ—È /
//                          \Projects\zstack\Samples\SampleApp\CC2530DB\..\.. /
//                          \..\..\..\COMPONENTS\STACK\SEC\ -I                /
//                          C:\Users\Administrator\Desktop\eps\ZigBeeÕ®–≈ µ—È /
//                          \4.ZigBeeÕ¯¬Á¥´ ‰PM2.5 µ—È\Projects\zstack\Sample /
//                          s\SampleApp\CC2530DB\..\..\..\..\..\COMPONENTS\ST /
//                          ACK\SAPI\ -I C:\Users\Administrator\Desktop\eps\Z /
//                          igBeeÕ®–≈ µ—È\4.ZigBeeÕ¯¬Á¥´ ‰PM2.5 µ—È\Projects\ /
//                          zstack\Samples\SampleApp\CC2530DB\..\..\..\..\..\ /
//                          COMPONENTS\STACK\SYS\ -I                          /
//                          C:\Users\Administrator\Desktop\eps\ZigBeeÕ®–≈ µ—È /
//                          \4.ZigBeeÕ¯¬Á¥´ ‰PM2.5 µ—È\Projects\zstack\Sample /
//                          s\SampleApp\CC2530DB\..\..\..\..\..\COMPONENTS\ST /
//                          ACK\ZDO\ -I C:\Users\Administrator\Desktop\eps\Zi /
//                          gBeeÕ®–≈ µ—È\4.ZigBeeÕ¯¬Á¥´ ‰PM2.5 µ—È\Projects\z /
//                          stack\Samples\SampleApp\CC2530DB\..\..\..\..\..\C /
//                          OMPONENTS\ZMAC\F8W\ -I C:\Users\Administrator\Des /
//                          ktop\eps\ZigBeeÕ®–≈ µ—È\4.ZigBeeÕ¯¬Á¥´ ‰PM2.5 µ—È /
//                          \Projects\zstack\Samples\SampleApp\CC2530DB\..\.. /
//                          \..\..\..\COMPONENTS\ZMAC\ -I                     /
//                          C:\Users\Administrator\Desktop\eps\ZigBeeÕ®–≈ µ—È /
//                          \4.ZigBeeÕ¯¬Á¥´ ‰PM2.5 µ—È\Projects\zstack\Sample /
//                          s\SampleApp\CC2530DB\..\..\..\..\..\COMPONENTS\SE /
//                          RVICES\SADDR\ -I C:\Users\Administrator\Desktop\e /
//                          ps\ZigBeeÕ®–≈ µ—È\4.ZigBeeÕ¯¬Á¥´ ‰PM2.5 µ—È\Proje /
//                          cts\zstack\Samples\SampleApp\CC2530DB\..\..\..\.. /
//                          \..\COMPONENTS\SERVICES\SDATA\ -I                 /
//                          C:\Users\Administrator\Desktop\eps\ZigBeeÕ®–≈ µ—È /
//                          \4.ZigBeeÕ¯¬Á¥´ ‰PM2.5 µ—È\Projects\zstack\Sample /
//                          s\SampleApp\CC2530DB\..\..\..\..\..\COMPONENTS\MA /
//                          C\INCLUDE\ -I C:\Users\Administrator\Desktop\eps\ /
//                          ZigBeeÕ®–≈ µ—È\4.ZigBeeÕ¯¬Á¥´ ‰PM2.5 µ—È\Projects /
//                          \zstack\Samples\SampleApp\CC2530DB\..\..\..\..\.. /
//                          \COMPONENTS\MAC\HIGH_LEVEL\ -I                    /
//                          C:\Users\Administrator\Desktop\eps\ZigBeeÕ®–≈ µ—È /
//                          \4.ZigBeeÕ¯¬Á¥´ ‰PM2.5 µ—È\Projects\zstack\Sample /
//                          s\SampleApp\CC2530DB\..\..\..\..\..\COMPONENTS\MA /
//                          C\LOW_LEVEL\srf04\ -I C:\Users\Administrator\Desk /
//                          top\eps\ZigBeeÕ®–≈ µ—È\4.ZigBeeÕ¯¬Á¥´ ‰PM2.5 µ—È\ /
//                          Projects\zstack\Samples\SampleApp\CC2530DB\..\..\ /
//                          ..\..\..\COMPONENTS\MAC\LOW_LEVEL\srf04\SINGLE_CH /
//                          IP\ -I C:\Users\Administrator\Desktop\eps\ZigBeeÕ /
//                          ®–≈ µ—È\4.ZigBeeÕ¯¬Á¥´ ‰PM2.5 µ—È\Projects\zstack /
//                          \Samples\SampleApp\CC2530DB\..\..\..\..\..\COMPON /
//                          ENTS\HARDWARE\ -Om                                /
//    List file          =  C:\Users\Administrator\Desktop\eps\ZigBeeÕ®–≈ µ—È /
//                          \4.ZigBeeÕ¯¬Á¥´ ‰PM2.5 µ—È\Projects\zstack\Sample /
//                          s\SampleApp\CC2530DB\EndDeviceEB\List\ZDProfile.s /
//                          51                                                /
//                                                                            /
//                                                                            /
///////////////////////////////////////////////////////////////////////////////

        NAME ZDProfile

        RTMODEL "__SystemLibrary", "CLib"
        RTMODEL "__calling_convention", "xdata_reentrant"
        RTMODEL "__code_model", "banked"
        RTMODEL "__core", "plain"
        RTMODEL "__data_model", "large"
        RTMODEL "__dptr_size", "16"
        RTMODEL "__extended_stack", "disabled"
        RTMODEL "__location_for_constants", "data"
        RTMODEL "__number_of_dptrs", "1"
        RTMODEL "__rt_version", "1"

        RSEG DOVERLAY:DATA:NOROOT(0)
        RSEG IOVERLAY:IDATA:NOROOT(0)
        RSEG ISTACK:IDATA:NOROOT(0)
        RSEG PSTACK:XDATA:NOROOT(0)
        RSEG XSTACK:XDATA:NOROOT(0)

        EXTERN ?ALLOC_XSTACK8
        EXTERN ?BANKED_ENTER_XDATA
        EXTERN ?BANKED_LEAVE_XDATA
        EXTERN ?BDISPATCH
        EXTERN ?CALL_IND
        EXTERN ?DEALLOC_XSTACK8
        EXTERN ?L_MOV_X
        EXTERN ?PUSH_XSTACK_I_FOUR
        EXTERN ?PUSH_XSTACK_I_ONE
        EXTERN ?PUSH_XSTACK_I_THREE
        EXTERN ?PUSH_XSTACK_I_TWO
        EXTERN ?S_SHL
        EXTERN ?US_SHR
        EXTERN ?V0
        EXTERN ?XSP
        EXTERN ?XSTACK_DISP0_8
        EXTERN __INIT_XDATA_I
        EXTERN __INIT_XDATA_Z

        PUBLIC ??ZDO_RegisterForZDOMsg?relay
        FUNCTION ??ZDO_RegisterForZDOMsg?relay,0203H
        PUBLIC ??ZDO_RemoveRegisteredCB?relay
        FUNCTION ??ZDO_RemoveRegisteredCB?relay,0203H
        PUBLIC ??ZDO_SendMsgCBs?relay
        FUNCTION ??ZDO_SendMsgCBs?relay,0203H
        PUBLIC ??ZDP_BindUnbindReq?relay
        FUNCTION ??ZDP_BindUnbindReq?relay,0203H
        PUBLIC ??ZDP_DeviceAnnce?relay
        FUNCTION ??ZDP_DeviceAnnce?relay,0203H
        PUBLIC ??ZDP_EPRsp?relay
        FUNCTION ??ZDP_EPRsp?relay,0203H
        PUBLIC ??ZDP_EndDeviceBindReq?relay
        FUNCTION ??ZDP_EndDeviceBindReq?relay,0203H
        PUBLIC ??ZDP_GenericRsp?relay
        FUNCTION ??ZDP_GenericRsp?relay,0203H
        PUBLIC ??ZDP_IEEEAddrReq?relay
        FUNCTION ??ZDP_IEEEAddrReq?relay,0203H
        PUBLIC ??ZDP_IncomingData?relay
        FUNCTION ??ZDP_IncomingData?relay,0203H
        PUBLIC ??ZDP_MatchDescReq?relay
        FUNCTION ??ZDP_MatchDescReq?relay,0203H
        PUBLIC ??ZDP_MgmtBindRsp?relay
        FUNCTION ??ZDP_MgmtBindRsp?relay,0203H
        PUBLIC ??ZDP_MgmtDirectJoinReq?relay
        FUNCTION ??ZDP_MgmtDirectJoinReq?relay,0203H
        PUBLIC ??ZDP_MgmtLeaveReq?relay
        FUNCTION ??ZDP_MgmtLeaveReq?relay,0203H
        PUBLIC ??ZDP_MgmtLqiRsp?relay
        FUNCTION ??ZDP_MgmtLqiRsp?relay,0203H
        PUBLIC ??ZDP_MgmtNwkDiscReq?relay
        FUNCTION ??ZDP_MgmtNwkDiscReq?relay,0203H
        PUBLIC ??ZDP_MgmtNwkDiscRsp?relay
        FUNCTION ??ZDP_MgmtNwkDiscRsp?relay,0203H
        PUBLIC ??ZDP_MgmtNwkUpdateNotify?relay
        FUNCTION ??ZDP_MgmtNwkUpdateNotify?relay,0203H
        PUBLIC ??ZDP_MgmtNwkUpdateReq?relay
        FUNCTION ??ZDP_MgmtNwkUpdateReq?relay,0203H
        PUBLIC ??ZDP_MgmtPermitJoinReq?relay
        FUNCTION ??ZDP_MgmtPermitJoinReq?relay,0203H
        PUBLIC ??ZDP_MgmtRtgRsp?relay
        FUNCTION ??ZDP_MgmtRtgRsp?relay,0203H
        PUBLIC ??ZDP_NWKAddrOfInterestReq?relay
        FUNCTION ??ZDP_NWKAddrOfInterestReq?relay,0203H
        PUBLIC ??ZDP_NodeDescMsg?relay
        FUNCTION ??ZDP_NodeDescMsg?relay,0203H
        PUBLIC ??ZDP_NwkAddrReq?relay
        FUNCTION ??ZDP_NwkAddrReq?relay,0203H
        PUBLIC ??ZDP_PowerDescMsg?relay
        FUNCTION ??ZDP_PowerDescMsg?relay,0203H
        PUBLIC ??ZDP_SendData?relay
        FUNCTION ??ZDP_SendData?relay,0203H
        PUBLIC ??ZDP_ServerDiscReq?relay
        FUNCTION ??ZDP_ServerDiscReq?relay,0203H
        PUBLIC ??ZDP_ServerDiscRsp?relay
        FUNCTION ??ZDP_ServerDiscRsp?relay,0203H
        PUBLIC ??ZDP_SimpleDescMsg?relay
        FUNCTION ??ZDP_SimpleDescMsg?relay,0203H
        PUBLIC ??ZDP_SimpleDescReq?relay
        FUNCTION ??ZDP_SimpleDescReq?relay,0203H
        PUBLIC ??ZDP_UserDescRsp?relay
        FUNCTION ??ZDP_UserDescRsp?relay,0203H
        PUBLIC ??ZDP_UserDescSet?relay
        FUNCTION ??ZDP_UserDescSet?relay,0203H
        FUNCTION ??fillAndSend?relay,0203H
        PUBLIC ??zdpProcessAddrReq?relay
        FUNCTION ??zdpProcessAddrReq?relay,0203H
        PUBLIC ZDO_RegisterForZDOMsg
        FUNCTION ZDO_RegisterForZDOMsg,021203H
        ARGFRAME XSTACK, 0, STACK
        LOCFRAME ISTACK, 1, STACK
        LOCFRAME XSTACK, 14, STACK
        PUBLIC ZDO_RemoveRegisteredCB
        FUNCTION ZDO_RemoveRegisteredCB,021203H
        ARGFRAME XSTACK, 0, STACK
        LOCFRAME XSTACK, 9, STACK
        PUBLIC ZDO_SendMsgCBs
        FUNCTION ZDO_SendMsgCBs,021203H
        ARGFRAME XSTACK, 31, STACK
        ARGFRAME IOVERLAY, 0, STATIC
        ARGFRAME DOVERLAY, 0, STATIC
        LOCFRAME XSTACK, 21, STACK
        PUBLIC ZDP_AF_ENDPOINT
        PUBLIC ZDP_BindUnbindReq
        FUNCTION ZDP_BindUnbindReq,021203H
        ARGFRAME XSTACK, 8, STACK
        LOCFRAME ISTACK, 1, STACK
        LOCFRAME XSTACK, 24, STACK
        PUBLIC ZDP_DeviceAnnce
        FUNCTION ZDP_DeviceAnnce,021203H
        ARGFRAME XSTACK, 1, STACK
        LOCFRAME ISTACK, 1, STACK
        LOCFRAME XSTACK, 21, STACK
        PUBLIC ZDP_EPRsp
        FUNCTION ZDP_EPRsp,021203H
        ARGFRAME XSTACK, 7, STACK
        LOCFRAME ISTACK, 1, STACK
        LOCFRAME XSTACK, 22, STACK
        PUBLIC ZDP_EndDeviceBindReq
        FUNCTION ZDP_EndDeviceBindReq,021203H
        ARGFRAME XSTACK, 9, STACK
        LOCFRAME ISTACK, 1, STACK
        LOCFRAME XSTACK, 26, STACK
        PUBLIC ZDP_GenericRsp
        FUNCTION ZDP_GenericRsp,021203H
        ARGFRAME XSTACK, 4, STACK
        LOCFRAME ISTACK, 1, STACK
        LOCFRAME XSTACK, 13, STACK
        PUBLIC ZDP_IEEEAddrReq
        FUNCTION ZDP_IEEEAddrReq,021203H
        ARGFRAME XSTACK, 0, STACK
        LOCFRAME ISTACK, 1, STACK
        LOCFRAME XSTACK, 21, STACK
        PUBLIC ZDP_IncomingData
        FUNCTION ZDP_IncomingData,021203H
        ARGFRAME XSTACK, 0, STACK
        LOCFRAME ISTACK, 1, STACK
        LOCFRAME XSTACK, 31, STACK
        PUBLIC ZDP_MatchDescReq
        FUNCTION ZDP_MatchDescReq,021203H
        ARGFRAME XSTACK, 8, STACK
        LOCFRAME ISTACK, 1, STACK
        LOCFRAME XSTACK, 20, STACK
        PUBLIC ZDP_MgmtBindRsp
        FUNCTION ZDP_MgmtBindRsp,021203H
        ARGFRAME XSTACK, 5, STACK
        LOCFRAME ISTACK, 1, STACK
        LOCFRAME XSTACK, 25, STACK
        PUBLIC ZDP_MgmtDirectJoinReq
        FUNCTION ZDP_MgmtDirectJoinReq,021203H
        ARGFRAME XSTACK, 1, STACK
        LOCFRAME ISTACK, 1, STACK
        LOCFRAME XSTACK, 14, STACK
        PUBLIC ZDP_MgmtLeaveReq
        FUNCTION ZDP_MgmtLeaveReq,021203H
        ARGFRAME XSTACK, 2, STACK
        LOCFRAME XSTACK, 14, STACK
        PUBLIC ZDP_MgmtLqiRsp
        FUNCTION ZDP_MgmtLqiRsp,021203H
        ARGFRAME XSTACK, 5, STACK
        LOCFRAME ISTACK, 1, STACK
        LOCFRAME XSTACK, 26, STACK
        PUBLIC ZDP_MgmtNwkDiscReq
        FUNCTION ZDP_MgmtNwkDiscReq,021203H
        ARGFRAME XSTACK, 4, STACK
        LOCFRAME ISTACK, 1, STACK
        LOCFRAME XSTACK, 20, STACK
        PUBLIC ZDP_MgmtNwkDiscRsp
        FUNCTION ZDP_MgmtNwkDiscRsp,021203H
        ARGFRAME XSTACK, 5, STACK
        LOCFRAME ISTACK, 1, STACK
        LOCFRAME XSTACK, 25, STACK
        PUBLIC ZDP_MgmtNwkUpdateNotify
        FUNCTION ZDP_MgmtNwkUpdateNotify,021203H
        ARGFRAME XSTACK, 12, STACK
        LOCFRAME ISTACK, 1, STACK
        LOCFRAME XSTACK, 31, STACK
        PUBLIC ZDP_MgmtNwkUpdateReq
        FUNCTION ZDP_MgmtNwkUpdateReq,021203H
        ARGFRAME XSTACK, 6, STACK
        LOCFRAME ISTACK, 1, STACK
        LOCFRAME XSTACK, 22, STACK
        PUBLIC ZDP_MgmtPermitJoinReq
        FUNCTION ZDP_MgmtPermitJoinReq,021203H
        ARGFRAME XSTACK, 0, STACK
        LOCFRAME ISTACK, 1, STACK
        LOCFRAME XSTACK, 12, STACK
        PUBLIC ZDP_MgmtRtgRsp
        FUNCTION ZDP_MgmtRtgRsp,021203H
        ARGFRAME XSTACK, 5, STACK
        LOCFRAME ISTACK, 1, STACK
        LOCFRAME XSTACK, 23, STACK
        PUBLIC ZDP_NWKAddrOfInterestReq
        FUNCTION ZDP_NWKAddrOfInterestReq,021203H
        ARGFRAME XSTACK, 1, STACK
        LOCFRAME ISTACK, 1, STACK
        LOCFRAME XSTACK, 12, STACK
        PUBLIC ZDP_NodeDescMsg
        FUNCTION ZDP_NodeDescMsg,021203H
        ARGFRAME XSTACK, 2, STACK
        LOCFRAME ISTACK, 1, STACK
        LOCFRAME XSTACK, 12, STACK
        PUBLIC ZDP_NwkAddrReq
        FUNCTION ZDP_NwkAddrReq,021203H
        ARGFRAME XSTACK, 0, STACK
        LOCFRAME ISTACK, 1, STACK
        LOCFRAME XSTACK, 25, STACK
        PUBLIC ZDP_PowerDescMsg
        FUNCTION ZDP_PowerDescMsg,021203H
        ARGFRAME XSTACK, 2, STACK
        LOCFRAME ISTACK, 1, STACK
        LOCFRAME XSTACK, 12, STACK
        PUBLIC ZDP_SendData
        FUNCTION ZDP_SendData,021203H
        ARGFRAME XSTACK, 5, STACK
        LOCFRAME ISTACK, 1, STACK
        LOCFRAME XSTACK, 16, STACK
        PUBLIC ZDP_ServerDiscReq
        FUNCTION ZDP_ServerDiscReq,021203H
        ARGFRAME XSTACK, 0, STACK
        LOCFRAME ISTACK, 1, STACK
        LOCFRAME XSTACK, 21, STACK
        PUBLIC ZDP_ServerDiscRsp
        FUNCTION ZDP_ServerDiscRsp,021203H
        ARGFRAME XSTACK, 4, STACK
        LOCFRAME ISTACK, 1, STACK
        LOCFRAME XSTACK, 13, STACK
        PUBLIC ZDP_SimpleDescMsg
        FUNCTION ZDP_SimpleDescMsg,021203H
        ARGFRAME XSTACK, 0, STACK
        LOCFRAME ISTACK, 2, STACK
        LOCFRAME XSTACK, 20, STACK
        PUBLIC ZDP_SimpleDescReq
        FUNCTION ZDP_SimpleDescReq,021203H
        ARGFRAME XSTACK, 1, STACK
        LOCFRAME ISTACK, 1, STACK
        LOCFRAME XSTACK, 12, STACK
        PUBLIC ZDP_TransID
        PUBLIC ZDP_UserDescRsp
        FUNCTION ZDP_UserDescRsp,021203H
        ARGFRAME XSTACK, 3, STACK
        LOCFRAME ISTACK, 1, STACK
        LOCFRAME XSTACK, 22, STACK
        PUBLIC ZDP_UserDescSet
        FUNCTION ZDP_UserDescSet,021203H
        ARGFRAME XSTACK, 2, STACK
        LOCFRAME ISTACK, 1, STACK
        LOCFRAME XSTACK, 22, STACK
        FUNCTION fillAndSend,021203H
        ARGFRAME XSTACK, 29, STACK
        ARGFRAME IOVERLAY, 0, STATIC
        ARGFRAME DOVERLAY, 0, STATIC
        LOCFRAME ISTACK, 1, STACK
        LOCFRAME XSTACK, 37, STACK
        PUBLIC zdoMsgCBs
        PUBLIC zdpMsgProcs
        PUBLIC zdpProcessAddrReq
        FUNCTION zdpProcessAddrReq,021603H
        ARGFRAME XSTACK, 0, STACK
        LOCFRAME ISTACK, 1, STACK
        LOCFRAME XSTACK, 17, STACK
        
        CFI Names cfiNames0
        CFI StackFrame CFA_SP SP IDATA
        CFI StackFrame CFA_PSP16 PSP16 XDATA
        CFI StackFrame CFA_XSP16 XSP16 XDATA
        CFI StaticOverlayFrame CFA_IOVERLAY IOVERLAY
        CFI StaticOverlayFrame CFA_DOVERLAY DOVERLAY
        CFI Resource `PSW.CY`:1, `B.BR0`:1, `B.BR1`:1, `B.BR2`:1, `B.BR3`:1
        CFI Resource `B.BR4`:1, `B.BR5`:1, `B.BR6`:1, `B.BR7`:1, `VB.BR8`:1
        CFI Resource `VB.BR9`:1, `VB.BR10`:1, `VB.BR11`:1, `VB.BR12`:1
        CFI Resource `VB.BR13`:1, `VB.BR14`:1, `VB.BR15`:1, VB:8, B:8, A:8
        CFI Resource PSW:8, DPL0:8, DPH0:8, R0:8, R1:8, R2:8, R3:8, R4:8, R5:8
        CFI Resource R6:8, R7:8, V0:8, V1:8, V2:8, V3:8, V4:8, V5:8, V6:8, V7:8
        CFI Resource V8:8, V9:8, V10:8, V11:8, V12:8, V13:8, V14:8, V15:8, SP:8
        CFI Resource PSPH:8, PSPL:8, PSP16:16, XSPH:8, XSPL:8, XSP16:16
        CFI VirtualResource ?RET:24
        CFI Resource ?BRET_EXT:8
        CFI VirtualResource ?RET_HIGH:8, ?RET_LOW:8
        CFI ResourceParts PSP16 PSPH, PSPL
        CFI ResourceParts XSP16 XSPH, XSPL
        CFI ResourceParts ?RET ?BRET_EXT, ?RET_HIGH, ?RET_LOW
        CFI EndNames cfiNames0
        
        CFI Common cfiCommon0 Using cfiNames0
        CFI CodeAlign 1
        CFI DataAlign -1
        CFI ReturnAddress ?RET CODE
        CFI CFA_DOVERLAY Used
        CFI CFA_IOVERLAY Used
        CFI CFA_SP SP+-3
        CFI CFA_PSP16 PSP16+0
        CFI CFA_XSP16 XSP16+0
        CFI `PSW.CY` SameValue
        CFI `B.BR0` SameValue
        CFI `B.BR1` SameValue
        CFI `B.BR2` SameValue
        CFI `B.BR3` SameValue
        CFI `B.BR4` SameValue
        CFI `B.BR5` SameValue
        CFI `B.BR6` SameValue
        CFI `B.BR7` SameValue
        CFI `VB.BR8` SameValue
        CFI `VB.BR9` SameValue
        CFI `VB.BR10` SameValue
        CFI `VB.BR11` SameValue
        CFI `VB.BR12` SameValue
        CFI `VB.BR13` SameValue
        CFI `VB.BR14` SameValue
        CFI `VB.BR15` SameValue
        CFI VB SameValue
        CFI B Undefined
        CFI A Undefined
        CFI PSW SameValue
        CFI DPL0 SameValue
        CFI DPH0 SameValue
        CFI R0 Undefined
        CFI R1 Undefined
        CFI R2 Undefined
        CFI R3 Undefined
        CFI R4 Undefined
        CFI R5 Undefined
        CFI R6 SameValue
        CFI R7 SameValue
        CFI V0 SameValue
        CFI V1 SameValue
        CFI V2 SameValue
        CFI V3 SameValue
        CFI V4 SameValue
        CFI V5 SameValue
        CFI V6 SameValue
        CFI V7 SameValue
        CFI V8 SameValue
        CFI V9 SameValue
        CFI V10 SameValue
        CFI V11 SameValue
        CFI V12 SameValue
        CFI V13 SameValue
        CFI V14 SameValue
        CFI V15 SameValue
        CFI PSPH Undefined
        CFI PSPL Undefined
        CFI XSPH Undefined
        CFI XSPL Undefined
        CFI ?RET Concat
        CFI ?BRET_EXT Frame(CFA_SP, 3)
        CFI ?RET_HIGH Frame(CFA_SP, 2)
        CFI ?RET_LOW Frame(CFA_SP, 1)
        CFI EndCommon cfiCommon0
        
osal_memset         SYMBOL "osal_memset"
AF_DataRequest      SYMBOL "AF_DataRequest"
sAddrExtCmp         SYMBOL "sAddrExtCmp"
sAddrExtCpy         SYMBOL "sAddrExtCpy"
osal_memcpy         SYMBOL "osal_memcpy"
NLME_GetShortAddr   SYMBOL "NLME_GetShortAddr"
NLME_GetExtAddr     SYMBOL "NLME_GetExtAddr"
osal_buffer_uint32  SYMBOL "osal_buffer_uint32"
osal_mem_alloc      SYMBOL "osal_mem_alloc"
osal_mem_free       SYMBOL "osal_mem_free"
osal_msg_allocate   SYMBOL "osal_msg_allocate"
osal_msg_send       SYMBOL "osal_msg_send"
ZDApp_InMsgCB       SYMBOL "ZDApp_InMsgCB"
??AF_DataRequest?relay SYMBOL "?relay", AF_DataRequest
??NLME_GetExtAddr?relay SYMBOL "?relay", NLME_GetExtAddr
??NLME_GetShortAddr?relay SYMBOL "?relay", NLME_GetShortAddr
??ZDApp_InMsgCB?relay SYMBOL "?relay", ZDApp_InMsgCB
`?<Name ZDO_ProcessActiveEPR 17>` SYMBOL "ZDO_ProcessActiveEPReq"
??ZDO_ProcessActiveEPReq?relay SYMBOL "?relay", `?<Name ZDO_ProcessActiveEPR 17>`
`?<Name ZDO_ProcessMatchDesc 19>` SYMBOL "ZDO_ProcessMatchDescReq"
??ZDO_ProcessMatchDescReq?relay SYMBOL "?relay", `?<Name ZDO_ProcessMatchDesc 19>`
`?<Name ZDO_ProcessNodeDescR 21>` SYMBOL "ZDO_ProcessNodeDescReq"
??ZDO_ProcessNodeDescReq?relay SYMBOL "?relay", `?<Name ZDO_ProcessNodeDescR 21>`
`?<Name ZDO_ProcessPowerDesc 23>` SYMBOL "ZDO_ProcessPowerDescReq"
??ZDO_ProcessPowerDescReq?relay SYMBOL "?relay", `?<Name ZDO_ProcessPowerDesc 23>`
`?<Name ZDO_ProcessServerDis 25>` SYMBOL "ZDO_ProcessServerDiscReq"
??ZDO_ProcessServerDiscReq?relay SYMBOL "?relay", `?<Name ZDO_ProcessServerDis 25>`
`?<Name ZDO_ProcessSimpleDes 27>` SYMBOL "ZDO_ProcessSimpleDescReq"
??ZDO_ProcessSimpleDescReq?relay SYMBOL "?relay", `?<Name ZDO_ProcessSimpleDes 27>`
`?<Name ZDO_ProcessUserDescR 29>` SYMBOL "ZDO_ProcessUserDescReq"
??ZDO_ProcessUserDescReq?relay SYMBOL "?relay", `?<Name ZDO_ProcessUserDescR 29>`
`?<Name ZDO_ProcessUserDescS 31>` SYMBOL "ZDO_ProcessUserDescSet"
??ZDO_ProcessUserDescSet?relay SYMBOL "?relay", `?<Name ZDO_ProcessUserDescS 31>`
??osal_buffer_uint32?relay SYMBOL "?relay", osal_buffer_uint32
??osal_mem_alloc?relay SYMBOL "?relay", osal_mem_alloc
??osal_mem_free?relay SYMBOL "?relay", osal_mem_free
??osal_memcpy?relay SYMBOL "?relay", osal_memcpy
??osal_memset?relay SYMBOL "?relay", osal_memset
??osal_msg_allocate?relay SYMBOL "?relay", osal_msg_allocate
??osal_msg_send?relay SYMBOL "?relay", osal_msg_send
??sAddrExtCmp?relay SYMBOL "?relay", sAddrExtCmp
??sAddrExtCpy?relay SYMBOL "?relay", sAddrExtCpy
ZDO_RegisterForZDOMsg SYMBOL "ZDO_RegisterForZDOMsg"
??ZDO_RegisterForZDOMsg?relay SYMBOL "?relay", ZDO_RegisterForZDOMsg
ZDO_RemoveRegisteredCB SYMBOL "ZDO_RemoveRegisteredCB"
??ZDO_RemoveRegisteredCB?relay SYMBOL "?relay", ZDO_RemoveRegisteredCB
ZDO_SendMsgCBs      SYMBOL "ZDO_SendMsgCBs"
??ZDO_SendMsgCBs?relay SYMBOL "?relay", ZDO_SendMsgCBs
ZDP_BindUnbindReq   SYMBOL "ZDP_BindUnbindReq"
??ZDP_BindUnbindReq?relay SYMBOL "?relay", ZDP_BindUnbindReq
ZDP_DeviceAnnce     SYMBOL "ZDP_DeviceAnnce"
??ZDP_DeviceAnnce?relay SYMBOL "?relay", ZDP_DeviceAnnce
ZDP_EPRsp           SYMBOL "ZDP_EPRsp"
??ZDP_EPRsp?relay   SYMBOL "?relay", ZDP_EPRsp
ZDP_EndDeviceBindReq SYMBOL "ZDP_EndDeviceBindReq"
??ZDP_EndDeviceBindReq?relay SYMBOL "?relay", ZDP_EndDeviceBindReq
ZDP_GenericRsp      SYMBOL "ZDP_GenericRsp"
??ZDP_GenericRsp?relay SYMBOL "?relay", ZDP_GenericRsp
ZDP_IEEEAddrReq     SYMBOL "ZDP_IEEEAddrReq"
??ZDP_IEEEAddrReq?relay SYMBOL "?relay", ZDP_IEEEAddrReq
ZDP_IncomingData    SYMBOL "ZDP_IncomingData"
??ZDP_IncomingData?relay SYMBOL "?relay", ZDP_IncomingData
ZDP_MatchDescReq    SYMBOL "ZDP_MatchDescReq"
??ZDP_MatchDescReq?relay SYMBOL "?relay", ZDP_MatchDescReq
ZDP_MgmtBindRsp     SYMBOL "ZDP_MgmtBindRsp"
??ZDP_MgmtBindRsp?relay SYMBOL "?relay", ZDP_MgmtBindRsp
ZDP_MgmtDirectJoinReq SYMBOL "ZDP_MgmtDirectJoinReq"
??ZDP_MgmtDirectJoinReq?relay SYMBOL "?relay", ZDP_MgmtDirectJoinReq
ZDP_MgmtLeaveReq    SYMBOL "ZDP_MgmtLeaveReq"
??ZDP_MgmtLeaveReq?relay SYMBOL "?relay", ZDP_MgmtLeaveReq
ZDP_MgmtLqiRsp      SYMBOL "ZDP_MgmtLqiRsp"
??ZDP_MgmtLqiRsp?relay SYMBOL "?relay", ZDP_MgmtLqiRsp
ZDP_MgmtNwkDiscReq  SYMBOL "ZDP_MgmtNwkDiscReq"
??ZDP_MgmtNwkDiscReq?relay SYMBOL "?relay", ZDP_MgmtNwkDiscReq
ZDP_MgmtNwkDiscRsp  SYMBOL "ZDP_MgmtNwkDiscRsp"
??ZDP_MgmtNwkDiscRsp?relay SYMBOL "?relay", ZDP_MgmtNwkDiscRsp
ZDP_MgmtNwkUpdateNotify SYMBOL "ZDP_MgmtNwkUpdateNotify"
??ZDP_MgmtNwkUpdateNotify?relay SYMBOL "?relay", ZDP_MgmtNwkUpdateNotify
ZDP_MgmtNwkUpdateReq SYMBOL "ZDP_MgmtNwkUpdateReq"
??ZDP_MgmtNwkUpdateReq?relay SYMBOL "?relay", ZDP_MgmtNwkUpdateReq
ZDP_MgmtPermitJoinReq SYMBOL "ZDP_MgmtPermitJoinReq"
??ZDP_MgmtPermitJoinReq?relay SYMBOL "?relay", ZDP_MgmtPermitJoinReq
ZDP_MgmtRtgRsp      SYMBOL "ZDP_MgmtRtgRsp"
??ZDP_MgmtRtgRsp?relay SYMBOL "?relay", ZDP_MgmtRtgRsp
ZDP_NWKAddrOfInterestReq SYMBOL "ZDP_NWKAddrOfInterestReq"
??ZDP_NWKAddrOfInterestReq?relay SYMBOL "?relay", ZDP_NWKAddrOfInterestReq
ZDP_NodeDescMsg     SYMBOL "ZDP_NodeDescMsg"
??ZDP_NodeDescMsg?relay SYMBOL "?relay", ZDP_NodeDescMsg
ZDP_NwkAddrReq      SYMBOL "ZDP_NwkAddrReq"
??ZDP_NwkAddrReq?relay SYMBOL "?relay", ZDP_NwkAddrReq
ZDP_PowerDescMsg    SYMBOL "ZDP_PowerDescMsg"
??ZDP_PowerDescMsg?relay SYMBOL "?relay", ZDP_PowerDescMsg
ZDP_SendData        SYMBOL "ZDP_SendData"
??ZDP_SendData?relay SYMBOL "?relay", ZDP_SendData
ZDP_ServerDiscReq   SYMBOL "ZDP_ServerDiscReq"
??ZDP_ServerDiscReq?relay SYMBOL "?relay", ZDP_ServerDiscReq
ZDP_ServerDiscRsp   SYMBOL "ZDP_ServerDiscRsp"
??ZDP_ServerDiscRsp?relay SYMBOL "?relay", ZDP_ServerDiscRsp
ZDP_SimpleDescMsg   SYMBOL "ZDP_SimpleDescMsg"
??ZDP_SimpleDescMsg?relay SYMBOL "?relay", ZDP_SimpleDescMsg
ZDP_SimpleDescReq   SYMBOL "ZDP_SimpleDescReq"
??ZDP_SimpleDescReq?relay SYMBOL "?relay", ZDP_SimpleDescReq
ZDP_UserDescRsp     SYMBOL "ZDP_UserDescRsp"
??ZDP_UserDescRsp?relay SYMBOL "?relay", ZDP_UserDescRsp
ZDP_UserDescSet     SYMBOL "ZDP_UserDescSet"
??ZDP_UserDescSet?relay SYMBOL "?relay", ZDP_UserDescSet
zdpProcessAddrReq   SYMBOL "zdpProcessAddrReq"
??zdpProcessAddrReq?relay SYMBOL "?relay", zdpProcessAddrReq

        EXTERN osal_memset
        FUNCTION osal_memset,0202H
        ARGFRAME ISTACK, 0, STACK
        ARGFRAME PSTACK, 0, STACK
        ARGFRAME XSTACK, 28, STACK
        ARGFRAME IOVERLAY, 0, STATIC
        ARGFRAME DOVERLAY, 0, STATIC
        EXTERN AF_DataRequest
        FUNCTION AF_DataRequest,0202H
        ARGFRAME ISTACK, 0, STACK
        ARGFRAME PSTACK, 0, STACK
        ARGFRAME XSTACK, 37, STACK
        ARGFRAME IOVERLAY, 0, STATIC
        ARGFRAME DOVERLAY, 0, STATIC
        EXTERN sAddrExtCmp
        FUNCTION sAddrExtCmp,0202H
        ARGFRAME ISTACK, 0, STACK
        ARGFRAME PSTACK, 0, STACK
        ARGFRAME XSTACK, 23, STACK
        ARGFRAME IOVERLAY, 0, STATIC
        ARGFRAME DOVERLAY, 0, STATIC
        EXTERN sAddrExtCpy
        FUNCTION sAddrExtCpy,0202H
        ARGFRAME ISTACK, 0, STACK
        ARGFRAME PSTACK, 0, STACK
        ARGFRAME XSTACK, 24, STACK
        ARGFRAME IOVERLAY, 0, STATIC
        ARGFRAME DOVERLAY, 0, STATIC
        EXTERN osal_memcpy
        FUNCTION osal_memcpy,0202H
        ARGFRAME ISTACK, 0, STACK
        ARGFRAME PSTACK, 0, STACK
        ARGFRAME XSTACK, 30, STACK
        ARGFRAME IOVERLAY, 0, STATIC
        ARGFRAME DOVERLAY, 0, STATIC
        EXTERN NLME_GetShortAddr
        FUNCTION NLME_GetShortAddr,0202H
        ARGFRAME ISTACK, 0, STACK
        ARGFRAME PSTACK, 0, STACK
        ARGFRAME XSTACK, 24, STACK
        ARGFRAME IOVERLAY, 0, STATIC
        ARGFRAME DOVERLAY, 0, STATIC
        EXTERN NLME_GetExtAddr
        FUNCTION NLME_GetExtAddr,0202H
        ARGFRAME ISTACK, 0, STACK
        ARGFRAME PSTACK, 0, STACK
        ARGFRAME XSTACK, 24, STACK
        ARGFRAME IOVERLAY, 0, STATIC
        ARGFRAME DOVERLAY, 0, STATIC
        EXTERN osal_buffer_uint32
        FUNCTION osal_buffer_uint32,0202H
        ARGFRAME ISTACK, 0, STACK
        ARGFRAME PSTACK, 0, STACK
        ARGFRAME XSTACK, 31, STACK
        ARGFRAME IOVERLAY, 0, STATIC
        ARGFRAME DOVERLAY, 0, STATIC
        EXTERN osal_mem_alloc
        FUNCTION osal_mem_alloc,0202H
        ARGFRAME ISTACK, 0, STACK
        ARGFRAME PSTACK, 0, STACK
        ARGFRAME XSTACK, 27, STACK
        ARGFRAME IOVERLAY, 0, STATIC
        ARGFRAME DOVERLAY, 0, STATIC
        EXTERN osal_mem_free
        FUNCTION osal_mem_free,0202H
        ARGFRAME ISTACK, 0, STACK
        ARGFRAME PSTACK, 0, STACK
        ARGFRAME XSTACK, 27, STACK
        ARGFRAME IOVERLAY, 0, STATIC
        ARGFRAME DOVERLAY, 0, STATIC
        EXTERN osal_msg_allocate
        FUNCTION osal_msg_allocate,0202H
        ARGFRAME ISTACK, 0, STACK
        ARGFRAME PSTACK, 0, STACK
        ARGFRAME XSTACK, 18, STACK
        ARGFRAME IOVERLAY, 0, STATIC
        ARGFRAME DOVERLAY, 0, STATIC
        EXTERN osal_msg_send
        FUNCTION osal_msg_send,0202H
        ARGFRAME ISTACK, 0, STACK
        ARGFRAME PSTACK, 0, STACK
        ARGFRAME XSTACK, 18, STACK
        ARGFRAME IOVERLAY, 0, STATIC
        ARGFRAME DOVERLAY, 0, STATIC
        EXTERN ZDApp_InMsgCB
        FUNCTION ZDApp_InMsgCB,0202H
        ARGFRAME ISTACK, 0, STACK
        ARGFRAME PSTACK, 0, STACK
        ARGFRAME XSTACK, 31, STACK
        ARGFRAME IOVERLAY, 0, STATIC
        ARGFRAME DOVERLAY, 0, STATIC
        EXTERN ??AF_DataRequest?relay
        FUNCTION ??AF_DataRequest?relay,00H
        EXTERN ??NLME_GetExtAddr?relay
        FUNCTION ??NLME_GetExtAddr?relay,00H
        EXTERN ??NLME_GetShortAddr?relay
        FUNCTION ??NLME_GetShortAddr?relay,00H
        EXTERN ??ZDApp_InMsgCB?relay
        FUNCTION ??ZDApp_InMsgCB?relay,00H
        EXTERN ??ZDO_ProcessActiveEPReq?relay
        FUNCTION ??ZDO_ProcessActiveEPReq?relay,00H
        EXTERN ??ZDO_ProcessMatchDescReq?relay
        FUNCTION ??ZDO_ProcessMatchDescReq?relay,00H
        EXTERN ??ZDO_ProcessNodeDescReq?relay
        FUNCTION ??ZDO_ProcessNodeDescReq?relay,00H
        EXTERN ??ZDO_ProcessPowerDescReq?relay
        FUNCTION ??ZDO_ProcessPowerDescReq?relay,00H
        EXTERN ??ZDO_ProcessServerDiscReq?relay
        FUNCTION ??ZDO_ProcessServerDiscReq?relay,00H
        EXTERN ??ZDO_ProcessSimpleDescReq?relay
        FUNCTION ??ZDO_ProcessSimpleDescReq?relay,00H
        EXTERN ??ZDO_ProcessUserDescReq?relay
        FUNCTION ??ZDO_ProcessUserDescReq?relay,00H
        EXTERN ??ZDO_ProcessUserDescSet?relay
        FUNCTION ??ZDO_ProcessUserDescSet?relay,00H
        EXTERN ??osal_buffer_uint32?relay
        FUNCTION ??osal_buffer_uint32?relay,00H
        EXTERN ??osal_mem_alloc?relay
        FUNCTION ??osal_mem_alloc?relay,00H
        EXTERN ??osal_mem_free?relay
        FUNCTION ??osal_mem_free?relay,00H
        EXTERN ??osal_memcpy?relay
        FUNCTION ??osal_memcpy?relay,00H
        EXTERN ??osal_memset?relay
        FUNCTION ??osal_memset?relay,00H
        EXTERN ??osal_msg_allocate?relay
        FUNCTION ??osal_msg_allocate?relay,00H
        EXTERN ??osal_msg_send?relay
        FUNCTION ??osal_msg_send?relay,00H
        EXTERN ??sAddrExtCmp?relay
        FUNCTION ??sAddrExtCmp?relay,00H
        EXTERN ??sAddrExtCpy?relay
        FUNCTION ??sAddrExtCpy?relay,00H
        EXTERN ZDAppNwkAddr
        EXTERN ZDApp_epDesc
        EXTERN saveExtAddr

// C:\Users\Administrator\Desktop\eps\ZigBeeÕ®–≈ µ—È\4.ZigBeeÕ¯¬Á¥´ ‰PM2.5 µ—È\Components\stack\zdo\ZDProfile.c
//    1 /**************************************************************************************************
//    2   Filename:       ZDProfile.c
//    3   Revised:        $Date: 2010-01-17 08:58:03 -0800 (Sun, 17 Jan 2010) $
//    4   Revision:       $Revision: 21533 $
//    5 
//    6   Description:    This is the Zigbee Device Profile.
//    7 
//    8 
//    9   Copyright 2004-2009 Texas Instruments Incorporated. All rights reserved.
//   10 
//   11   IMPORTANT: Your use of this Software is limited to those specific rights
//   12   granted under the terms of a software license agreement between the user
//   13   who downloaded the software, his/her employer (which must be your employer)
//   14   and Texas Instruments Incorporated (the "License").  You may not use this
//   15   Software unless you agree to abide by the terms of the License. The License
//   16   limits your use, and you acknowledge, that the Software may not be modified,
//   17   copied or distributed unless embedded on a Texas Instruments microcontroller
//   18   or used solely and exclusively in conjunction with a Texas Instruments radio
//   19   frequency transceiver, which is integrated into your product.  Other than for
//   20   the foregoing purpose, you may not use, reproduce, copy, prepare derivative
//   21   works of, modify, distribute, perform, display or sell this Software and/or
//   22   its documentation for any purpose.
//   23 
//   24   YOU FURTHER ACKNOWLEDGE AND AGREE THAT THE SOFTWARE AND DOCUMENTATION ARE
//   25   PROVIDED ìAS ISî WITHOUT WARRANTY OF ANY KIND, EITHER EXPRESS OR IMPLIED,
//   26   INCLUDING WITHOUT LIMITATION, ANY WARRANTY OF MERCHANTABILITY, TITLE,
//   27   NON-INFRINGEMENT AND FITNESS FOR A PARTICULAR PURPOSE. IN NO EVENT SHALL
//   28   TEXAS INSTRUMENTS OR ITS LICENSORS BE LIABLE OR OBLIGATED UNDER CONTRACT,
//   29   NEGLIGENCE, STRICT LIABILITY, CONTRIBUTION, BREACH OF WARRANTY, OR OTHER
//   30   LEGAL EQUITABLE THEORY ANY DIRECT OR INDIRECT DAMAGES OR EXPENSES
//   31   INCLUDING BUT NOT LIMITED TO ANY INCIDENTAL, SPECIAL, INDIRECT, PUNITIVE
//   32   OR CONSEQUENTIAL DAMAGES, LOST PROFITS OR LOST DATA, COST OF PROCUREMENT
//   33   OF SUBSTITUTE GOODS, TECHNOLOGY, SERVICES, OR ANY CLAIMS BY THIRD PARTIES
//   34   (INCLUDING BUT NOT LIMITED TO ANY DEFENSE THEREOF), OR OTHER SIMILAR COSTS.
//   35 
//   36   Should you have any questions regarding your right to use this Software,
//   37   contact Texas Instruments Incorporated at www.TI.com.
//   38 **************************************************************************************************/
//   39 
//   40 /*********************************************************************
//   41  * INCLUDES
//   42  */
//   43 #include "ZComdef.h"
//   44 #include "OSAL.h"
//   45 #include "AF.h"
//   46 #include "NLMEDE.h"
//   47 #include "nwk_util.h"
//   48 #include "APS.h"
//   49 
//   50 #include "AddrMgr.h"
//   51 #include "ZDConfig.h"
//   52 #include "ZDProfile.h"
//   53 #include "ZDObject.h"
//   54 #include "ZDNwkMgr.h"
//   55 
//   56 #if defined( LCD_SUPPORTED )
//   57   #include "OnBoard.h"
//   58 #endif
//   59 
//   60 #include "nwk_util.h"
//   61 
//   62 #if defined( MT_ZDO_FUNC )
//   63   #include "MT_ZDO.h"
//   64 #endif
//   65 
//   66 /*********************************************************************
//   67  * MACROS
//   68  */
//   69 
//   70 #define ZADDR_TO_AFADDR( pZADDR, AFADDR ) {                            \ 
//   71   (AFADDR).endPoint = ZDP_AF_ENDPOINT;                                 \ 
//   72   (AFADDR).addrMode = (afAddrMode_t)(pZADDR)->addrMode;                \ 
//   73   (AFADDR).addr.shortAddr = (pZADDR)->addr.shortAddr;                  \ 
//   74 }
//   75 
//   76 #define FillAndSendBuffer( TRANSSEQ, ADDR, ID, LEN, BUF ) {     \ 
//   77   afStatus_t stat;                                    \ 
//   78   ZDP_TmpBuf = (BUF)+1;                               \ 
//   79   stat = fillAndSend( (TRANSSEQ), (ADDR), (ID), (LEN) );          \ 
//   80   osal_mem_free( (BUF) );                             \ 
//   81   ZDP_TmpBuf = ZDP_Buf+1;                             \ 
//   82   return stat;                                        \ 
//   83 }
//   84 
//   85 #define FillAndSendTxOptions( TRANSSEQ, ADDR, ID, LEN, TxO ) {  \ 
//   86   afStatus_t stat;                                    \ 
//   87   ZDP_TxOptions = (TxO);                              \ 
//   88   stat = fillAndSend( (TRANSSEQ), (ADDR), (ID), (LEN) );          \ 
//   89   ZDP_TxOptions = AF_TX_OPTIONS_NONE;                 \ 
//   90   return stat;                                        \ 
//   91 }
//   92 
//   93 #define FillAndSendBufferTxOptions( TRANSSEQ, ADDR, ID, LEN, BUF, TxO ) { \ 
//   94   afStatus_t stat;                                    \ 
//   95   ZDP_TmpBuf = (BUF)+1;                               \ 
//   96   ZDP_TxOptions = (TxO);                              \ 
//   97   stat = fillAndSend( (TRANSSEQ), (ADDR), (ID), (LEN) );          \ 
//   98   osal_mem_free( (BUF) );                             \ 
//   99   ZDP_TmpBuf = ZDP_Buf+1;                             \ 
//  100   ZDP_TxOptions = AF_TX_OPTIONS_NONE;                 \ 
//  101   return stat;                                        \ 
//  102 }
//  103 
//  104 /*********************************************************************
//  105  * CONSTANTS
//  106  */
//  107 
//  108 #define ZDP_BUF_SZ          80
//  109 

        RSEG CODE_C:CODE:REORDER:NOROOT(0)
        DATA8
//  110 CONST byte ZDP_AF_ENDPOINT = 0;
ZDP_AF_ENDPOINT:
        DB 0
//  111 
//  112 /*********************************************************************
//  113  * TYPEDEFS
//  114  */
//  115 typedef struct
//  116 {
//  117   void *next;
//  118   uint8 taskID;
//  119   uint16 clusterID;
//  120 } ZDO_MsgCB_t;
//  121 
//  122 
//  123 /*********************************************************************
//  124  * GLOBAL VARIABLES
//  125  */
//  126 

        RSEG XDATA_Z:XDATA:NOROOT(0)
        DATA8
//  127 byte ZDP_TransID = 0;
ZDP_TransID:
        DS 1
        REQUIRE __INIT_XDATA_Z
//  128 
//  129 /*********************************************************************
//  130  * EXTERNAL VARIABLES
//  131  */
//  132 
//  133 extern endPointDesc_t ZDApp_epDesc;
//  134 
//  135 /*********************************************************************
//  136  * EXTERNAL FUNCTIONS
//  137  */
//  138 
//  139 /*********************************************************************
//  140  * LOCAL FUNCTIONS
//  141  */
//  142 
//  143 static afStatus_t fillAndSend( uint8 *transSeq, zAddrType_t *addr, cId_t clusterID, byte len );
//  144 uint8 ZDO_SendMsgCBs( zdoIncomingMsg_t *inMsg );
//  145 void zdpProcessAddrReq( zdoIncomingMsg_t *inMsg );
//  146 
//  147 /*********************************************************************
//  148  * LOCAL VARIABLES
//  149  */
//  150 

        RSEG XDATA_Z:XDATA:NOROOT(0)
        DATA8
//  151 static uint8  ZDP_Buf[ ZDP_BUF_SZ ];
ZDP_Buf:
        DS 80
        REQUIRE __INIT_XDATA_Z

        RSEG XDATA_I:XDATA:NOROOT(0)
//  152 static uint8 *ZDP_TmpBuf = ZDP_Buf+1;
ZDP_TmpBuf:
        DATA16
        DS 2
        REQUIRE `?<Initializer for ZDP_TmpBuf>`
        REQUIRE __INIT_XDATA_I

        RSEG XDATA_Z:XDATA:NOROOT(0)
        DATA8
//  153 static byte ZDP_TxOptions = AF_TX_OPTIONS_NONE;
ZDP_TxOptions:
        DS 1
        REQUIRE __INIT_XDATA_Z
//  154 

        RSEG XDATA_Z:XDATA:NOROOT(0)
        DATA16
//  155 ZDO_MsgCB_t *zdoMsgCBs = (ZDO_MsgCB_t *)NULL;
zdoMsgCBs:
        DS 2
        REQUIRE __INIT_XDATA_Z
//  156 
//  157 /*********************************************************************
//  158  * ZDO Message Processing table
//  159  */
//  160 
//  161 typedef void (*pfnZDPMsgProcessor)( zdoIncomingMsg_t *inMsg );
//  162 
//  163 typedef struct
//  164 {
//  165   uint16                clusterID;
//  166   pfnZDPMsgProcessor    pFn;
//  167 } zdpMsgProcItem_t;
//  168 

        RSEG CODE_C:CODE:REORDER:NOROOT(0)
        DATA8
//  169 CONST zdpMsgProcItem_t zdpMsgProcs[] =
zdpMsgProcs:
        DATA16
        DW 1
        DW ??zdpProcessAddrReq?relay
        DW 2
        DW ??ZDO_ProcessNodeDescReq?relay
        DW 3
        DW ??ZDO_ProcessPowerDescReq?relay
        DW 4
        DW ??ZDO_ProcessSimpleDescReq?relay
        DW 5
        DW ??ZDO_ProcessActiveEPReq?relay
        DW 6
        DW ??ZDO_ProcessMatchDescReq?relay
        DW 17
        DW ??ZDO_ProcessUserDescReq?relay
        DW 20
        DW ??ZDO_ProcessUserDescSet?relay
        DW 21
        DW ??ZDO_ProcessServerDiscReq?relay
        DW 65535
        DW 0H
//  170 {
//  171 #if ( RFD_RCVC_ALWAYS_ON==TRUE ) || ( ZG_BUILD_RTR_TYPE )
//  172   // These aren't processed by sleeping end devices.
//  173   { NWK_addr_req,           zdpProcessAddrReq },
//  174   { Device_annce,           ZDO_ProcessDeviceAnnce },
//  175 #endif
//  176   { IEEE_addr_req,          zdpProcessAddrReq },
//  177   { Node_Desc_req,          ZDO_ProcessNodeDescReq },
//  178   { Power_Desc_req,         ZDO_ProcessPowerDescReq },
//  179   { Simple_Desc_req,        ZDO_ProcessSimpleDescReq },
//  180   { Active_EP_req,          ZDO_ProcessActiveEPReq },
//  181   { Match_Desc_req,         ZDO_ProcessMatchDescReq },
//  182 #if defined ( ZDO_MGMT_NWKDISC_RESPONSE )
//  183   { Mgmt_NWK_Disc_req,      ZDO_ProcessMgmtNwkDiscReq },
//  184 #endif
//  185 #if defined ( ZDO_MGMT_LQI_RESPONSE ) && ( ZG_BUILD_RTR_TYPE )
//  186   { Mgmt_Lqi_req,           ZDO_ProcessMgmtLqiReq },
//  187 #endif
//  188 #if defined ( ZDO_MGMT_RTG_RESPONSE ) && ( ZG_BUILD_RTR_TYPE )
//  189   { Mgmt_Rtg_req,           ZDO_ProcessMgmtRtgReq },
//  190 #endif
//  191 #if defined ( ZDO_MGMT_BIND_RESPONSE ) && defined ( REFLECTOR )
//  192   { Mgmt_Bind_req,          ZDO_ProcessMgmtBindReq },
//  193 #endif
//  194 #if defined ( ZDO_MGMT_JOINDIRECT_RESPONSE ) && ( ZG_BUILD_RTR_TYPE )
//  195   { Mgmt_Direct_Join_req,   ZDO_ProcessMgmtDirectJoinReq },
//  196 #endif
//  197 #if defined ( ZDO_MGMT_LEAVE_RESPONSE )
//  198   { Mgmt_Leave_req,         ZDO_ProcessMgmtLeaveReq },
//  199 #endif
//  200 #if defined ( ZDO_MGMT_PERMIT_JOIN_RESPONSE )  && ( ZG_BUILD_RTR_TYPE )
//  201   { Mgmt_Permit_Join_req,   ZDO_ProcessMgmtPermitJoinReq },
//  202 #endif
//  203 #if defined ( ZDO_USERDESC_RESPONSE )
//  204   { User_Desc_req,          ZDO_ProcessUserDescReq },
//  205 #endif
//  206 #if defined ( ZDO_USERDESCSET_RESPONSE )
//  207   { User_Desc_set,          ZDO_ProcessUserDescSet },
//  208 #endif
//  209 #if defined ( ZDO_SERVERDISC_RESPONSE )
//  210   { Server_Discovery_req,   ZDO_ProcessServerDiscReq },
//  211 #endif
//  212   {0xFFFF, NULL} // Last
//  213 };
//  214 
//  215 /*********************************************************************
//  216  * @fn          fillAndSend
//  217  *
//  218  * @brief       Combined to reduce space
//  219  *
//  220  * @param
//  221  * @param
//  222  *
//  223  * @return      afStatus_t
//  224  */

        RSEG BANKED_CODE:CODE:NOROOT(0)
//  225 static afStatus_t fillAndSend( uint8 *transSeq, zAddrType_t *addr, cId_t clusterID, byte len )
fillAndSend:
        CFI Block cfiBlock0 Using cfiCommon0
        CFI Function fillAndSend
        CODE
//  226 {
        FUNCALL fillAndSend, osal_memset
        LOCFRAME ISTACK, 0, STACK
        LOCFRAME PSTACK, 0, STACK
        LOCFRAME XSTACK, 28, STACK
        LOCFRAME IOVERLAY, 0, STATIC
        LOCFRAME DOVERLAY, 0, STATIC
        ARGFRAME ISTACK, 0, STACK
        ARGFRAME PSTACK, 0, STACK
        ARGFRAME XSTACK, 28, STACK
        ARGFRAME IOVERLAY, 0, STATIC
        ARGFRAME DOVERLAY, 0, STATIC
        FUNCALL fillAndSend, AF_DataRequest
        LOCFRAME ISTACK, 0, STACK
        LOCFRAME PSTACK, 0, STACK
        LOCFRAME XSTACK, 37, STACK
        LOCFRAME IOVERLAY, 0, STATIC
        LOCFRAME DOVERLAY, 0, STATIC
        ARGFRAME ISTACK, 0, STACK
        ARGFRAME PSTACK, 0, STACK
        ARGFRAME XSTACK, 37, STACK
        ARGFRAME IOVERLAY, 0, STATIC
        ARGFRAME DOVERLAY, 0, STATIC
        MOV     A,#-0x10
        LCALL   ?BANKED_ENTER_XDATA
        CFI DPH0 load(1, XDATA, add(CFA_XSP16, literal(-1)))
        CFI DPL0 load(1, XDATA, add(CFA_XSP16, literal(-2)))
        CFI ?BRET_EXT load(1, XDATA, add(CFA_XSP16, literal(-3)))
        CFI ?RET_HIGH load(1, XDATA, add(CFA_XSP16, literal(-4)))
        CFI ?RET_LOW load(1, XDATA, add(CFA_XSP16, literal(-5)))
        CFI R7 load(1, XDATA, add(CFA_XSP16, literal(-6)))
        CFI V7 load(1, XDATA, add(CFA_XSP16, literal(-7)))
        CFI V6 load(1, XDATA, add(CFA_XSP16, literal(-8)))
        CFI V5 load(1, XDATA, add(CFA_XSP16, literal(-9)))
        CFI V4 load(1, XDATA, add(CFA_XSP16, literal(-10)))
        CFI V3 load(1, XDATA, add(CFA_XSP16, literal(-11)))
        CFI V2 load(1, XDATA, add(CFA_XSP16, literal(-12)))
        CFI V1 load(1, XDATA, add(CFA_XSP16, literal(-13)))
        CFI V0 load(1, XDATA, add(CFA_XSP16, literal(-14)))
        CFI VB load(1, XDATA, add(CFA_XSP16, literal(-15)))
        CFI R6 load(1, XDATA, add(CFA_XSP16, literal(-16)))
        CFI CFA_SP SP+0
        CFI CFA_XSP16 add(XSP16, 16)
        ; Saved register size: 16
        ; Auto size: 12
        MOV     A,#-0xc
        LCALL   ?ALLOC_XSTACK8
        CFI CFA_XSP16 add(XSP16, 28)
        MOV     ?V0 + 2,R2
        MOV     ?V0 + 3,R3
        MOV     A,R4
        MOV     R6,A
        MOV     A,R5
        MOV     R7,A
        MOV     ?V0 + 6,R1
        MOV     A,#0x1c
        LCALL   ?XSTACK_DISP0_8
        MOVX    A,@DPTR
        MOV     ?V0 + 0,A
        INC     DPTR
        MOVX    A,@DPTR
        MOV     ?V0 + 1,A
//  227   afAddrType_t afAddr;
//  228 
//  229   osal_memset( &afAddr, 0, sizeof(afAddrType_t) );
        ; Setup parameters for call to function osal_memset
        MOV     R4,#0xc
        MOV     R5,#0x0
        MOV     R1,#0x0
        MOV     DPL,?XSP + 0
        MOV     DPH,?XSP + 1
        MOV     R2,DPL
        MOV     R3,DPH
        LCALL   ??osal_memset?relay
//  230   ZADDR_TO_AFADDR( addr, afAddr );
        MOV     A,#0x9
        LCALL   ?XSTACK_DISP0_8
        CLR     A
        MOVX    @DPTR,A
        MOV     DPL,R6
        MOV     DPH,R7
        INC     DPTR
        INC     DPTR
        INC     DPTR
        INC     DPTR
        INC     DPTR
        INC     DPTR
        INC     DPTR
        INC     DPTR
        MOVX    A,@DPTR
        PUSH    A
        CFI CFA_SP SP+-1
        MOV     A,#0x8
        LCALL   ?XSTACK_DISP0_8
        POP     A
        CFI CFA_SP SP+0
        MOVX    @DPTR,A
        MOV     DPL,R6
        MOV     DPH,R7
        MOVX    A,@DPTR
        MOV     R0,A
        INC     DPTR
        MOVX    A,@DPTR
        MOV     R1,A
        MOV     DPL,?XSP + 0
        MOV     DPH,?XSP + 1
        MOV     A,R0
        MOVX    @DPTR,A
        INC     DPTR
        MOV     A,R1
        MOVX    @DPTR,A
//  231 
//  232   *(ZDP_TmpBuf-1) = *transSeq;
        MOV     DPTR,#ZDP_TmpBuf
        MOVX    A,@DPTR
        ADD     A,#-0x1
        MOV     ?V0 + 4,A
        INC     DPTR
        MOVX    A,@DPTR
        ADDC    A,#-0x1
        MOV     ?V0 + 5,A
        MOV     DPL,?V0 + 2
        MOV     DPH,?V0 + 3
        MOVX    A,@DPTR
        MOV     DPL,?V0 + 4
        MOV     DPH,?V0 + 5
        MOVX    @DPTR,A
//  233 
//  234   return AF_DataRequest( &afAddr, &ZDApp_epDesc, clusterID,
//  235                            (uint16)(len+1), (uint8*)(ZDP_TmpBuf-1),
//  236                            transSeq, ZDP_TxOptions,  AF_DEFAULT_RADIUS );
        ; Setup parameters for call to function AF_DataRequest
        MOV     ?V0 + 7,#0x1e
        MOV     R0,#?V0 + 7
        LCALL   ?PUSH_XSTACK_I_ONE
        CFI CFA_XSP16 add(XSP16, 29)
        MOV     R0,#?V0 + 2
        LCALL   ?PUSH_XSTACK_I_TWO
        CFI CFA_XSP16 add(XSP16, 31)
        MOV     R0,#?V0 + 4
        LCALL   ?PUSH_XSTACK_I_TWO
        CFI CFA_XSP16 add(XSP16, 33)
        MOV     ?V0 + 2,?V0 + 6
        MOV     A,?V0 + 2
        ADD     A,#0x1
        MOV     ?V0 + 2,A
        CLR     A
        ADDC    A,#0x0
        MOV     ?V0 + 3,A
        MOV     R0,#?V0 + 2
        LCALL   ?PUSH_XSTACK_I_TWO
        CFI CFA_XSP16 add(XSP16, 35)
        MOV     R0,#?V0 + 0
        LCALL   ?PUSH_XSTACK_I_TWO
        CFI CFA_XSP16 add(XSP16, 37)
        MOV     DPTR,#ZDP_TxOptions
        MOVX    A,@DPTR
        MOV     R1,A
        MOV     R4,#ZDApp_epDesc & 0xff
        MOV     R5,#(ZDApp_epDesc >> 8) & 0xff
        MOV     A,#0x9
        LCALL   ?XSTACK_DISP0_8
        MOV     R2,DPL
        MOV     R3,DPH
        LCALL   ??AF_DataRequest?relay
        MOV     A,#0x9
        LCALL   ?DEALLOC_XSTACK8
        CFI CFA_XSP16 add(XSP16, 28)
        MOV     A,#0xc
        LCALL   ?DEALLOC_XSTACK8
        CFI CFA_XSP16 add(XSP16, 16)
        MOV     R7,#0x8
        LJMP    ?BANKED_LEAVE_XDATA
        CFI EndBlock cfiBlock0
//  237 
//  238 }
//  239 
//  240 /*********************************************************************
//  241  * @fn          ZDP_SendData
//  242  *
//  243  * @brief       This builds and send a request message that has
//  244  *              NWKAddrOfInterest as its only parameter.
//  245  *
//  246  * @param       dstAddr - destination address
//  247  * @param       cmd - clusterID
//  248  * @param       dataLen - number of bytes of data
//  249  * @param       data - pointer to the data
//  250  * @param       SecurityEnable - Security Options
//  251  *
//  252  * @return      afStatus_t
//  253  */

        RSEG BANKED_CODE:CODE:NOROOT(0)
//  254 afStatus_t ZDP_SendData( uint8 *TransSeq, zAddrType_t *dstAddr, uint16 cmd,
ZDP_SendData:
        CFI Block cfiBlock1 Using cfiCommon0
        CFI Function ZDP_SendData
        CODE
//  255                         byte len, uint8 *buf, byte SecurityEnable )
//  256 {
        FUNCALL ZDP_SendData, fillAndSend
        LOCFRAME ISTACK, 0, STACK
        LOCFRAME PSTACK, 0, STACK
        LOCFRAME XSTACK, 16, STACK
        LOCFRAME IOVERLAY, 0, STATIC
        LOCFRAME DOVERLAY, 0, STATIC
        ARGFRAME ISTACK, 0, STACK
        ARGFRAME PSTACK, 0, STACK
        ARGFRAME XSTACK, 16, STACK
        ARGFRAME IOVERLAY, 0, STATIC
        ARGFRAME DOVERLAY, 0, STATIC
        MOV     A,#-0xe
        LCALL   ?BANKED_ENTER_XDATA
        CFI DPH0 load(1, XDATA, add(CFA_XSP16, literal(-1)))
        CFI DPL0 load(1, XDATA, add(CFA_XSP16, literal(-2)))
        CFI ?BRET_EXT load(1, XDATA, add(CFA_XSP16, literal(-3)))
        CFI ?RET_HIGH load(1, XDATA, add(CFA_XSP16, literal(-4)))
        CFI ?RET_LOW load(1, XDATA, add(CFA_XSP16, literal(-5)))
        CFI R7 load(1, XDATA, add(CFA_XSP16, literal(-6)))
        CFI V5 load(1, XDATA, add(CFA_XSP16, literal(-7)))
        CFI V4 load(1, XDATA, add(CFA_XSP16, literal(-8)))
        CFI V3 load(1, XDATA, add(CFA_XSP16, literal(-9)))
        CFI V2 load(1, XDATA, add(CFA_XSP16, literal(-10)))
        CFI V1 load(1, XDATA, add(CFA_XSP16, literal(-11)))
        CFI V0 load(1, XDATA, add(CFA_XSP16, literal(-12)))
        CFI VB load(1, XDATA, add(CFA_XSP16, literal(-13)))
        CFI R6 load(1, XDATA, add(CFA_XSP16, literal(-14)))
        CFI CFA_SP SP+0
        CFI CFA_XSP16 add(XSP16, 14)
        ; Saved register size: 14
        ; Auto size: 0
        MOV     A,R1
        MOV     R6,A
        MOV     A,#0xe
        LCALL   ?XSTACK_DISP0_8
        MOVX    A,@DPTR
        MOV     ?V0 + 2,A
        INC     DPTR
        MOVX    A,@DPTR
        MOV     ?V0 + 3,A
        MOV     A,#0x10
        LCALL   ?XSTACK_DISP0_8
        MOVX    A,@DPTR
        MOV     ?V0 + 4,A
        INC     DPTR
        MOVX    A,@DPTR
        MOV     ?V0 + 5,A
        MOV     A,#0x12
        LCALL   ?XSTACK_DISP0_8
        MOVX    A,@DPTR
        MOV     ?V0 + 1,A
//  257   uint8 *pBuf = ZDP_TmpBuf;
        MOV     DPTR,#ZDP_TmpBuf
        MOVX    A,@DPTR
        MOV     R0,A
        INC     DPTR
        MOVX    A,@DPTR
        MOV     R1,A
//  258   byte cnt = len;
        MOV     A,R6
        MOV     R7,A
        SJMP    ??ZDP_SendData_0
//  259 
//  260   while ( cnt-- )
//  261   {
//  262     *pBuf++ = *buf++;
??ZDP_SendData_1:
        MOV     DPL,?V0 + 4
        MOV     DPH,?V0 + 5
        MOVX    A,@DPTR
        MOV     DPL,R0
        MOV     DPH,R1
        MOVX    @DPTR,A
        MOV     DPL,?V0 + 4
        MOV     DPH,?V0 + 5
        INC     DPTR
        MOV     ?V0 + 4,DPL
        MOV     ?V0 + 5,DPH
        MOV     DPL,R0
        MOV     DPH,R1
        INC     DPTR
        MOV     R0,DPL
        MOV     R1,DPH
//  263   }
??ZDP_SendData_0:
        MOV     ?V0 + 0,R7
        MOV     A,#-0x1
        ADD     A,?V0 + 0
        DEC     R7
        INC     A
        JNZ     ??ZDP_SendData_1
//  264 
//  265   FillAndSendTxOptions( TransSeq, dstAddr, cmd, len,
//  266                (AF_DEFAULT_RADIUS | ((SecurityEnable) ? AF_EN_SECURITY : 0)) );
        MOV     A,?V0 + 1
        JZ      ??ZDP_SendData_2
        MOV     R0,#0x40
        SJMP    ??ZDP_SendData_3
??ZDP_SendData_2:
        MOV     R0,#0x0
??ZDP_SendData_3:
        MOV     A,R0
        ORL     A,#0x1e
        MOV     DPTR,#ZDP_TxOptions
        MOVX    @DPTR,A
        ; Setup parameters for call to function fillAndSend
        MOV     R0,#?V0 + 2
        LCALL   ?PUSH_XSTACK_I_TWO
        CFI CFA_XSP16 add(XSP16, 16)
        MOV     A,R6
        MOV     R1,A
        LCALL   ??fillAndSend?relay
        MOV     A,#0x2
        LCALL   ?DEALLOC_XSTACK8
        CFI CFA_XSP16 add(XSP16, 14)
        MOV     DPTR,#ZDP_TxOptions
        CLR     A
        MOVX    @DPTR,A
        MOV     R7,#0x6
        LJMP    ?BANKED_LEAVE_XDATA
        CFI EndBlock cfiBlock1
//  267 }
//  268 
//  269 /*********************************************************************
//  270  * @fn          ZDP_NWKAddrOfInterestReq
//  271  *
//  272  * @brief       This builds and send a request message that has
//  273  *              NWKAddrOfInterest as its only parameter.
//  274  *
//  275  * @param       dstAddr - destination address
//  276  * @param       nwkAddr - 16 bit address
//  277  * @param       SecurityEnable - Security Options
//  278  *
//  279  * @return      afStatus_t
//  280  */

        RSEG BANKED_CODE:CODE:NOROOT(0)
//  281 afStatus_t ZDP_NWKAddrOfInterestReq( zAddrType_t *dstAddr, uint16 nwkAddr,
ZDP_NWKAddrOfInterestReq:
        CFI Block cfiBlock2 Using cfiCommon0
        CFI Function ZDP_NWKAddrOfInterestReq
        CODE
//  282                                      byte cmd, byte SecurityEnable )
//  283 {
        FUNCALL ZDP_NWKAddrOfInterestReq, fillAndSend
        LOCFRAME ISTACK, 0, STACK
        LOCFRAME PSTACK, 0, STACK
        LOCFRAME XSTACK, 12, STACK
        LOCFRAME IOVERLAY, 0, STATIC
        LOCFRAME DOVERLAY, 0, STATIC
        ARGFRAME ISTACK, 0, STACK
        ARGFRAME PSTACK, 0, STACK
        ARGFRAME XSTACK, 12, STACK
        ARGFRAME IOVERLAY, 0, STATIC
        ARGFRAME DOVERLAY, 0, STATIC
        MOV     A,#-0xa
        LCALL   ?BANKED_ENTER_XDATA
        CFI DPH0 load(1, XDATA, add(CFA_XSP16, literal(-1)))
        CFI DPL0 load(1, XDATA, add(CFA_XSP16, literal(-2)))
        CFI ?BRET_EXT load(1, XDATA, add(CFA_XSP16, literal(-3)))
        CFI ?RET_HIGH load(1, XDATA, add(CFA_XSP16, literal(-4)))
        CFI ?RET_LOW load(1, XDATA, add(CFA_XSP16, literal(-5)))
        CFI R7 load(1, XDATA, add(CFA_XSP16, literal(-6)))
        CFI V1 load(1, XDATA, add(CFA_XSP16, literal(-7)))
        CFI V0 load(1, XDATA, add(CFA_XSP16, literal(-8)))
        CFI VB load(1, XDATA, add(CFA_XSP16, literal(-9)))
        CFI R6 load(1, XDATA, add(CFA_XSP16, literal(-10)))
        CFI CFA_SP SP+0
        CFI CFA_XSP16 add(XSP16, 10)
        ; Saved register size: 10
        ; Auto size: 0
        MOV     A,R1
        MOV     R6,A
//  284   (void)SecurityEnable;  // Intentionally unreferenced parameter
//  285 
//  286   ZDP_TmpBuf[0] = LO_UINT16( nwkAddr );
        MOV     A,R4
        PUSH    A
        CFI CFA_SP SP+-1
        MOV     DPTR,#ZDP_TmpBuf
        MOVX    A,@DPTR
        MOV     R0,A
        INC     DPTR
        MOVX    A,@DPTR
        MOV     DPH,A
        MOV     DPL,R0
        POP     A
        CFI CFA_SP SP+0
        MOVX    @DPTR,A
//  287   ZDP_TmpBuf[1] = HI_UINT16( nwkAddr );
        MOV     A,R5
        PUSH    A
        CFI CFA_SP SP+-1
        MOV     DPTR,#ZDP_TmpBuf
        MOVX    A,@DPTR
        MOV     R0,A
        INC     DPTR
        MOVX    A,@DPTR
        MOV     DPH,A
        MOV     DPL,R0
        INC     DPTR
        POP     A
        CFI CFA_SP SP+0
        MOVX    @DPTR,A
//  288 
//  289   return fillAndSend( &ZDP_TransID, dstAddr, cmd, 2 );
        ; Setup parameters for call to function fillAndSend
        MOV     ?V0 + 0,R6
        MOV     ?V0 + 1,#0x0
        MOV     R0,#?V0 + 0
        LCALL   ?PUSH_XSTACK_I_TWO
        CFI CFA_XSP16 add(XSP16, 12)
        MOV     R1,#0x2
        MOV     A,R2
        MOV     R4,A
        MOV     A,R3
        MOV     R5,A
        MOV     R2,#ZDP_TransID & 0xff
        MOV     R3,#(ZDP_TransID >> 8) & 0xff
        LCALL   ??fillAndSend?relay
        MOV     A,#0x2
        LCALL   ?DEALLOC_XSTACK8
        CFI CFA_XSP16 add(XSP16, 10)
        MOV     R7,#0x2
        LJMP    ?BANKED_LEAVE_XDATA
        CFI EndBlock cfiBlock2
//  290 }
//  291 
//  292 /*********************************************************************
//  293  * Address Requests
//  294  */
//  295 
//  296 /*********************************************************************
//  297  * @fn          ZDP_NwkAddrReq
//  298  *
//  299  * @brief       This builds and send a NWK_addr_req message.  This
//  300  *              function sends a broadcast message looking for a 16
//  301  *              bit address with a 64 bit address as bait.
//  302  *
//  303  * @param       IEEEAddress - looking for this device
//  304  * @param       SecurityEnable - Security Options
//  305  *
//  306  * @return      afStatus_t
//  307  */

        RSEG BANKED_CODE:CODE:NOROOT(0)
//  308 afStatus_t ZDP_NwkAddrReq( uint8 *IEEEAddress, byte ReqType,
ZDP_NwkAddrReq:
        CFI Block cfiBlock3 Using cfiCommon0
        CFI Function ZDP_NwkAddrReq
        CODE
//  309                            byte StartIndex, byte SecurityEnable )
//  310 {
        FUNCALL ZDP_NwkAddrReq, sAddrExtCmp
        LOCFRAME ISTACK, 0, STACK
        LOCFRAME PSTACK, 0, STACK
        LOCFRAME XSTACK, 23, STACK
        LOCFRAME IOVERLAY, 0, STATIC
        LOCFRAME DOVERLAY, 0, STATIC
        ARGFRAME ISTACK, 0, STACK
        ARGFRAME PSTACK, 0, STACK
        ARGFRAME XSTACK, 23, STACK
        ARGFRAME IOVERLAY, 0, STATIC
        ARGFRAME DOVERLAY, 0, STATIC
        FUNCALL ZDP_NwkAddrReq, sAddrExtCpy
        LOCFRAME ISTACK, 0, STACK
        LOCFRAME PSTACK, 0, STACK
        LOCFRAME XSTACK, 23, STACK
        LOCFRAME IOVERLAY, 0, STATIC
        LOCFRAME DOVERLAY, 0, STATIC
        ARGFRAME ISTACK, 0, STACK
        ARGFRAME PSTACK, 0, STACK
        ARGFRAME XSTACK, 23, STACK
        ARGFRAME IOVERLAY, 0, STATIC
        ARGFRAME DOVERLAY, 0, STATIC
        FUNCALL ZDP_NwkAddrReq, fillAndSend
        LOCFRAME ISTACK, 0, STACK
        LOCFRAME PSTACK, 0, STACK
        LOCFRAME XSTACK, 25, STACK
        LOCFRAME IOVERLAY, 0, STATIC
        LOCFRAME DOVERLAY, 0, STATIC
        ARGFRAME ISTACK, 0, STACK
        ARGFRAME PSTACK, 0, STACK
        ARGFRAME XSTACK, 25, STACK
        ARGFRAME IOVERLAY, 0, STATIC
        ARGFRAME DOVERLAY, 0, STATIC
        MOV     A,#-0xe
        LCALL   ?BANKED_ENTER_XDATA
        CFI DPH0 load(1, XDATA, add(CFA_XSP16, literal(-1)))
        CFI DPL0 load(1, XDATA, add(CFA_XSP16, literal(-2)))
        CFI ?BRET_EXT load(1, XDATA, add(CFA_XSP16, literal(-3)))
        CFI ?RET_HIGH load(1, XDATA, add(CFA_XSP16, literal(-4)))
        CFI ?RET_LOW load(1, XDATA, add(CFA_XSP16, literal(-5)))
        CFI R7 load(1, XDATA, add(CFA_XSP16, literal(-6)))
        CFI V5 load(1, XDATA, add(CFA_XSP16, literal(-7)))
        CFI V4 load(1, XDATA, add(CFA_XSP16, literal(-8)))
        CFI V3 load(1, XDATA, add(CFA_XSP16, literal(-9)))
        CFI V2 load(1, XDATA, add(CFA_XSP16, literal(-10)))
        CFI V1 load(1, XDATA, add(CFA_XSP16, literal(-11)))
        CFI V0 load(1, XDATA, add(CFA_XSP16, literal(-12)))
        CFI VB load(1, XDATA, add(CFA_XSP16, literal(-13)))
        CFI R6 load(1, XDATA, add(CFA_XSP16, literal(-14)))
        CFI CFA_SP SP+0
        CFI CFA_XSP16 add(XSP16, 14)
        ; Saved register size: 14
        ; Auto size: 9
        MOV     A,#-0x9
        LCALL   ?ALLOC_XSTACK8
        CFI CFA_XSP16 add(XSP16, 23)
        MOV     A,R2
        MOV     R6,A
        MOV     A,R3
        MOV     R7,A
        MOV     ?V0 + 2,R1
        MOV     ?V0 + 3,R4
//  311   uint8 *pBuf = ZDP_TmpBuf;
        MOV     DPTR,#ZDP_TmpBuf
        MOVX    A,@DPTR
        MOV     ?V0 + 0,A
        INC     DPTR
        MOVX    A,@DPTR
        MOV     ?V0 + 1,A
//  312   byte len = Z_EXTADDR_LEN + 1 + 1;  // IEEEAddress + ReqType + StartIndex.
//  313   zAddrType_t dstAddr;
//  314 
//  315   (void)SecurityEnable;  // Intentionally unreferenced parameter
//  316 
//  317   if ( osal_ExtAddrEqual( saveExtAddr, IEEEAddress ) == FALSE )
        ; Setup parameters for call to function sAddrExtCmp
        MOV     A,R6
        MOV     R4,A
        MOV     A,R7
        MOV     R5,A
        MOV     R2,#saveExtAddr & 0xff
        MOV     R3,#(saveExtAddr >> 8) & 0xff
        LCALL   ??sAddrExtCmp?relay
        MOV     A,R1
        JNZ     ??ZDP_NwkAddrReq_0
//  318   {
//  319     dstAddr.addrMode = AddrBroadcast;
        MOV     A,#0x8
        LCALL   ?XSTACK_DISP0_8
        MOV     A,#0xf
        MOVX    @DPTR,A
//  320     dstAddr.addr.shortAddr = NWK_BROADCAST_SHORTADDR_DEVRXON;
        MOV     DPL,?XSP + 0
        MOV     DPH,?XSP + 1
        MOV     A,#-0x3
        MOVX    @DPTR,A
        INC     DPTR
        MOV     A,#-0x1
        SJMP    ??ZDP_NwkAddrReq_1
//  321   }
//  322   else
//  323   {
//  324     dstAddr.addrMode = Addr16Bit;
??ZDP_NwkAddrReq_0:
        MOV     A,#0x8
        LCALL   ?XSTACK_DISP0_8
        MOV     A,#0x2
        MOVX    @DPTR,A
//  325     dstAddr.addr.shortAddr = ZDAppNwkAddr.addr.shortAddr;
        MOV     DPTR,#ZDAppNwkAddr
        MOVX    A,@DPTR
        MOV     R0,A
        INC     DPTR
        MOVX    A,@DPTR
        MOV     R1,A
        MOV     DPL,?XSP + 0
        MOV     DPH,?XSP + 1
        MOV     A,R0
        MOVX    @DPTR,A
        INC     DPTR
        MOV     A,R1
??ZDP_NwkAddrReq_1:
        MOVX    @DPTR,A
//  326   }
//  327 
//  328   pBuf = osal_cpyExtAddr( pBuf, IEEEAddress );
        ; Setup parameters for call to function sAddrExtCpy
        MOV     A,R6
        MOV     R4,A
        MOV     A,R7
        MOV     R5,A
        MOV     R2,?V0 + 0
        MOV     R3,?V0 + 1
        LCALL   ??sAddrExtCpy?relay
//  329 
//  330   *pBuf++ = ReqType;
        MOV     DPL,R2
        MOV     DPH,R3
        MOV     A,?V0 + 2
        MOVX    @DPTR,A
        INC     DPTR
//  331   *pBuf++ = StartIndex;
        MOV     A,?V0 + 3
        MOVX    @DPTR,A
//  332 
//  333   return fillAndSend( &ZDP_TransID, &dstAddr, NWK_addr_req, len );
        ; Setup parameters for call to function fillAndSend
        CLR     A
        MOV     ?V0 + 0,A
        MOV     ?V0 + 1,A
        MOV     R0,#?V0 + 0
        LCALL   ?PUSH_XSTACK_I_TWO
        CFI CFA_XSP16 add(XSP16, 25)
        MOV     R1,#0xa
        MOV     A,#0x2
        LCALL   ?XSTACK_DISP0_8
        MOV     R4,DPL
        MOV     R5,DPH
        MOV     R2,#ZDP_TransID & 0xff
        MOV     R3,#(ZDP_TransID >> 8) & 0xff
        LCALL   ??fillAndSend?relay
        MOV     A,#0x2
        LCALL   ?DEALLOC_XSTACK8
        CFI CFA_XSP16 add(XSP16, 23)
        MOV     A,#0x9
        LCALL   ?DEALLOC_XSTACK8
        CFI CFA_XSP16 add(XSP16, 14)
        MOV     R7,#0x6
        LJMP    ?BANKED_LEAVE_XDATA
        CFI EndBlock cfiBlock3
//  334 }
//  335 
//  336 /*********************************************************************
//  337  * @fn          ZDP_IEEEAddrReq
//  338  *
//  339  * @brief       This builds and send a IEEE_addr_req message.  This
//  340  *              function sends a unicast message looking for a 64
//  341  *              bit IEEE address with a 16 bit address as bait.
//  342  *
//  343  * @param       ReqType - ZDP_IEEEADDR_REQTYPE_SINGLE or
//  344  *                        ZDP_IEEEADDR_REQTYPE_EXTENDED
//  345  * @param       SecurityEnable - Security Options
//  346  *
//  347  * @return      afStatus_t
//  348  */

        RSEG BANKED_CODE:CODE:NOROOT(0)
//  349 afStatus_t ZDP_IEEEAddrReq( uint16 shortAddr, byte ReqType,
ZDP_IEEEAddrReq:
        CFI Block cfiBlock4 Using cfiCommon0
        CFI Function ZDP_IEEEAddrReq
        CODE
//  350                             byte StartIndex, byte SecurityEnable )
//  351 {
        FUNCALL ZDP_IEEEAddrReq, fillAndSend
        LOCFRAME ISTACK, 0, STACK
        LOCFRAME PSTACK, 0, STACK
        LOCFRAME XSTACK, 21, STACK
        LOCFRAME IOVERLAY, 0, STATIC
        LOCFRAME DOVERLAY, 0, STATIC
        ARGFRAME ISTACK, 0, STACK
        ARGFRAME PSTACK, 0, STACK
        ARGFRAME XSTACK, 21, STACK
        ARGFRAME IOVERLAY, 0, STATIC
        ARGFRAME DOVERLAY, 0, STATIC
        MOV     A,#-0xa
        LCALL   ?BANKED_ENTER_XDATA
        CFI DPH0 load(1, XDATA, add(CFA_XSP16, literal(-1)))
        CFI DPL0 load(1, XDATA, add(CFA_XSP16, literal(-2)))
        CFI ?BRET_EXT load(1, XDATA, add(CFA_XSP16, literal(-3)))
        CFI ?RET_HIGH load(1, XDATA, add(CFA_XSP16, literal(-4)))
        CFI ?RET_LOW load(1, XDATA, add(CFA_XSP16, literal(-5)))
        CFI R7 load(1, XDATA, add(CFA_XSP16, literal(-6)))
        CFI V1 load(1, XDATA, add(CFA_XSP16, literal(-7)))
        CFI V0 load(1, XDATA, add(CFA_XSP16, literal(-8)))
        CFI VB load(1, XDATA, add(CFA_XSP16, literal(-9)))
        CFI R6 load(1, XDATA, add(CFA_XSP16, literal(-10)))
        CFI CFA_SP SP+0
        CFI CFA_XSP16 add(XSP16, 10)
        ; Saved register size: 10
        ; Auto size: 9
        MOV     A,#-0x9
        LCALL   ?ALLOC_XSTACK8
        CFI CFA_XSP16 add(XSP16, 19)
        MOV     A,R1
        MOV     R6,A
        MOV     A,R4
        MOV     R7,A
//  352   uint8 *pBuf = ZDP_TmpBuf;
        MOV     DPTR,#ZDP_TmpBuf
        MOVX    A,@DPTR
        MOV     R0,A
        INC     DPTR
        MOVX    A,@DPTR
        MOV     R1,A
//  353   byte len = 2 + 1 + 1;  // shortAddr + ReqType + StartIndex.
//  354   zAddrType_t dstAddr;
//  355 
//  356   (void)SecurityEnable;  // Intentionally unreferenced parameter
//  357 
//  358   dstAddr.addrMode = (afAddrMode_t)Addr16Bit;
        MOV     A,#0x8
        LCALL   ?XSTACK_DISP0_8
        MOV     A,#0x2
        MOVX    @DPTR,A
//  359   dstAddr.addr.shortAddr = shortAddr;
        MOV     DPL,?XSP + 0
        MOV     DPH,?XSP + 1
        MOV     A,R2
        MOVX    @DPTR,A
        INC     DPTR
        MOV     A,R3
        MOVX    @DPTR,A
//  360 
//  361   *pBuf++ = LO_UINT16( shortAddr );
        MOV     A,R2
        MOV     DPL,R0
        MOV     DPH,R1
        MOVX    @DPTR,A
        INC     DPTR
//  362   *pBuf++ = HI_UINT16( shortAddr );
        MOV     A,R3
        MOVX    @DPTR,A
        INC     DPTR
//  363 
//  364   *pBuf++ = ReqType;
        MOV     A,R6
        MOVX    @DPTR,A
        INC     DPTR
//  365   *pBuf++ = StartIndex;
        MOV     A,R7
        MOVX    @DPTR,A
//  366 
//  367   return fillAndSend( &ZDP_TransID, &dstAddr, IEEE_addr_req, len );
        ; Setup parameters for call to function fillAndSend
        MOV     ?V0 + 0,#0x1
        MOV     ?V0 + 1,#0x0
        MOV     R0,#?V0 + 0
        LCALL   ?PUSH_XSTACK_I_TWO
        CFI CFA_XSP16 add(XSP16, 21)
        MOV     R1,#0x4
        MOV     A,#0x2
        LCALL   ?XSTACK_DISP0_8
        MOV     R4,DPL
        MOV     R5,DPH
        MOV     R2,#ZDP_TransID & 0xff
        MOV     R3,#(ZDP_TransID >> 8) & 0xff
        LCALL   ??fillAndSend?relay
        MOV     A,#0x2
        LCALL   ?DEALLOC_XSTACK8
        CFI CFA_XSP16 add(XSP16, 19)
        MOV     A,#0x9
        LCALL   ?DEALLOC_XSTACK8
        CFI CFA_XSP16 add(XSP16, 10)
        MOV     R7,#0x2
        LJMP    ?BANKED_LEAVE_XDATA
        CFI EndBlock cfiBlock4
//  368 }
//  369 
//  370 /*********************************************************************
//  371  * @fn          ZDP_MatchDescReq
//  372  *
//  373  * @brief       This builds and send a Match_Desc_req message.  This
//  374  *              function sends a broadcast or unicast message
//  375  *              requesting the list of endpoint/interfaces that
//  376  *              match profile ID and cluster IDs.
//  377  *
//  378  * @param       dstAddr - destination address
//  379  * @param       nwkAddr - network address of interest
//  380  * @param       ProfileID - Profile ID
//  381  * @param       NumInClusters - number of input clusters
//  382  * @param       InClusterList - input cluster ID list
//  383  * @param       NumOutClusters - number of output clusters
//  384  * @param       OutClusterList - output cluster ID list
//  385  * @param       SecurityEnable - Security Options
//  386  *
//  387  * @return      afStatus_t
//  388  */

        RSEG BANKED_CODE:CODE:NOROOT(0)
//  389 afStatus_t ZDP_MatchDescReq( zAddrType_t *dstAddr, uint16 nwkAddr,
ZDP_MatchDescReq:
        CFI Block cfiBlock5 Using cfiCommon0
        CFI Function ZDP_MatchDescReq
        CODE
//  390                                 uint16 ProfileID,
//  391                                 byte NumInClusters, cId_t *InClusterList,
//  392                                 byte NumOutClusters, cId_t *OutClusterList,
//  393                                 byte SecurityEnable )
//  394 {
        FUNCALL ZDP_MatchDescReq, fillAndSend
        LOCFRAME ISTACK, 0, STACK
        LOCFRAME PSTACK, 0, STACK
        LOCFRAME XSTACK, 20, STACK
        LOCFRAME IOVERLAY, 0, STATIC
        LOCFRAME DOVERLAY, 0, STATIC
        ARGFRAME ISTACK, 0, STACK
        ARGFRAME PSTACK, 0, STACK
        ARGFRAME XSTACK, 20, STACK
        ARGFRAME IOVERLAY, 0, STATIC
        ARGFRAME DOVERLAY, 0, STATIC
        MOV     A,#-0x12
        LCALL   ?BANKED_ENTER_XDATA
        CFI DPH0 load(1, XDATA, add(CFA_XSP16, literal(-1)))
        CFI DPL0 load(1, XDATA, add(CFA_XSP16, literal(-2)))
        CFI ?BRET_EXT load(1, XDATA, add(CFA_XSP16, literal(-3)))
        CFI ?RET_HIGH load(1, XDATA, add(CFA_XSP16, literal(-4)))
        CFI ?RET_LOW load(1, XDATA, add(CFA_XSP16, literal(-5)))
        CFI R7 load(1, XDATA, add(CFA_XSP16, literal(-6)))
        CFI V9 load(1, XDATA, add(CFA_XSP16, literal(-7)))
        CFI V8 load(1, XDATA, add(CFA_XSP16, literal(-8)))
        CFI V7 load(1, XDATA, add(CFA_XSP16, literal(-9)))
        CFI V6 load(1, XDATA, add(CFA_XSP16, literal(-10)))
        CFI V5 load(1, XDATA, add(CFA_XSP16, literal(-11)))
        CFI V4 load(1, XDATA, add(CFA_XSP16, literal(-12)))
        CFI V3 load(1, XDATA, add(CFA_XSP16, literal(-13)))
        CFI V2 load(1, XDATA, add(CFA_XSP16, literal(-14)))
        CFI V1 load(1, XDATA, add(CFA_XSP16, literal(-15)))
        CFI V0 load(1, XDATA, add(CFA_XSP16, literal(-16)))
        CFI VB load(1, XDATA, add(CFA_XSP16, literal(-17)))
        CFI R6 load(1, XDATA, add(CFA_XSP16, literal(-18)))
        CFI CFA_SP SP+0
        CFI CFA_XSP16 add(XSP16, 18)
        ; Saved register size: 18
        ; Auto size: 0
        MOV     A,R1
        MOV     R6,A
        MOV     A,#0x12
        LCALL   ?XSTACK_DISP0_8
        MOVX    A,@DPTR
        MOV     ?V0 + 0,A
        INC     DPTR
        MOVX    A,@DPTR
        MOV     ?V0 + 1,A
        MOV     A,#0x14
        LCALL   ?XSTACK_DISP0_8
        MOVX    A,@DPTR
        MOV     R0,A
        INC     DPTR
        MOVX    A,@DPTR
        MOV     R1,A
        MOV     ?V0 + 2,R0
        MOV     ?V0 + 3,R1
        MOV     A,#0x16
        LCALL   ?XSTACK_DISP0_8
        MOVX    A,@DPTR
        MOV     R7,A
        MOV     A,#0x17
        LCALL   ?XSTACK_DISP0_8
        MOVX    A,@DPTR
        MOV     R0,A
        INC     DPTR
        MOVX    A,@DPTR
        MOV     R1,A
        MOV     ?V0 + 6,R0
        MOV     ?V0 + 7,R1
//  395   uint8 *pBuf = ZDP_TmpBuf;
        MOV     DPTR,#ZDP_TmpBuf
        MOVX    A,@DPTR
        MOV     R0,A
        INC     DPTR
        MOVX    A,@DPTR
        MOV     R1,A
//  396   // nwkAddr+ProfileID+NumInClusters+NumOutClusters.
//  397   byte i, len = 2 + 2 + 1 + 1;  // nwkAddr+ProfileID+NumInClusters+NumOutClusters.
//  398 
//  399   (void)SecurityEnable;  // Intentionally unreferenced parameter
//  400 
//  401   len += (NumInClusters + NumOutClusters) * sizeof(uint16);
        MOV     A,R6
        ADD     A,R7
        CLR     C
        RLC     A
        ADD     A,#0x6
        MOV     ?V0 + 4,A
//  402 
//  403   if ( len >= ZDP_BUF_SZ-1 )
        CLR     C
        SUBB    A,#0x4f
        JC      ??ZDP_MatchDescReq_0
//  404   {
//  405     return afStatus_MEM_FAIL;
        MOV     R1,#0x10
        LJMP    ??ZDP_MatchDescReq_1 & 0xFFFF
//  406   }
//  407 
//  408   // The spec changed in Zigbee 2007 (2.4.3.1.7.1) to not allow sending
//  409   // this command to 0xFFFF.  So, here we will filter this and replace 
//  410   // with 0xFFFD to only send to devices with RX ON.  This includes the 
//  411   // network address of interest.
//  412   if ( ((dstAddr->addrMode == AddrBroadcast) || (dstAddr->addrMode == Addr16Bit))
//  413       && (dstAddr->addr.shortAddr == NWK_BROADCAST_SHORTADDR_DEVALL) )
??ZDP_MatchDescReq_0:
        MOV     A,R2
        ADD     A,#0x8
        MOV     DPL,A
        MOV     A,R3
        ADDC    A,#0x0
        MOV     DPH,A
        MOVX    A,@DPTR
        XRL     A,#0xf
        JZ      ??ZDP_MatchDescReq_2
        MOVX    A,@DPTR
        XRL     A,#0x2
        JNZ     ??ZDP_MatchDescReq_3
??ZDP_MatchDescReq_2:
        MOV     DPL,R2
        MOV     DPH,R3
        MOVX    A,@DPTR
        CPL     A
        JNZ     ??ZDP_MatchDescReq_4
        INC     DPTR
        MOVX    A,@DPTR
        CPL     A
??ZDP_MatchDescReq_4:
        JNZ     ??ZDP_MatchDescReq_3
//  414   {
//  415     dstAddr->addr.shortAddr = NWK_BROADCAST_SHORTADDR_DEVRXON;
        MOV     DPL,R2
        MOV     DPH,R3
        MOV     A,#-0x3
        MOVX    @DPTR,A
        INC     DPTR
        MOV     A,#-0x1
        MOVX    @DPTR,A
//  416   }
//  417   if ( nwkAddr == NWK_BROADCAST_SHORTADDR_DEVALL )
??ZDP_MatchDescReq_3:
        MOV     A,#-0x1
        XRL     A,R4
        JNZ     ??ZDP_MatchDescReq_5
        MOV     A,#-0x1
        XRL     A,R5
??ZDP_MatchDescReq_5:
        JNZ     ??ZDP_MatchDescReq_6
//  418   {
//  419     nwkAddr = NWK_BROADCAST_SHORTADDR_DEVRXON;
        MOV     R4,#-0x3
        MOV     R5,#-0x1
//  420   }
//  421   
//  422   *pBuf++ = LO_UINT16( nwkAddr );   // NWKAddrOfInterest
??ZDP_MatchDescReq_6:
        MOV     A,R4
        MOV     DPL,R0
        MOV     DPH,R1
        MOVX    @DPTR,A
        INC     DPTR
//  423   *pBuf++ = HI_UINT16( nwkAddr );
        MOV     A,R5
        MOVX    @DPTR,A
        INC     DPTR
//  424 
//  425   *pBuf++ = LO_UINT16( ProfileID );   // Profile ID
        MOV     A,?V0 + 0
        MOVX    @DPTR,A
        INC     DPTR
//  426   *pBuf++ = HI_UINT16( ProfileID );
        MOV     A,?V0 + 1
        MOVX    @DPTR,A
        INC     DPTR
//  427 
//  428   *pBuf++ = NumInClusters; // Input cluster list
        MOV     A,R6
        MOVX    @DPTR,A
        INC     DPTR
        MOV     R0,DPL
        MOV     R1,DPH
//  429   if ( NumInClusters )
        JZ      ??ZDP_MatchDescReq_7
//  430   {
//  431     for (i=0; i<NumInClusters; ++i)  {
        MOV     ?V0 + 0,#0x0
        SJMP    ??ZDP_MatchDescReq_8
//  432       *pBuf++ = LO_UINT16( InClusterList[i] );
??ZDP_MatchDescReq_9:
        MOV     A,?V0 + 0
        CLR     C
        RLC     A
        MOV     R4,A
        CLR     A
        RLC     A
        MOV     R5,A
        MOV     A,?V0 + 2
        ADD     A,R4
        MOV     R4,A
        MOV     A,?V0 + 3
        ADDC    A,R5
        MOV     R5,A
        MOV     DPL,R4
        MOV     DPH,R5
        MOVX    A,@DPTR
        MOV     DPL,R0
        MOV     DPH,R1
        MOVX    @DPTR,A
        INC     DPTR
        MOV     R0,DPL
        MOV     R1,DPH
//  433       *pBuf++ = HI_UINT16( InClusterList[i] );
        MOV     DPL,R4
        MOV     DPH,R5
        INC     DPTR
        MOVX    A,@DPTR
        MOV     DPL,R0
        MOV     DPH,R1
        MOVX    @DPTR,A
        INC     DPTR
        INC     R0
        MOV     R1,DPH
//  434     }
        INC     ?V0 + 0
??ZDP_MatchDescReq_8:
        MOV     A,?V0 + 0
        CLR     C
        SUBB    A,R6
        JC      ??ZDP_MatchDescReq_9
//  435   }
//  436 
//  437   *pBuf++ = NumOutClusters; // Output cluster list
??ZDP_MatchDescReq_7:
        MOV     A,R7
        MOV     DPL,R0
        MOV     DPH,R1
        MOVX    @DPTR,A
        INC     DPTR
        MOV     R0,DPL
        MOV     R1,DPH
//  438   if ( NumOutClusters )
        JZ      ??ZDP_MatchDescReq_10
//  439   {
//  440     for (i=0; i<NumOutClusters; ++i)  {
        MOV     ?V0 + 0,#0x0
        SJMP    ??ZDP_MatchDescReq_11
//  441       *pBuf++ = LO_UINT16( OutClusterList[i] );
??ZDP_MatchDescReq_12:
        MOV     A,?V0 + 0
        CLR     C
        RLC     A
        MOV     R4,A
        CLR     A
        RLC     A
        MOV     R5,A
        MOV     A,?V0 + 6
        ADD     A,R4
        MOV     R4,A
        MOV     A,?V0 + 7
        ADDC    A,R5
        MOV     R5,A
        MOV     DPL,R4
        MOV     DPH,R5
        MOVX    A,@DPTR
        MOV     DPL,R0
        MOV     DPH,R1
        MOVX    @DPTR,A
        INC     DPTR
        MOV     R0,DPL
        MOV     R1,DPH
//  442       *pBuf++ = HI_UINT16( OutClusterList[i] );
        MOV     DPL,R4
        MOV     DPH,R5
        INC     DPTR
        MOVX    A,@DPTR
        MOV     DPL,R0
        MOV     DPH,R1
        MOVX    @DPTR,A
        INC     DPTR
        INC     R0
        MOV     R1,DPH
//  443     }
        INC     ?V0 + 0
??ZDP_MatchDescReq_11:
        MOV     A,?V0 + 0
        CLR     C
        SUBB    A,R7
        JC      ??ZDP_MatchDescReq_12
//  444   }
//  445 
//  446   return fillAndSend( &ZDP_TransID, dstAddr, Match_Desc_req, len );
??ZDP_MatchDescReq_10:
        ; Setup parameters for call to function fillAndSend
        MOV     ?V0 + 0,#0x6
        MOV     ?V0 + 1,#0x0
        MOV     R0,#?V0 + 0
        LCALL   ?PUSH_XSTACK_I_TWO
        CFI CFA_XSP16 add(XSP16, 20)
        MOV     R1,?V0 + 4
        MOV     A,R2
        MOV     R4,A
        MOV     A,R3
        MOV     R5,A
        MOV     R2,#ZDP_TransID & 0xff
        MOV     R3,#(ZDP_TransID >> 8) & 0xff
        LCALL   ??fillAndSend?relay
        MOV     A,#0x2
        LCALL   ?DEALLOC_XSTACK8
        CFI CFA_XSP16 add(XSP16, 18)
??ZDP_MatchDescReq_1:
        MOV     R7,#0xa
        LJMP    ?BANKED_LEAVE_XDATA
        CFI EndBlock cfiBlock5
//  447 }
//  448 
//  449 /*********************************************************************
//  450  * @fn          ZDP_SimpleDescReq
//  451  *
//  452  * @brief       This builds and send a NWK_Simple_Desc_req
//  453  *              message.  This function sends unicast message to the
//  454  *              destination device.
//  455  *
//  456  * @param       dstAddr - destination address
//  457  * @param       nwkAddr - 16 bit address
//  458  * @param       epIntf - endpoint/interface
//  459  * @param       SecurityEnable - Security Options
//  460  *
//  461  * @return      afStatus_t
//  462  */

        RSEG BANKED_CODE:CODE:NOROOT(0)
//  463 afStatus_t ZDP_SimpleDescReq( zAddrType_t *dstAddr, uint16 nwkAddr,
ZDP_SimpleDescReq:
        CFI Block cfiBlock6 Using cfiCommon0
        CFI Function ZDP_SimpleDescReq
        CODE
//  464                                     byte endPoint, byte SecurityEnable )
//  465 
//  466 {
        FUNCALL ZDP_SimpleDescReq, fillAndSend
        LOCFRAME ISTACK, 0, STACK
        LOCFRAME PSTACK, 0, STACK
        LOCFRAME XSTACK, 12, STACK
        LOCFRAME IOVERLAY, 0, STATIC
        LOCFRAME DOVERLAY, 0, STATIC
        ARGFRAME ISTACK, 0, STACK
        ARGFRAME PSTACK, 0, STACK
        ARGFRAME XSTACK, 12, STACK
        ARGFRAME IOVERLAY, 0, STATIC
        ARGFRAME DOVERLAY, 0, STATIC
        MOV     A,#-0xa
        LCALL   ?BANKED_ENTER_XDATA
        CFI DPH0 load(1, XDATA, add(CFA_XSP16, literal(-1)))
        CFI DPL0 load(1, XDATA, add(CFA_XSP16, literal(-2)))
        CFI ?BRET_EXT load(1, XDATA, add(CFA_XSP16, literal(-3)))
        CFI ?RET_HIGH load(1, XDATA, add(CFA_XSP16, literal(-4)))
        CFI ?RET_LOW load(1, XDATA, add(CFA_XSP16, literal(-5)))
        CFI R7 load(1, XDATA, add(CFA_XSP16, literal(-6)))
        CFI V1 load(1, XDATA, add(CFA_XSP16, literal(-7)))
        CFI V0 load(1, XDATA, add(CFA_XSP16, literal(-8)))
        CFI VB load(1, XDATA, add(CFA_XSP16, literal(-9)))
        CFI R6 load(1, XDATA, add(CFA_XSP16, literal(-10)))
        CFI CFA_SP SP+0
        CFI CFA_XSP16 add(XSP16, 10)
        ; Saved register size: 10
        ; Auto size: 0
        MOV     A,R1
        MOV     R6,A
//  467   (void)SecurityEnable;  // Intentionally unreferenced parameter
//  468 
//  469   ZDP_TmpBuf[0] = LO_UINT16( nwkAddr );
        MOV     A,R4
        PUSH    A
        CFI CFA_SP SP+-1
        MOV     DPTR,#ZDP_TmpBuf
        MOVX    A,@DPTR
        MOV     R0,A
        INC     DPTR
        MOVX    A,@DPTR
        MOV     DPH,A
        MOV     DPL,R0
        POP     A
        CFI CFA_SP SP+0
        MOVX    @DPTR,A
//  470   ZDP_TmpBuf[1] = HI_UINT16( nwkAddr );
        MOV     A,R5
        PUSH    A
        CFI CFA_SP SP+-1
        MOV     DPTR,#ZDP_TmpBuf
        MOVX    A,@DPTR
        MOV     R0,A
        INC     DPTR
        MOVX    A,@DPTR
        MOV     DPH,A
        MOV     DPL,R0
        INC     DPTR
        POP     A
        CFI CFA_SP SP+0
        MOVX    @DPTR,A
//  471   ZDP_TmpBuf[2] = endPoint;
        MOV     A,R6
        PUSH    A
        CFI CFA_SP SP+-1
        MOV     DPTR,#ZDP_TmpBuf
        MOVX    A,@DPTR
        MOV     R0,A
        INC     DPTR
        MOVX    A,@DPTR
        MOV     DPH,A
        MOV     DPL,R0
        INC     DPTR
        INC     DPTR
        POP     A
        CFI CFA_SP SP+0
        MOVX    @DPTR,A
//  472 
//  473   return fillAndSend( &ZDP_TransID, dstAddr, Simple_Desc_req, 3 );
        ; Setup parameters for call to function fillAndSend
        MOV     ?V0 + 0,#0x4
        MOV     ?V0 + 1,#0x0
        MOV     R0,#?V0 + 0
        LCALL   ?PUSH_XSTACK_I_TWO
        CFI CFA_XSP16 add(XSP16, 12)
        MOV     R1,#0x3
        MOV     A,R2
        MOV     R4,A
        MOV     A,R3
        MOV     R5,A
        MOV     R2,#ZDP_TransID & 0xff
        MOV     R3,#(ZDP_TransID >> 8) & 0xff
        LCALL   ??fillAndSend?relay
        MOV     A,#0x2
        LCALL   ?DEALLOC_XSTACK8
        CFI CFA_XSP16 add(XSP16, 10)
        MOV     R7,#0x2
        LJMP    ?BANKED_LEAVE_XDATA
        CFI EndBlock cfiBlock6
//  474 }
//  475 
//  476 /*********************************************************************
//  477  * @fn          ZDP_UserDescSet
//  478  *
//  479  * @brief       This builds and send a User_Desc_set message to set
//  480  *              the user descriptor.  This function sends unicast
//  481  *              message to the destination device.
//  482  *
//  483  * @param       dstAddr - destination address
//  484  * @param       nwkAddr - 16 bit address
//  485  * @param       UserDescriptor - user descriptor
//  486  * @param       SecurityEnable - Security Options
//  487  *
//  488  * @return      afStatus_t
//  489  */

        RSEG BANKED_CODE:CODE:NOROOT(0)
//  490 afStatus_t ZDP_UserDescSet( zAddrType_t *dstAddr, uint16 nwkAddr,
ZDP_UserDescSet:
        CFI Block cfiBlock7 Using cfiCommon0
        CFI Function ZDP_UserDescSet
        CODE
//  491                           UserDescriptorFormat_t *UserDescriptor,
//  492                           byte SecurityEnable )
//  493 {
        FUNCALL ZDP_UserDescSet, osal_memcpy
        LOCFRAME ISTACK, 0, STACK
        LOCFRAME PSTACK, 0, STACK
        LOCFRAME XSTACK, 22, STACK
        LOCFRAME IOVERLAY, 0, STATIC
        LOCFRAME DOVERLAY, 0, STATIC
        ARGFRAME ISTACK, 0, STACK
        ARGFRAME PSTACK, 0, STACK
        ARGFRAME XSTACK, 22, STACK
        ARGFRAME IOVERLAY, 0, STATIC
        ARGFRAME DOVERLAY, 0, STATIC
        FUNCALL ZDP_UserDescSet, osal_memset
        LOCFRAME ISTACK, 0, STACK
        LOCFRAME PSTACK, 0, STACK
        LOCFRAME XSTACK, 19, STACK
        LOCFRAME IOVERLAY, 0, STATIC
        LOCFRAME DOVERLAY, 0, STATIC
        ARGFRAME ISTACK, 0, STACK
        ARGFRAME PSTACK, 0, STACK
        ARGFRAME XSTACK, 19, STACK
        ARGFRAME IOVERLAY, 0, STATIC
        ARGFRAME DOVERLAY, 0, STATIC
        FUNCALL ZDP_UserDescSet, fillAndSend
        LOCFRAME ISTACK, 0, STACK
        LOCFRAME PSTACK, 0, STACK
        LOCFRAME XSTACK, 21, STACK
        LOCFRAME IOVERLAY, 0, STATIC
        LOCFRAME DOVERLAY, 0, STATIC
        ARGFRAME ISTACK, 0, STACK
        ARGFRAME PSTACK, 0, STACK
        ARGFRAME XSTACK, 21, STACK
        ARGFRAME IOVERLAY, 0, STATIC
        ARGFRAME DOVERLAY, 0, STATIC
        MOV     A,#-0x13
        LCALL   ?BANKED_ENTER_XDATA
        CFI DPH0 load(1, XDATA, add(CFA_XSP16, literal(-1)))
        CFI DPL0 load(1, XDATA, add(CFA_XSP16, literal(-2)))
        CFI ?BRET_EXT load(1, XDATA, add(CFA_XSP16, literal(-3)))
        CFI ?RET_HIGH load(1, XDATA, add(CFA_XSP16, literal(-4)))
        CFI ?RET_LOW load(1, XDATA, add(CFA_XSP16, literal(-5)))
        CFI R7 load(1, XDATA, add(CFA_XSP16, literal(-6)))
        CFI V10 load(1, XDATA, add(CFA_XSP16, literal(-7)))
        CFI V9 load(1, XDATA, add(CFA_XSP16, literal(-8)))
        CFI V8 load(1, XDATA, add(CFA_XSP16, literal(-9)))
        CFI V7 load(1, XDATA, add(CFA_XSP16, literal(-10)))
        CFI V6 load(1, XDATA, add(CFA_XSP16, literal(-11)))
        CFI V5 load(1, XDATA, add(CFA_XSP16, literal(-12)))
        CFI V4 load(1, XDATA, add(CFA_XSP16, literal(-13)))
        CFI V3 load(1, XDATA, add(CFA_XSP16, literal(-14)))
        CFI V2 load(1, XDATA, add(CFA_XSP16, literal(-15)))
        CFI V1 load(1, XDATA, add(CFA_XSP16, literal(-16)))
        CFI V0 load(1, XDATA, add(CFA_XSP16, literal(-17)))
        CFI VB load(1, XDATA, add(CFA_XSP16, literal(-18)))
        CFI R6 load(1, XDATA, add(CFA_XSP16, literal(-19)))
        CFI CFA_SP SP+0
        CFI CFA_XSP16 add(XSP16, 19)
        ; Saved register size: 19
        ; Auto size: 0
        MOV     A,R2
        MOV     R6,A
        MOV     A,R3
        MOV     R7,A
        MOV     A,#0x13
        LCALL   ?XSTACK_DISP0_8
        MOVX    A,@DPTR
        MOV     R0,A
        INC     DPTR
        MOVX    A,@DPTR
        MOV     R1,A
//  494   uint8 *pBuf = ZDP_TmpBuf;
        MOV     DPTR,#ZDP_TmpBuf
        MOVX    A,@DPTR
        MOV     ?V0 + 0,A
        INC     DPTR
        MOVX    A,@DPTR
        MOV     ?V0 + 1,A
//  495   byte len = (UserDescriptor->len < AF_MAX_USER_DESCRIPTOR_LEN) ?
//  496               UserDescriptor->len : AF_MAX_USER_DESCRIPTOR_LEN;
        MOV     DPL,R0
        MOV     DPH,R1
        MOVX    A,@DPTR
        CLR     C
        SUBB    A,#0x10
        JNC     ??ZDP_UserDescSet_0
        MOVX    A,@DPTR
        MOV     ?V0 + 4,A
        SJMP    ??ZDP_UserDescSet_1
??ZDP_UserDescSet_0:
        MOV     ?V0 + 4,#0x10
//  497   byte addrLen = 2;
//  498 
//  499   (void)SecurityEnable;  // Intentionally unreferenced parameter
//  500 
//  501   *pBuf++ = LO_UINT16( nwkAddr );
??ZDP_UserDescSet_1:
        MOV     A,R4
        MOV     DPL,?V0 + 0
        MOV     DPH,?V0 + 1
        MOVX    @DPTR,A
        INC     DPTR
//  502   *pBuf++ = HI_UINT16( nwkAddr );
        MOV     A,R5
        MOVX    @DPTR,A
        INC     DPTR
//  503 
//  504   *pBuf++ = len;
        MOV     A,?V0 + 4
        MOVX    @DPTR,A
        INC     DPTR
        MOV     ?V0 + 0,DPL
        MOV     ?V0 + 1,DPH
//  505   addrLen = 3;
//  506 
//  507   pBuf = osal_memcpy( pBuf, UserDescriptor->desc, len );
        ; Setup parameters for call to function osal_memcpy
        MOV     DPL,R0
        MOV     DPH,R1
        INC     DPTR
        MOV     R1,DPL
        MOV     R2,DPH
        MOV     ?V0 + 8,R1
        MOV     ?V0 + 9,R2
        MOV     ?V0 + 10,#0x0
        MOV     R0,#?V0 + 8
        LCALL   ?PUSH_XSTACK_I_THREE
        CFI CFA_XSP16 add(XSP16, 22)
        MOV     ?V0 + 2,?V0 + 4
        MOV     R4,?V0 + 2
        MOV     R5,#0x0
        MOV     R2,?V0 + 0
        MOV     R3,?V0 + 1
        LCALL   ??osal_memcpy?relay
        MOV     A,#0x3
        LCALL   ?DEALLOC_XSTACK8
        CFI CFA_XSP16 add(XSP16, 19)
//  508   osal_memset( pBuf, AF_USER_DESCRIPTOR_FILL, AF_MAX_USER_DESCRIPTOR_LEN-len );
        ; Setup parameters for call to function osal_memset
        MOV     A,#0x10
        CLR     C
        SUBB    A,?V0 + 4
        MOV     R4,A
        SUBB    A,0xE0 /* A   */
        MOV     R5,A
        MOV     R1,#0x20
        LCALL   ??osal_memset?relay
//  509 
//  510   return fillAndSend( &ZDP_TransID, dstAddr, User_Desc_set, (AF_MAX_USER_DESCRIPTOR_LEN + addrLen) );
        ; Setup parameters for call to function fillAndSend
        MOV     ?V0 + 0,#0x14
        MOV     ?V0 + 1,#0x0
        MOV     R0,#?V0 + 0
        LCALL   ?PUSH_XSTACK_I_TWO
        CFI CFA_XSP16 add(XSP16, 21)
        MOV     R1,#0x13
        MOV     A,R6
        MOV     R4,A
        MOV     A,R7
        MOV     R5,A
        MOV     R2,#ZDP_TransID & 0xff
        MOV     R3,#(ZDP_TransID >> 8) & 0xff
        LCALL   ??fillAndSend?relay
        MOV     A,#0x2
        LCALL   ?DEALLOC_XSTACK8
        CFI CFA_XSP16 add(XSP16, 19)
        MOV     R7,#0xb
        LJMP    ?BANKED_LEAVE_XDATA
        CFI EndBlock cfiBlock7
//  511 }
//  512 
//  513 /*********************************************************************
//  514  * @fn          ZDP_ServerDiscReq
//  515  *
//  516  * @brief       Build and send a Server_Discovery_req request message.
//  517  *
//  518  * @param       serverMask - 16-bit bit-mask of server services being sought.
//  519  * @param       SecurityEnable - Security Options
//  520  *
//  521  * @return      afStatus_t
//  522  */

        RSEG BANKED_CODE:CODE:NOROOT(0)
//  523 afStatus_t ZDP_ServerDiscReq( uint16 serverMask, byte SecurityEnable )
ZDP_ServerDiscReq:
        CFI Block cfiBlock8 Using cfiCommon0
        CFI Function ZDP_ServerDiscReq
        CODE
//  524 {
        FUNCALL ZDP_ServerDiscReq, fillAndSend
        LOCFRAME ISTACK, 0, STACK
        LOCFRAME PSTACK, 0, STACK
        LOCFRAME XSTACK, 21, STACK
        LOCFRAME IOVERLAY, 0, STATIC
        LOCFRAME DOVERLAY, 0, STATIC
        ARGFRAME ISTACK, 0, STACK
        ARGFRAME PSTACK, 0, STACK
        ARGFRAME XSTACK, 21, STACK
        ARGFRAME IOVERLAY, 0, STATIC
        ARGFRAME DOVERLAY, 0, STATIC
        MOV     A,#-0xa
        LCALL   ?BANKED_ENTER_XDATA
        CFI DPH0 load(1, XDATA, add(CFA_XSP16, literal(-1)))
        CFI DPL0 load(1, XDATA, add(CFA_XSP16, literal(-2)))
        CFI ?BRET_EXT load(1, XDATA, add(CFA_XSP16, literal(-3)))
        CFI ?RET_HIGH load(1, XDATA, add(CFA_XSP16, literal(-4)))
        CFI ?RET_LOW load(1, XDATA, add(CFA_XSP16, literal(-5)))
        CFI R7 load(1, XDATA, add(CFA_XSP16, literal(-6)))
        CFI V1 load(1, XDATA, add(CFA_XSP16, literal(-7)))
        CFI V0 load(1, XDATA, add(CFA_XSP16, literal(-8)))
        CFI VB load(1, XDATA, add(CFA_XSP16, literal(-9)))
        CFI R6 load(1, XDATA, add(CFA_XSP16, literal(-10)))
        CFI CFA_SP SP+0
        CFI CFA_XSP16 add(XSP16, 10)
        ; Saved register size: 10
        ; Auto size: 9
        MOV     A,#-0x9
        LCALL   ?ALLOC_XSTACK8
        CFI CFA_XSP16 add(XSP16, 19)
        MOV     A,R1
        MOV     R6,A
//  525   uint8 *pBuf = ZDP_TmpBuf;
        MOV     DPTR,#ZDP_TmpBuf
        MOVX    A,@DPTR
        MOV     R0,A
        INC     DPTR
        MOVX    A,@DPTR
        MOV     R1,A
//  526   zAddrType_t dstAddr;
//  527 
//  528   dstAddr.addrMode = AddrBroadcast;
        MOV     A,#0x8
        LCALL   ?XSTACK_DISP0_8
        MOV     A,#0xf
        MOVX    @DPTR,A
//  529   dstAddr.addr.shortAddr = NWK_BROADCAST_SHORTADDR_DEVRXON;
        MOV     DPL,?XSP + 0
        MOV     DPH,?XSP + 1
        MOV     A,#-0x3
        MOVX    @DPTR,A
        INC     DPTR
        MOV     A,#-0x1
        MOVX    @DPTR,A
//  530 
//  531   *pBuf++ = LO_UINT16( serverMask );
        MOV     A,R2
        MOV     DPL,R0
        MOV     DPH,R1
        MOVX    @DPTR,A
        INC     DPTR
//  532   *pBuf = HI_UINT16( serverMask );
        MOV     A,R3
        MOVX    @DPTR,A
//  533 
//  534   FillAndSendTxOptions( &ZDP_TransID, &dstAddr, Server_Discovery_req, 2,
//  535              ((SecurityEnable) ? AF_EN_SECURITY : AF_TX_OPTIONS_NONE) );
        MOV     A,R6
        MOV     DPTR,#ZDP_TxOptions
        JZ      ??ZDP_ServerDiscReq_0
        MOV     A,#0x40
        SJMP    ??ZDP_ServerDiscReq_1
??ZDP_ServerDiscReq_0:
        CLR     A
??ZDP_ServerDiscReq_1:
        MOVX    @DPTR,A
        ; Setup parameters for call to function fillAndSend
        MOV     ?V0 + 0,#0x15
        MOV     ?V0 + 1,#0x0
        MOV     R0,#?V0 + 0
        LCALL   ?PUSH_XSTACK_I_TWO
        CFI CFA_XSP16 add(XSP16, 21)
        MOV     R1,#0x2
        MOV     A,R1
        LCALL   ?XSTACK_DISP0_8
        MOV     R4,DPL
        MOV     R5,DPH
        MOV     R2,#ZDP_TransID & 0xff
        MOV     R3,#(ZDP_TransID >> 8) & 0xff
        LCALL   ??fillAndSend?relay
        MOV     A,#0x2
        LCALL   ?DEALLOC_XSTACK8
        CFI CFA_XSP16 add(XSP16, 19)
        MOV     DPTR,#ZDP_TxOptions
        CLR     A
        MOVX    @DPTR,A
        MOV     A,#0x9
        LCALL   ?DEALLOC_XSTACK8
        CFI CFA_XSP16 add(XSP16, 10)
        MOV     R7,#0x2
        LJMP    ?BANKED_LEAVE_XDATA
        CFI EndBlock cfiBlock8
//  536 }
//  537 
//  538 /*********************************************************************
//  539  * @fn          ZDP_DeviceAnnce
//  540  *
//  541  * @brief       This builds and send a Device_Annce message.  This
//  542  *              function sends a broadcast message.
//  543  *
//  544  * @param       nwkAddr - 16 bit address of the device
//  545  * @param       IEEEAddr - 64 bit address of the device
//  546  * @param       capabilities - device capabilities.  This field is only
//  547  *                 sent for v1.1 networks.
//  548  * @param       SecurityEnable - Security Options
//  549  *
//  550  * @return      afStatus_t
//  551  */

        RSEG BANKED_CODE:CODE:NOROOT(0)
//  552 afStatus_t ZDP_DeviceAnnce( uint16 nwkAddr, uint8 *IEEEAddr,
ZDP_DeviceAnnce:
        CFI Block cfiBlock9 Using cfiCommon0
        CFI Function ZDP_DeviceAnnce
        CODE
//  553                               byte capabilities, byte SecurityEnable )
//  554 {
        FUNCALL ZDP_DeviceAnnce, sAddrExtCpy
        LOCFRAME ISTACK, 0, STACK
        LOCFRAME PSTACK, 0, STACK
        LOCFRAME XSTACK, 19, STACK
        LOCFRAME IOVERLAY, 0, STATIC
        LOCFRAME DOVERLAY, 0, STATIC
        ARGFRAME ISTACK, 0, STACK
        ARGFRAME PSTACK, 0, STACK
        ARGFRAME XSTACK, 19, STACK
        ARGFRAME IOVERLAY, 0, STATIC
        ARGFRAME DOVERLAY, 0, STATIC
        FUNCALL ZDP_DeviceAnnce, fillAndSend
        LOCFRAME ISTACK, 0, STACK
        LOCFRAME PSTACK, 0, STACK
        LOCFRAME XSTACK, 21, STACK
        LOCFRAME IOVERLAY, 0, STATIC
        LOCFRAME DOVERLAY, 0, STATIC
        ARGFRAME ISTACK, 0, STACK
        ARGFRAME PSTACK, 0, STACK
        ARGFRAME XSTACK, 21, STACK
        ARGFRAME IOVERLAY, 0, STATIC
        ARGFRAME DOVERLAY, 0, STATIC
        MOV     A,#-0xa
        LCALL   ?BANKED_ENTER_XDATA
        CFI DPH0 load(1, XDATA, add(CFA_XSP16, literal(-1)))
        CFI DPL0 load(1, XDATA, add(CFA_XSP16, literal(-2)))
        CFI ?BRET_EXT load(1, XDATA, add(CFA_XSP16, literal(-3)))
        CFI ?RET_HIGH load(1, XDATA, add(CFA_XSP16, literal(-4)))
        CFI ?RET_LOW load(1, XDATA, add(CFA_XSP16, literal(-5)))
        CFI R7 load(1, XDATA, add(CFA_XSP16, literal(-6)))
        CFI V1 load(1, XDATA, add(CFA_XSP16, literal(-7)))
        CFI V0 load(1, XDATA, add(CFA_XSP16, literal(-8)))
        CFI VB load(1, XDATA, add(CFA_XSP16, literal(-9)))
        CFI R6 load(1, XDATA, add(CFA_XSP16, literal(-10)))
        CFI CFA_SP SP+0
        CFI CFA_XSP16 add(XSP16, 10)
        ; Saved register size: 10
        ; Auto size: 9
        MOV     A,#-0x9
        LCALL   ?ALLOC_XSTACK8
        CFI CFA_XSP16 add(XSP16, 19)
        MOV     A,R1
        MOV     R6,A
//  555   zAddrType_t dstAddr;
//  556   uint8 len;
//  557 
//  558   (void)SecurityEnable;  // Intentionally unreferenced parameter
//  559 
//  560   dstAddr.addrMode = (afAddrMode_t)AddrBroadcast;
        MOV     A,#0x8
        LCALL   ?XSTACK_DISP0_8
        MOV     A,#0xf
        MOVX    @DPTR,A
//  561   dstAddr.addr.shortAddr = NWK_BROADCAST_SHORTADDR_DEVRXON;
        MOV     DPL,?XSP + 0
        MOV     DPH,?XSP + 1
        MOV     A,#-0x3
        MOVX    @DPTR,A
        INC     DPTR
        MOV     A,#-0x1
        MOVX    @DPTR,A
//  562 
//  563   ZDP_TmpBuf[0] = LO_UINT16( nwkAddr );
        MOV     A,R2
        PUSH    A
        CFI CFA_SP SP+-1
        MOV     DPTR,#ZDP_TmpBuf
        MOVX    A,@DPTR
        MOV     R0,A
        INC     DPTR
        MOVX    A,@DPTR
        MOV     DPH,A
        MOV     DPL,R0
        POP     A
        CFI CFA_SP SP+0
        MOVX    @DPTR,A
//  564   ZDP_TmpBuf[1] = HI_UINT16( nwkAddr );
        MOV     A,R3
        PUSH    A
        CFI CFA_SP SP+-1
        MOV     DPTR,#ZDP_TmpBuf
        MOVX    A,@DPTR
        MOV     R0,A
        INC     DPTR
        MOVX    A,@DPTR
        MOV     DPH,A
        MOV     DPL,R0
        INC     DPTR
        POP     A
        CFI CFA_SP SP+0
        MOVX    @DPTR,A
//  565   osal_cpyExtAddr( &ZDP_TmpBuf[2], IEEEAddr );
        ; Setup parameters for call to function sAddrExtCpy
        MOV     DPTR,#ZDP_TmpBuf
        MOVX    A,@DPTR
        ADD     A,#0x2
        MOV     R2,A
        INC     DPTR
        MOVX    A,@DPTR
        ADDC    A,#0x0
        MOV     R3,A
        LCALL   ??sAddrExtCpy?relay
//  566   len = 2 + Z_EXTADDR_LEN;
//  567 
//  568   ZDP_TmpBuf[10] = capabilities;
        MOV     A,R6
        PUSH    A
        CFI CFA_SP SP+-1
        MOV     DPTR,#ZDP_TmpBuf
        MOVX    A,@DPTR
        MOV     R0,A
        INC     DPTR
        MOVX    A,@DPTR
        MOV     DPH,A
        MOV     DPL,R0
        INC     DPTR
        INC     DPTR
        INC     DPTR
        INC     DPTR
        INC     DPTR
        INC     DPTR
        INC     DPTR
        INC     DPTR
        INC     DPTR
        INC     DPTR
        POP     A
        CFI CFA_SP SP+0
        MOVX    @DPTR,A
//  569   len++;
//  570 
//  571   return fillAndSend( &ZDP_TransID, &dstAddr, Device_annce, len );
        ; Setup parameters for call to function fillAndSend
        MOV     ?V0 + 0,#0x13
        MOV     ?V0 + 1,#0x0
        MOV     R0,#?V0 + 0
        LCALL   ?PUSH_XSTACK_I_TWO
        CFI CFA_XSP16 add(XSP16, 21)
        MOV     R1,#0xb
        MOV     A,#0x2
        LCALL   ?XSTACK_DISP0_8
        MOV     R4,DPL
        MOV     R5,DPH
        MOV     R2,#ZDP_TransID & 0xff
        MOV     R3,#(ZDP_TransID >> 8) & 0xff
        LCALL   ??fillAndSend?relay
        MOV     A,#0x2
        LCALL   ?DEALLOC_XSTACK8
        CFI CFA_XSP16 add(XSP16, 19)
        MOV     A,#0x9
        LCALL   ?DEALLOC_XSTACK8
        CFI CFA_XSP16 add(XSP16, 10)
        MOV     R7,#0x2
        LJMP    ?BANKED_LEAVE_XDATA
        CFI EndBlock cfiBlock9
//  572 }
//  573 
//  574 /*********************************************************************
//  575  * Address Responses
//  576  */
//  577 
//  578 /*********************************************************************
//  579  * @fn      zdpProcessAddrReq
//  580  *
//  581  * @brief   Process an incoming NWK_addr_req or IEEE_addr_req message and then
//  582  *          build and send a corresponding NWK_addr_rsp or IEEE_addr_rsp msg.
//  583  *
//  584  * @param   inMsg - incoming message
//  585  *
//  586  * @return  none
//  587  */

        RSEG BANKED_CODE:CODE:NOROOT(0)
//  588 void zdpProcessAddrReq( zdoIncomingMsg_t *inMsg )
zdpProcessAddrReq:
        CFI Block cfiBlock10 Using cfiCommon0
        CFI Function zdpProcessAddrReq
        CODE
//  589 {
        FUNCALL zdpProcessAddrReq, sAddrExtCmp
        LOCFRAME ISTACK, 0, STACK
        LOCFRAME PSTACK, 0, STACK
        LOCFRAME XSTACK, 15, STACK
        LOCFRAME IOVERLAY, 0, STATIC
        LOCFRAME DOVERLAY, 0, STATIC
        ARGFRAME ISTACK, 0, STACK
        ARGFRAME PSTACK, 0, STACK
        ARGFRAME XSTACK, 15, STACK
        ARGFRAME IOVERLAY, 0, STATIC
        ARGFRAME DOVERLAY, 0, STATIC
        FUNCALL zdpProcessAddrReq, sAddrExtCpy
        LOCFRAME ISTACK, 0, STACK
        LOCFRAME PSTACK, 0, STACK
        LOCFRAME XSTACK, 15, STACK
        LOCFRAME IOVERLAY, 0, STATIC
        LOCFRAME DOVERLAY, 0, STATIC
        ARGFRAME ISTACK, 0, STACK
        ARGFRAME PSTACK, 0, STACK
        ARGFRAME XSTACK, 15, STACK
        ARGFRAME IOVERLAY, 0, STATIC
        ARGFRAME DOVERLAY, 0, STATIC
        FUNCALL zdpProcessAddrReq, fillAndSend
        LOCFRAME ISTACK, 0, STACK
        LOCFRAME PSTACK, 0, STACK
        LOCFRAME XSTACK, 17, STACK
        LOCFRAME IOVERLAY, 0, STATIC
        LOCFRAME DOVERLAY, 0, STATIC
        ARGFRAME ISTACK, 0, STACK
        ARGFRAME PSTACK, 0, STACK
        ARGFRAME XSTACK, 17, STACK
        ARGFRAME IOVERLAY, 0, STATIC
        ARGFRAME DOVERLAY, 0, STATIC
        MOV     A,#-0xf
        LCALL   ?BANKED_ENTER_XDATA
        CFI DPH0 load(1, XDATA, add(CFA_XSP16, literal(-1)))
        CFI DPL0 load(1, XDATA, add(CFA_XSP16, literal(-2)))
        CFI ?BRET_EXT load(1, XDATA, add(CFA_XSP16, literal(-3)))
        CFI ?RET_HIGH load(1, XDATA, add(CFA_XSP16, literal(-4)))
        CFI ?RET_LOW load(1, XDATA, add(CFA_XSP16, literal(-5)))
        CFI R7 load(1, XDATA, add(CFA_XSP16, literal(-6)))
        CFI V6 load(1, XDATA, add(CFA_XSP16, literal(-7)))
        CFI V5 load(1, XDATA, add(CFA_XSP16, literal(-8)))
        CFI V4 load(1, XDATA, add(CFA_XSP16, literal(-9)))
        CFI V3 load(1, XDATA, add(CFA_XSP16, literal(-10)))
        CFI V2 load(1, XDATA, add(CFA_XSP16, literal(-11)))
        CFI V1 load(1, XDATA, add(CFA_XSP16, literal(-12)))
        CFI V0 load(1, XDATA, add(CFA_XSP16, literal(-13)))
        CFI VB load(1, XDATA, add(CFA_XSP16, literal(-14)))
        CFI R6 load(1, XDATA, add(CFA_XSP16, literal(-15)))
        CFI CFA_SP SP+0
        CFI CFA_XSP16 add(XSP16, 15)
        ; Saved register size: 15
        ; Auto size: 0
        MOV     ?V0 + 0,R2
        MOV     ?V0 + 1,R3
//  590   associated_devices_t *pAssoc;
//  591   uint8 reqType;
//  592   uint16 aoi = INVALID_NODE_ADDR;
        MOV     R6,#-0x2
        MOV     R7,#-0x1
//  593   uint8 *ieee = NULL;
        MOV     ?V0 + 2,#0x0
        MOV     ?V0 + 3,#0x0
//  594 
//  595   reqType = inMsg->asdu[(inMsg->clusterID == NWK_addr_req) ? Z_EXTADDR_LEN : sizeof( uint16 ) ];
        MOV     A,R2
        ADD     A,#0xc
        MOV     ?V0 + 4,A
        MOV     A,R3
        ADDC    A,#0x0
        MOV     ?V0 + 5,A
        MOV     DPL,?V0 + 4
        MOV     DPH,A
        MOVX    A,@DPTR
        MOV     R0,A
        INC     DPTR
        MOVX    A,@DPTR
        MOV     R1,A
        MOV     A,R0
        ORL     A,R1
        JNZ     ??zdpProcessAddrReq_0
        MOV     R4,#0x8
        SJMP    ??zdpProcessAddrReq_1
??zdpProcessAddrReq_0:
        MOV     R4,#0x2
??zdpProcessAddrReq_1:
        MOV     A,R2
        ADD     A,#0x13
        MOV     R0,A
        MOV     A,R3
        ADDC    A,#0x0
        MOV     R1,A
        MOV     A,R0
        MOV     R2,A
        MOV     A,R1
        MOV     R3,A
        MOV     DPL,R2
        MOV     DPH,R3
        MOVX    A,@DPTR
        ADD     A,R4
        MOV     R0,A
        INC     DPTR
        MOVX    A,@DPTR
        ADDC    A,#0x0
        MOV     DPL,R0
        MOV     DPH,A
        MOVX    A,@DPTR
        MOV     ?V0 + 6,A
//  596 
//  597   if ( inMsg->clusterID == NWK_addr_req )
        MOV     DPL,?V0 + 4
        MOV     DPH,?V0 + 5
        MOVX    A,@DPTR
        MOV     R0,A
        INC     DPTR
        MOVX    A,@DPTR
        MOV     R1,A
        MOV     A,R0
        ORL     A,R1
        MOV     DPL,R2
        MOV     DPH,R3
        JNZ     ??zdpProcessAddrReq_2
//  598 
//  599   {
//  600     ieee = inMsg->asdu;
        MOVX    A,@DPTR
        MOV     ?V0 + 2,A
        INC     DPTR
        MOVX    A,@DPTR
        MOV     ?V0 + 3,A
//  601 
//  602     if ( osal_ExtAddrEqual( saveExtAddr, ieee ) )
        ; Setup parameters for call to function sAddrExtCmp
        MOV     R4,?V0 + 2
        MOV     R5,A
        MOV     R2,#saveExtAddr & 0xff
        MOV     R3,#(saveExtAddr >> 8) & 0xff
        LCALL   ??sAddrExtCmp?relay
        MOV     A,R1
        JZ      ??zdpProcessAddrReq_3
//  603     {
//  604       aoi = ZDAppNwkAddr.addr.shortAddr;
        MOV     DPTR,#ZDAppNwkAddr
        MOVX    A,@DPTR
        MOV     R6,A
        INC     DPTR
        MOVX    A,@DPTR
        MOV     R7,A
        SJMP    ??zdpProcessAddrReq_3
//  605     }
//  606     // Handle response for sleeping end devices
//  607     else if ( (ZSTACK_ROUTER_BUILD)
//  608       && (((pAssoc = AssocGetWithExt( ieee )) != NULL)
//  609              && (pAssoc->nodeRelation == CHILD_RFD)) )
//  610     {
//  611       aoi = pAssoc->shortAddr;
//  612       if ( reqType != ZDP_ADDR_REQTYPE_SINGLE )
//  613         reqType = 0xFF; // Force Invalid
//  614     }
//  615   }
//  616   else  // if ( inMsg->clusterID == IEEE_addr_req )
//  617   {
//  618     aoi = BUILD_UINT16( inMsg->asdu[0], inMsg->asdu[1] );
??zdpProcessAddrReq_2:
        MOVX    A,@DPTR
        MOV     R0,A
        INC     DPTR
        MOVX    A,@DPTR
        MOV     DPH,A
        MOV     DPL,R0
        MOVX    A,@DPTR
        MOV     R4,A
        MOV     DPL,R2
        MOV     DPH,R3
        MOVX    A,@DPTR
        MOV     R0,A
        INC     DPTR
        MOVX    A,@DPTR
        MOV     DPH,A
        MOV     DPL,R0
        INC     DPTR
        MOVX    A,@DPTR
        MOV     R1,A
        MOV     A,R4
        ADD     A,#0x0
        MOV     R6,A
        CLR     A
        ADDC    A,R1
        MOV     R7,A
//  619 
//  620     if ( aoi == ZDAppNwkAddr.addr.shortAddr )
        MOV     DPTR,#ZDAppNwkAddr
        MOVX    A,@DPTR
        XRL     A,R6
        JNZ     ??zdpProcessAddrReq_4
        INC     DPTR
        MOVX    A,@DPTR
        XRL     A,R7
??zdpProcessAddrReq_4:
        JNZ     ??zdpProcessAddrReq_3
//  621     {
//  622       ieee = saveExtAddr;
        MOV     ?V0 + 2,#saveExtAddr & 0xff
        MOV     ?V0 + 3,#(saveExtAddr >> 8) & 0xff
//  623     }
//  624     else if ( (ZSTACK_ROUTER_BUILD)
//  625       && (((pAssoc = AssocGetWithShort( aoi )) != NULL)
//  626              && (pAssoc->nodeRelation == CHILD_RFD)) )
//  627     {
//  628       AddrMgrEntry_t addrEntry;
//  629       addrEntry.user = ADDRMGR_USER_DEFAULT;
//  630       addrEntry.index = pAssoc->addrIdx;
//  631       if ( AddrMgrEntryGet( &addrEntry ) )
//  632       {
//  633         ieee = addrEntry.extAddr;
//  634       }
//  635 
//  636       if ( reqType != ZDP_ADDR_REQTYPE_SINGLE )
//  637         reqType = 0xFF; // Force Invalid
//  638     }
//  639   }
//  640 
//  641   if ( ((aoi != INVALID_NODE_ADDR) && (ieee != NULL)) || (inMsg->wasBroadcast == FALSE) )
??zdpProcessAddrReq_3:
        MOV     A,#-0x2
        XRL     A,R6
        JNZ     ??zdpProcessAddrReq_5
        MOV     A,#-0x1
        XRL     A,R7
??zdpProcessAddrReq_5:
        JZ      ??zdpProcessAddrReq_6
        MOV     A,?V0 + 2
        ORL     A,?V0 + 3
        JNZ     ??zdpProcessAddrReq_7
??zdpProcessAddrReq_6:
        MOV     A,?V0 + 0
        ADD     A,#0xb
        MOV     DPL,A
        MOV     A,?V0 + 1
        ADDC    A,#0x0
        MOV     DPH,A
        MOVX    A,@DPTR
        JZ      $+5
        LJMP    ??zdpProcessAddrReq_8 & 0xFFFF
//  642   {
//  643     uint8 stat;
//  644     uint8 *pBuf = ZDP_TmpBuf;
??zdpProcessAddrReq_7:
        MOV     DPTR,#ZDP_TmpBuf
        MOVX    A,@DPTR
        MOV     R2,A
        INC     DPTR
        MOVX    A,@DPTR
        MOV     R3,A
//  645     // Status + IEEE-Addr + Nwk-Addr.
//  646     uint8 len = 1 + Z_EXTADDR_LEN + 2;
//  647     
//  648     // If aoi and iee are both setup, we found results
//  649     if ( (aoi != INVALID_NODE_ADDR) && (ieee != NULL) )
        MOV     A,#-0x2
        XRL     A,R6
        JNZ     ??zdpProcessAddrReq_9
        MOV     A,#-0x1
        XRL     A,R7
??zdpProcessAddrReq_9:
        JZ      ??zdpProcessAddrReq_10
        MOV     A,?V0 + 2
        ORL     A,?V0 + 3
        JZ      ??zdpProcessAddrReq_10
//  650     {
//  651       stat = ((reqType == ZDP_ADDR_REQTYPE_SINGLE) || (reqType == ZDP_ADDR_REQTYPE_EXTENDED)) 
//  652                     ? ZDP_SUCCESS : ZDP_INVALID_REQTYPE;
        MOV     A,?V0 + 6
        JZ      ??zdpProcessAddrReq_11
        MOV     A,#0x1
        XRL     A,?V0 + 6
        JNZ     ??zdpProcessAddrReq_12
??zdpProcessAddrReq_11:
        MOV     R4,#0x0
        SJMP    ??zdpProcessAddrReq_13
??zdpProcessAddrReq_12:
        MOV     R4,#-0x80
        SJMP    ??zdpProcessAddrReq_13
//  653     }
//  654     else 
//  655     {
//  656       // not found and the req was unicast to this device
//  657       stat = ZDP_DEVICE_NOT_FOUND;
??zdpProcessAddrReq_10:
        MOV     R4,#-0x7f
//  658       
//  659       // Fill in the missing field with this device's address
//  660       if ( inMsg->clusterID == NWK_addr_req )
        MOV     DPL,?V0 + 4
        MOV     DPH,?V0 + 5
        MOVX    A,@DPTR
        MOV     R0,A
        INC     DPTR
        MOVX    A,@DPTR
        MOV     R1,A
        MOV     A,R0
        ORL     A,R1
        JNZ     ??zdpProcessAddrReq_14
//  661       {
//  662         aoi = ZDAppNwkAddr.addr.shortAddr;
        MOV     DPTR,#ZDAppNwkAddr
        MOVX    A,@DPTR
        MOV     R6,A
        INC     DPTR
        MOVX    A,@DPTR
        MOV     R7,A
        SJMP    ??zdpProcessAddrReq_13
//  663       }
//  664       else
//  665       {
//  666         ieee = saveExtAddr;
??zdpProcessAddrReq_14:
        MOV     ?V0 + 2,#saveExtAddr & 0xff
        MOV     ?V0 + 3,#(saveExtAddr >> 8) & 0xff
//  667       }
//  668     }
//  669 
//  670     *pBuf++ = stat;
??zdpProcessAddrReq_13:
        MOV     A,R4
        MOV     DPL,R2
        MOV     DPH,R3
        MOVX    @DPTR,A
        INC     DPTR
        MOV     R2,DPL
        MOV     R3,DPH
//  671 
//  672     pBuf = osal_cpyExtAddr( pBuf, ieee );
        ; Setup parameters for call to function sAddrExtCpy
        MOV     R4,?V0 + 2
        MOV     R5,?V0 + 3
        LCALL   ??sAddrExtCpy?relay
//  673 
//  674     *pBuf++ = LO_UINT16( aoi );
        MOV     A,R6
        MOV     DPL,R2
        MOV     DPH,R3
        MOVX    @DPTR,A
        INC     DPTR
//  675     *pBuf++ = HI_UINT16( aoi );
        MOV     A,R7
        MOVX    @DPTR,A
//  676 
//  677     if ( ZSTACK_ROUTER_BUILD )
//  678     {
//  679       if ( (reqType == ZDP_ADDR_REQTYPE_EXTENDED) && (aoi == ZDAppNwkAddr.addr.shortAddr)
//  680            && (stat == ZDP_SUCCESS) )
//  681       {
//  682         uint8  cnt = 0;
//  683         uint16 *list = AssocMakeList( &cnt );
//  684 
//  685         if ( list != NULL )
//  686         {
//  687           byte idx = inMsg->asdu[(((inMsg->clusterID == NWK_addr_req) ? Z_EXTADDR_LEN : sizeof( uint16 )) + 1)];
//  688           uint16 *pList = list + idx;
//  689 
//  690           // NumAssocDev field is only present on success.
//  691           if ( cnt > idx )
//  692           {
//  693             cnt -= idx;
//  694             len += (cnt * sizeof( uint16 ));
//  695           }
//  696           else
//  697           {
//  698             cnt = 0;
//  699           }
//  700           *pBuf++ = cnt;
//  701           len++;
//  702 
//  703           // StartIndex field is only present if NumAssocDev field is non-zero.
//  704           *pBuf++ = idx;
//  705           len++;
//  706 
//  707           while ( cnt != 0 )
//  708           {
//  709             *pBuf++ = LO_UINT16( *pList );
//  710             *pBuf++ = HI_UINT16( *pList );
//  711             pList++;
//  712             cnt--;
//  713           }
//  714 
//  715           osal_mem_free( (uint8 *)list );
//  716         }
//  717         else
//  718         {
//  719           // NumAssocDev field is only present on success.
//  720           *pBuf++ = 0;
//  721           len++;
//  722         }
//  723       }
//  724     }
//  725 
//  726     ZDP_TxOptions = AF_MSG_ACK_REQUEST;
        MOV     DPTR,#ZDP_TxOptions
        MOV     A,#0x10
        MOVX    @DPTR,A
//  727     fillAndSend( &(inMsg->TransSeq), &(inMsg->srcAddr), (cId_t)(inMsg->clusterID | ZDO_RESPONSE_BIT), len );
        ; Setup parameters for call to function fillAndSend
        MOV     DPL,?V0 + 4
        MOV     DPH,?V0 + 5
        MOVX    A,@DPTR
        MOV     ?V0 + 2,A
        INC     DPTR
        MOVX    A,@DPTR
        ORL     A,#0x80
        MOV     ?V0 + 3,A
        MOV     R0,#?V0 + 2
        LCALL   ?PUSH_XSTACK_I_TWO
        CFI CFA_XSP16 add(XSP16, 17)
        MOV     R1,#0xb
        MOV     A,?V0 + 0
        ADD     A,#0x2
        MOV     R4,A
        MOV     A,?V0 + 1
        ADDC    A,#0x0
        MOV     R5,A
        MOV     A,?V0 + 0
        ADD     A,#0xf
        MOV     R2,A
        MOV     A,?V0 + 1
        ADDC    A,#0x0
        MOV     R3,A
        LCALL   ??fillAndSend?relay
        MOV     A,#0x2
        LCALL   ?DEALLOC_XSTACK8
        CFI CFA_XSP16 add(XSP16, 15)
//  728     ZDP_TxOptions = AF_TX_OPTIONS_NONE;
        MOV     DPTR,#ZDP_TxOptions
        CLR     A
        MOVX    @DPTR,A
//  729   }
//  730 }
??zdpProcessAddrReq_8:
        MOV     R7,#0x7
        LJMP    ?BANKED_LEAVE_XDATA
        CFI EndBlock cfiBlock10
//  731 
//  732 /*********************************************************************
//  733  * @fn          ZDP_NodeDescMsg
//  734  *
//  735  * @brief       Builds and sends a Node Descriptor message, unicast to the
//  736  *              specified device.
//  737  *
//  738  * @param       inMsg - incoming message
//  739  * @param       nwkAddr - 16 bit network address for device
//  740  * @param       pNodeDesc - pointer to the node descriptor
//  741  *
//  742  * @return      afStatus_t
//  743  */

        RSEG BANKED_CODE:CODE:NOROOT(0)
//  744 afStatus_t ZDP_NodeDescMsg( zdoIncomingMsg_t *inMsg,
ZDP_NodeDescMsg:
        CFI Block cfiBlock11 Using cfiCommon0
        CFI Function ZDP_NodeDescMsg
        CODE
//  745                            uint16 nwkAddr, NodeDescriptorFormat_t *pNodeDesc )
//  746 {
        FUNCALL ZDP_NodeDescMsg, fillAndSend
        LOCFRAME ISTACK, 0, STACK
        LOCFRAME PSTACK, 0, STACK
        LOCFRAME XSTACK, 12, STACK
        LOCFRAME IOVERLAY, 0, STATIC
        LOCFRAME DOVERLAY, 0, STATIC
        ARGFRAME ISTACK, 0, STACK
        ARGFRAME PSTACK, 0, STACK
        ARGFRAME XSTACK, 12, STACK
        ARGFRAME IOVERLAY, 0, STATIC
        ARGFRAME DOVERLAY, 0, STATIC
        MOV     A,#-0xa
        LCALL   ?BANKED_ENTER_XDATA
        CFI DPH0 load(1, XDATA, add(CFA_XSP16, literal(-1)))
        CFI DPL0 load(1, XDATA, add(CFA_XSP16, literal(-2)))
        CFI ?BRET_EXT load(1, XDATA, add(CFA_XSP16, literal(-3)))
        CFI ?RET_HIGH load(1, XDATA, add(CFA_XSP16, literal(-4)))
        CFI ?RET_LOW load(1, XDATA, add(CFA_XSP16, literal(-5)))
        CFI R7 load(1, XDATA, add(CFA_XSP16, literal(-6)))
        CFI V1 load(1, XDATA, add(CFA_XSP16, literal(-7)))
        CFI V0 load(1, XDATA, add(CFA_XSP16, literal(-8)))
        CFI VB load(1, XDATA, add(CFA_XSP16, literal(-9)))
        CFI R6 load(1, XDATA, add(CFA_XSP16, literal(-10)))
        CFI CFA_SP SP+0
        CFI CFA_XSP16 add(XSP16, 10)
        ; Saved register size: 10
        ; Auto size: 0
        MOV     A,#0xa
        LCALL   ?XSTACK_DISP0_8
        MOVX    A,@DPTR
        MOV     R6,A
        INC     DPTR
        MOVX    A,@DPTR
        MOV     R7,A
//  747   uint8 *pBuf = ZDP_TmpBuf;
        MOV     DPTR,#ZDP_TmpBuf
        MOVX    A,@DPTR
        MOV     R0,A
        INC     DPTR
        MOVX    A,@DPTR
        MOV     R1,A
//  748   byte len;
//  749 
//  750   len = 1 + 2 + 13;  // Status + nwkAddr + Node descriptor
//  751 
//  752   *pBuf++ = ZDP_SUCCESS;
        MOV     DPL,R0
        MOV     DPH,R1
        CLR     A
        MOVX    @DPTR,A
        INC     DPTR
//  753 
//  754   *pBuf++ = LO_UINT16( nwkAddr );
        MOV     A,R4
        MOVX    @DPTR,A
        INC     DPTR
//  755   *pBuf++ = HI_UINT16( nwkAddr );
        MOV     A,R5
        MOVX    @DPTR,A
        INC     DPTR
        MOV     R0,DPL
        MOV     R1,DPH
//  756 
//  757   *pBuf++ = (byte)((pNodeDesc->ComplexDescAvail << 3) |
//  758                      (pNodeDesc->UserDescAvail << 4) |
//  759                      (pNodeDesc->LogicalType & 0x07));
        MOV     DPL,R6
        MOV     DPH,R7
        MOVX    A,@DPTR
        ANL     A,#0x7
        MOV     R5,A
        MOVX    A,@DPTR
        ANL     A,#0x10
        MOV     R4,A
        MOVX    A,@DPTR
        ANL     A,#0x8
        ORL     A,R4
        ORL     A,R5
        MOV     DPL,R0
        MOV     DPH,R1
        MOVX    @DPTR,A
        INC     DPTR
        INC     R0
        MOV     R1,DPH
//  760 
//  761   *pBuf++ = (byte)((pNodeDesc->FrequencyBand << 3) | (pNodeDesc->APSFlags & 0x07));
        MOV     DPL,R6
        MOV     DPH,R7
        INC     DPTR
        MOVX    A,@DPTR
        ANL     A,#0x7
        MOV     R4,A
        MOVX    A,@DPTR
        ANL     A,#0xf8
        ORL     A,R4
        MOV     DPL,R0
        MOV     DPH,R1
        MOVX    @DPTR,A
        INC     DPTR
        INC     R0
        MOV     R1,DPH
//  762   *pBuf++ = pNodeDesc->CapabilityFlags;
        MOV     DPL,R6
        MOV     DPH,R7
        INC     DPTR
        INC     DPTR
        MOVX    A,@DPTR
        MOV     DPL,R0
        MOV     DPH,R1
        MOVX    @DPTR,A
        INC     DPTR
        INC     R0
        MOV     R1,DPH
//  763   *pBuf++ = pNodeDesc->ManufacturerCode[0];
        MOV     DPL,R6
        MOV     DPH,R7
        INC     DPTR
        INC     DPTR
        INC     DPTR
        MOVX    A,@DPTR
        MOV     DPL,R0
        MOV     DPH,R1
        MOVX    @DPTR,A
        INC     DPTR
        INC     R0
        MOV     R1,DPH
//  764   *pBuf++ = pNodeDesc->ManufacturerCode[1];
        MOV     DPL,R6
        MOV     DPH,R7
        INC     DPTR
        INC     DPTR
        INC     DPTR
        INC     DPTR
        MOVX    A,@DPTR
        MOV     DPL,R0
        MOV     DPH,R1
        MOVX    @DPTR,A
        INC     DPTR
        INC     R0
        MOV     R1,DPH
//  765   *pBuf++ = pNodeDesc->MaxBufferSize;
        MOV     DPL,R6
        MOV     DPH,R7
        INC     DPTR
        INC     DPTR
        INC     DPTR
        INC     DPTR
        INC     DPTR
        MOVX    A,@DPTR
        MOV     DPL,R0
        MOV     DPH,R1
        MOVX    @DPTR,A
        INC     DPTR
        INC     R0
        MOV     R1,DPH
//  766   *pBuf++ = pNodeDesc->MaxInTransferSize[0];
        MOV     DPL,R6
        MOV     DPH,R7
        INC     DPTR
        INC     DPTR
        INC     DPTR
        INC     DPTR
        INC     DPTR
        INC     DPTR
        MOVX    A,@DPTR
        MOV     DPL,R0
        MOV     DPH,R1
        MOVX    @DPTR,A
        INC     DPTR
        INC     R0
        MOV     R1,DPH
//  767   *pBuf++ = pNodeDesc->MaxInTransferSize[1];
        MOV     DPL,R6
        MOV     DPH,R7
        INC     DPTR
        INC     DPTR
        INC     DPTR
        INC     DPTR
        INC     DPTR
        INC     DPTR
        INC     DPTR
        MOVX    A,@DPTR
        MOV     DPL,R0
        MOV     DPH,R1
        MOVX    @DPTR,A
        INC     DPTR
        INC     R0
        MOV     R1,DPH
//  768 
//  769   *pBuf++ = LO_UINT16( pNodeDesc->ServerMask );
        MOV     A,R6
        ADD     A,#0x8
        MOV     R4,A
        MOV     A,R7
        ADDC    A,#0x0
        MOV     R5,A
        MOV     DPL,R4
        MOV     DPH,R5
        MOVX    A,@DPTR
        MOV     DPL,R0
        MOV     DPH,R1
        MOVX    @DPTR,A
        INC     DPTR
        INC     R0
        MOV     R1,DPH
//  770   *pBuf++ = HI_UINT16( pNodeDesc->ServerMask );
        MOV     DPL,R4
        MOV     DPH,R5
        INC     DPTR
        MOVX    A,@DPTR
        MOV     DPL,R0
        MOV     DPH,R1
        MOVX    @DPTR,A
        INC     DPTR
        INC     R0
        MOV     R1,DPH
//  771   *pBuf++ = pNodeDesc->MaxOutTransferSize[0];
        MOV     DPL,R6
        MOV     DPH,R7
        INC     DPTR
        INC     DPTR
        INC     DPTR
        INC     DPTR
        INC     DPTR
        INC     DPTR
        INC     DPTR
        INC     DPTR
        INC     DPTR
        INC     DPTR
        MOVX    A,@DPTR
        MOV     DPL,R0
        MOV     DPH,R1
        MOVX    @DPTR,A
        INC     DPTR
        INC     R0
        MOV     R1,DPH
//  772   *pBuf++ = pNodeDesc->MaxOutTransferSize[1];
        MOV     A,R6
        ADD     A,#0xb
        MOV     DPL,A
        MOV     A,R7
        ADDC    A,#0x0
        MOV     DPH,A
        MOVX    A,@DPTR
        MOV     DPL,R0
        MOV     DPH,R1
        MOVX    @DPTR,A
        INC     DPTR
        INC     R0
        MOV     R1,DPH
//  773   *pBuf = pNodeDesc->DescriptorCapability;
        MOV     A,R6
        ADD     A,#0xc
        MOV     DPL,A
        MOV     A,R7
        ADDC    A,#0x0
        MOV     DPH,A
        MOVX    A,@DPTR
        MOV     DPL,R0
        MOV     DPH,R1
        MOVX    @DPTR,A
//  774 
//  775   return fillAndSend( &(inMsg->TransSeq), &(inMsg->srcAddr), Node_Desc_rsp, len );
        ; Setup parameters for call to function fillAndSend
        MOV     ?V0 + 0,#0x2
        MOV     ?V0 + 1,#-0x80
        MOV     R0,#?V0 + 0
        LCALL   ?PUSH_XSTACK_I_TWO
        CFI CFA_XSP16 add(XSP16, 12)
        MOV     R1,#0x10
        MOV     A,R2
        ADD     A,#0x2
        MOV     R4,A
        MOV     A,R3
        ADDC    A,#0x0
        MOV     R5,A
        MOV     A,R2
        ADD     A,#0xf
        MOV     R2,A
        MOV     A,R3
        ADDC    A,#0x0
        MOV     R3,A
        LCALL   ??fillAndSend?relay
        MOV     A,#0x2
        LCALL   ?DEALLOC_XSTACK8
        CFI CFA_XSP16 add(XSP16, 10)
        MOV     R7,#0x2
        LJMP    ?BANKED_LEAVE_XDATA
        CFI EndBlock cfiBlock11
//  776 }
//  777 
//  778 /*********************************************************************
//  779  * @fn          ZDP_PowerDescMsg
//  780  *
//  781  * @brief       Builds and sends a Power Descriptor message, unicast to the
//  782  *              specified device.
//  783  *
//  784  * @param       inMsg - incoming message (request)
//  785  * @param       nwkAddr - 16 bit network address for device
//  786  * @param       pPowerDesc - pointer to the node descriptor
//  787  *
//  788  * @return      afStatus_t
//  789  */

        RSEG BANKED_CODE:CODE:NOROOT(0)
//  790 afStatus_t ZDP_PowerDescMsg( zdoIncomingMsg_t *inMsg,
ZDP_PowerDescMsg:
        CFI Block cfiBlock12 Using cfiCommon0
        CFI Function ZDP_PowerDescMsg
        CODE
//  791                      uint16 nwkAddr, NodePowerDescriptorFormat_t *pPowerDesc )
//  792 {
        FUNCALL ZDP_PowerDescMsg, fillAndSend
        LOCFRAME ISTACK, 0, STACK
        LOCFRAME PSTACK, 0, STACK
        LOCFRAME XSTACK, 12, STACK
        LOCFRAME IOVERLAY, 0, STATIC
        LOCFRAME DOVERLAY, 0, STATIC
        ARGFRAME ISTACK, 0, STACK
        ARGFRAME PSTACK, 0, STACK
        ARGFRAME XSTACK, 12, STACK
        ARGFRAME IOVERLAY, 0, STATIC
        ARGFRAME DOVERLAY, 0, STATIC
        MOV     A,#-0xa
        LCALL   ?BANKED_ENTER_XDATA
        CFI DPH0 load(1, XDATA, add(CFA_XSP16, literal(-1)))
        CFI DPL0 load(1, XDATA, add(CFA_XSP16, literal(-2)))
        CFI ?BRET_EXT load(1, XDATA, add(CFA_XSP16, literal(-3)))
        CFI ?RET_HIGH load(1, XDATA, add(CFA_XSP16, literal(-4)))
        CFI ?RET_LOW load(1, XDATA, add(CFA_XSP16, literal(-5)))
        CFI R7 load(1, XDATA, add(CFA_XSP16, literal(-6)))
        CFI V1 load(1, XDATA, add(CFA_XSP16, literal(-7)))
        CFI V0 load(1, XDATA, add(CFA_XSP16, literal(-8)))
        CFI VB load(1, XDATA, add(CFA_XSP16, literal(-9)))
        CFI R6 load(1, XDATA, add(CFA_XSP16, literal(-10)))
        CFI CFA_SP SP+0
        CFI CFA_XSP16 add(XSP16, 10)
        ; Saved register size: 10
        ; Auto size: 0
        MOV     A,R2
        MOV     R6,A
        MOV     A,R3
        MOV     R7,A
        MOV     A,#0xa
        LCALL   ?XSTACK_DISP0_8
        MOVX    A,@DPTR
        MOV     R0,A
        INC     DPTR
        MOVX    A,@DPTR
        MOV     R1,A
//  793   uint8 *pBuf = ZDP_TmpBuf;
        MOV     DPTR,#ZDP_TmpBuf
        MOVX    A,@DPTR
        MOV     R2,A
        INC     DPTR
        MOVX    A,@DPTR
        MOV     R3,A
//  794   byte len = 1 + 2 + 2;  // Status + nwkAddr + Node Power descriptor.
//  795 
//  796   *pBuf++ = ZDP_SUCCESS;
        MOV     DPL,R2
        MOV     DPH,R3
        CLR     A
        MOVX    @DPTR,A
        INC     DPTR
//  797 
//  798   *pBuf++ = LO_UINT16( nwkAddr );
        MOV     A,R4
        MOVX    @DPTR,A
        INC     DPTR
//  799   *pBuf++ = HI_UINT16( nwkAddr );
        MOV     A,R5
        MOVX    @DPTR,A
        INC     DPTR
        MOV     R2,DPL
        MOV     R3,DPH
//  800 
//  801   *pBuf++ = (byte)((pPowerDesc->AvailablePowerSources << 4)
//  802                     | (pPowerDesc->PowerMode & 0x0F));
        MOV     DPL,R0
        MOV     DPH,R1
        MOVX    A,@DPTR
        ANL     A,#0xf
        MOV     ?V0 + 0,A
        MOVX    A,@DPTR
        ANL     A,#0xf0
        ORL     A,?V0 + 0
        MOV     DPL,R2
        MOV     DPH,R3
        MOVX    @DPTR,A
        INC     DPTR
        INC     R2
        MOV     R3,DPH
//  803   *pBuf++ = (byte)((pPowerDesc->CurrentPowerSourceLevel << 4)
//  804                     | (pPowerDesc->CurrentPowerSource & 0x0F));
        MOV     DPL,R0
        MOV     DPH,R1
        INC     DPTR
        MOVX    A,@DPTR
        ANL     A,#0xf
        MOV     R4,A
        MOV     DPL,R0
        MOV     DPH,R1
        MOVX    A,@DPTR
        MOV     ?V0 + 0,A
        INC     DPTR
        MOVX    A,@DPTR
        MOV     ?V0 + 1,A
        MOV     A,#0xc
        MOV     R0,#?V0 + 0
        LCALL   ?US_SHR
        MOV     A,?V0 + 0
        SWAP    A
        ORL     A,R4
        MOV     DPL,R2
        MOV     DPH,R3
        MOVX    @DPTR,A
//  805 
//  806   return fillAndSend( &(inMsg->TransSeq), &(inMsg->srcAddr), Power_Desc_rsp, len );
        ; Setup parameters for call to function fillAndSend
        MOV     ?V0 + 0,#0x3
        MOV     ?V0 + 1,#-0x80
        MOV     R0,#?V0 + 0
        LCALL   ?PUSH_XSTACK_I_TWO
        CFI CFA_XSP16 add(XSP16, 12)
        MOV     R1,#0x5
        MOV     A,R6
        ADD     A,#0x2
        MOV     R4,A
        MOV     A,R7
        ADDC    A,#0x0
        MOV     R5,A
        MOV     A,R6
        ADD     A,#0xf
        MOV     R2,A
        MOV     A,R7
        ADDC    A,#0x0
        MOV     R3,A
        LCALL   ??fillAndSend?relay
        MOV     A,#0x2
        LCALL   ?DEALLOC_XSTACK8
        CFI CFA_XSP16 add(XSP16, 10)
        MOV     R7,#0x2
        LJMP    ?BANKED_LEAVE_XDATA
        CFI EndBlock cfiBlock12
//  807 }
//  808 
//  809 /*********************************************************************
//  810  * @fn          ZDP_SimpleDescMsg
//  811  *
//  812  * @brief       Builds and sends a Simple Descriptor message, unicast to the
//  813  *              specified device.
//  814  *
//  815  * @param       inMsg - incoming message (request)
//  816  * @param       Status - message status (ZDP_SUCCESS or other)
//  817  * @param       pSimpleDesc - pointer to the node descriptor
//  818  *
//  819  * @return      afStatus_t
//  820  */

        RSEG BANKED_CODE:CODE:NOROOT(0)
//  821 afStatus_t ZDP_SimpleDescMsg( zdoIncomingMsg_t *inMsg, byte Status,
ZDP_SimpleDescMsg:
        CFI Block cfiBlock13 Using cfiCommon0
        CFI Function ZDP_SimpleDescMsg
        CODE
//  822                               SimpleDescriptionFormat_t *pSimpleDesc )
//  823 {
        FUNCALL ZDP_SimpleDescMsg, fillAndSend
        LOCFRAME ISTACK, 0, STACK
        LOCFRAME PSTACK, 0, STACK
        LOCFRAME XSTACK, 20, STACK
        LOCFRAME IOVERLAY, 0, STATIC
        LOCFRAME DOVERLAY, 0, STATIC
        ARGFRAME ISTACK, 0, STACK
        ARGFRAME PSTACK, 0, STACK
        ARGFRAME XSTACK, 20, STACK
        ARGFRAME IOVERLAY, 0, STATIC
        ARGFRAME DOVERLAY, 0, STATIC
        MOV     A,#-0x12
        LCALL   ?BANKED_ENTER_XDATA
        CFI DPH0 load(1, XDATA, add(CFA_XSP16, literal(-1)))
        CFI DPL0 load(1, XDATA, add(CFA_XSP16, literal(-2)))
        CFI ?BRET_EXT load(1, XDATA, add(CFA_XSP16, literal(-3)))
        CFI ?RET_HIGH load(1, XDATA, add(CFA_XSP16, literal(-4)))
        CFI ?RET_LOW load(1, XDATA, add(CFA_XSP16, literal(-5)))
        CFI R7 load(1, XDATA, add(CFA_XSP16, literal(-6)))
        CFI V9 load(1, XDATA, add(CFA_XSP16, literal(-7)))
        CFI V8 load(1, XDATA, add(CFA_XSP16, literal(-8)))
        CFI V7 load(1, XDATA, add(CFA_XSP16, literal(-9)))
        CFI V6 load(1, XDATA, add(CFA_XSP16, literal(-10)))
        CFI V5 load(1, XDATA, add(CFA_XSP16, literal(-11)))
        CFI V4 load(1, XDATA, add(CFA_XSP16, literal(-12)))
        CFI V3 load(1, XDATA, add(CFA_XSP16, literal(-13)))
        CFI V2 load(1, XDATA, add(CFA_XSP16, literal(-14)))
        CFI V1 load(1, XDATA, add(CFA_XSP16, literal(-15)))
        CFI V0 load(1, XDATA, add(CFA_XSP16, literal(-16)))
        CFI VB load(1, XDATA, add(CFA_XSP16, literal(-17)))
        CFI R6 load(1, XDATA, add(CFA_XSP16, literal(-18)))
        CFI CFA_SP SP+0
        CFI CFA_XSP16 add(XSP16, 18)
        ; Saved register size: 18
        ; Auto size: 0
        MOV     ?V0 + 0,R2
        MOV     ?V0 + 1,R3
        MOV     A,R1
        MOV     R6,A
//  824   uint8 *pBuf = ZDP_TmpBuf;
        MOV     DPTR,#ZDP_TmpBuf
        MOVX    A,@DPTR
        MOV     R0,A
        INC     DPTR
        MOVX    A,@DPTR
        MOV     R1,A
//  825   uint8 i, len;
//  826 
//  827   if ( Status == ZDP_SUCCESS && pSimpleDesc )
        MOV     A,R6
        JNZ     ??ZDP_SimpleDescMsg_0
        MOV     A,R4
        ORL     A,R5
        JZ      ??ZDP_SimpleDescMsg_0
//  828   {
//  829     // Status + NWKAddrOfInterest + desc length + empty simple descriptor.
//  830     len = 1 + 2 + 1 + 8;
//  831     len += (pSimpleDesc->AppNumInClusters + pSimpleDesc->AppNumOutClusters) * sizeof ( uint16 );
        MOV     DPL,R4
        MOV     DPH,R5
        INC     DPTR
        INC     DPTR
        INC     DPTR
        INC     DPTR
        INC     DPTR
        INC     DPTR
        INC     DPTR
        INC     DPTR
        INC     DPTR
        PUSH    DPL
        CFI CFA_SP SP+-1
        PUSH    DPH
        CFI CFA_SP SP+-2
        MOV     DPL,R4
        MOV     DPH,R5
        INC     DPTR
        INC     DPTR
        INC     DPTR
        INC     DPTR
        INC     DPTR
        INC     DPTR
        MOVX    A,@DPTR
        POP     DPH
        CFI CFA_SP SP+-1
        POP     DPL
        CFI CFA_SP SP+0
        MOV     R2,A
        MOVX    A,@DPTR
        ADD     A,R2
        CLR     C
        RLC     A
        ADD     A,#0xc
        MOV     R2,A
        SJMP    ??ZDP_SimpleDescMsg_1
//  832   }
//  833   else
//  834   {
//  835     len = 1 + 2 + 1; // Status + desc length
??ZDP_SimpleDescMsg_0:
        MOV     R2,#0x4
//  836   }
//  837   if ( len >= ZDP_BUF_SZ-1 )
??ZDP_SimpleDescMsg_1:
        MOV     A,R2
        CLR     C
        SUBB    A,#0x4f
        JC      ??ZDP_SimpleDescMsg_2
//  838   {
//  839     return afStatus_MEM_FAIL;
        MOV     R1,#0x10
        LJMP    ??ZDP_SimpleDescMsg_3 & 0xFFFF
//  840   }
//  841 
//  842   *pBuf++ = Status;
??ZDP_SimpleDescMsg_2:
        MOV     A,R6
        MOV     DPL,R0
        MOV     DPH,R1
        MOVX    @DPTR,A
        INC     DPTR
        MOV     R0,DPL
        MOV     R1,DPH
//  843 
//  844   *pBuf++ = LO_UINT16( ZDAppNwkAddr.addr.shortAddr );
        MOV     DPTR,#ZDAppNwkAddr
        MOVX    A,@DPTR
        MOV     DPL,R0
        MOV     DPH,R1
        MOVX    @DPTR,A
        INC     DPTR
        INC     R0
        MOV     R1,DPH
//  845   *pBuf++ = HI_UINT16( ZDAppNwkAddr.addr.shortAddr );
        MOV     DPTR,#ZDAppNwkAddr + 1
        MOVX    A,@DPTR
        MOV     DPL,R0
        MOV     DPH,R1
        MOVX    @DPTR,A
        INC     DPTR
//  846 
//  847   if ( len > 4 )
        MOV     A,R2
        CLR     C
        SUBB    A,#0x5
        JNC     $+5
        LJMP    ??ZDP_SimpleDescMsg_4 & 0xFFFF
//  848   {
//  849     *pBuf++ = len - 4;   // Simple descriptor length
        MOV     A,#-0x4
        ADD     A,R2
        MOVX    @DPTR,A
        INC     DPTR
        INC     R0
        INC     R0
        MOV     R1,DPH
//  850 
//  851     *pBuf++ = pSimpleDesc->EndPoint;
        MOV     DPL,R4
        MOV     DPH,R5
        MOVX    A,@DPTR
        MOV     DPL,R0
        MOV     DPH,R1
        MOVX    @DPTR,A
        INC     DPTR
        INC     R0
        MOV     R1,DPH
//  852     *pBuf++ = LO_UINT16( pSimpleDesc->AppProfId );
        MOV     DPL,R4
        MOV     DPH,R5
        INC     DPTR
        MOV     ?V0 + 2,DPL
        MOV     ?V0 + 3,DPH
        MOVX    A,@DPTR
        MOV     DPL,R0
        MOV     DPH,R1
        MOVX    @DPTR,A
        INC     DPTR
        INC     R0
        MOV     R1,DPH
//  853     *pBuf++ = HI_UINT16( pSimpleDesc->AppProfId );
        MOV     DPL,?V0 + 2
        MOV     DPH,?V0 + 3
        INC     DPTR
        MOVX    A,@DPTR
        MOV     DPL,R0
        MOV     DPH,R1
        MOVX    @DPTR,A
        INC     DPTR
        INC     R0
        MOV     R1,DPH
//  854     *pBuf++ = LO_UINT16( pSimpleDesc->AppDeviceId );
        MOV     A,R4
        ADD     A,#0x3
        MOV     ?V0 + 2,A
        MOV     A,R5
        ADDC    A,#0x0
        MOV     ?V0 + 3,A
        MOV     DPL,?V0 + 2
        MOV     DPH,A
        MOVX    A,@DPTR
        MOV     DPL,R0
        MOV     DPH,R1
        MOVX    @DPTR,A
        INC     DPTR
        INC     R0
        MOV     R1,DPH
//  855     *pBuf++ = HI_UINT16( pSimpleDesc->AppDeviceId );
        MOV     DPL,?V0 + 2
        MOV     DPH,?V0 + 3
        INC     DPTR
        MOVX    A,@DPTR
        MOV     DPL,R0
        MOV     DPH,R1
        MOVX    @DPTR,A
        INC     DPTR
        INC     R0
        MOV     R1,DPH
//  856 
//  857     *pBuf++ = (byte)(pSimpleDesc->AppDevVer << 4);
        MOV     DPL,R4
        MOV     DPH,R5
        INC     DPTR
        INC     DPTR
        INC     DPTR
        INC     DPTR
        INC     DPTR
        MOVX    A,@DPTR
        SWAP    A
        ANL     A,#0xf0
        MOV     DPL,R0
        MOV     DPH,R1
        MOVX    @DPTR,A
        INC     DPTR
        INC     R0
        MOV     R1,DPH
//  858 
//  859     *pBuf++ = pSimpleDesc->AppNumInClusters;
        MOV     A,R4
        ADD     A,#0x6
        MOV     ?V0 + 2,A
        MOV     A,R5
        ADDC    A,#0x0
        MOV     ?V0 + 4,?V0 + 2
        MOV     ?V0 + 5,A
        MOV     DPL,?V0 + 4
        MOV     DPH,A
        MOVX    A,@DPTR
        MOV     DPL,R0
        MOV     DPH,R1
        MOVX    @DPTR,A
        INC     DPTR
        INC     R0
        MOV     R1,DPH
//  860     if ( pSimpleDesc->AppNumInClusters )
        MOV     DPL,?V0 + 4
        MOV     DPH,?V0 + 5
        MOVX    A,@DPTR
        JZ      ??ZDP_SimpleDescMsg_5
//  861     {
//  862       for (i=0; i<pSimpleDesc->AppNumInClusters; ++i)
        MOV     R3,#0x0
        SJMP    ??ZDP_SimpleDescMsg_6
//  863       {
//  864         *pBuf++ = LO_UINT16( pSimpleDesc->pAppInClusterList[i] );
??ZDP_SimpleDescMsg_7:
        MOV     A,R3
        CLR     C
        RLC     A
        MOV     ?V0 + 2,A
        CLR     A
        RLC     A
        MOV     ?V0 + 3,A
        MOV     A,R4
        ADD     A,#0x7
        MOV     ?V0 + 6,A
        MOV     A,R5
        ADDC    A,#0x0
        MOV     ?V0 + 7,A
        MOV     DPL,?V0 + 6
        MOV     DPH,A
        MOVX    A,@DPTR
        ADD     A,?V0 + 2
        MOV     R7,A
        INC     DPTR
        MOVX    A,@DPTR
        ADDC    A,?V0 + 3
        MOV     DPL,R7
        MOV     DPH,A
        MOVX    A,@DPTR
        MOV     DPL,R0
        MOV     DPH,R1
        MOVX    @DPTR,A
        INC     DPTR
        MOV     R0,DPL
        MOV     R1,DPH
//  865         *pBuf++ = HI_UINT16( pSimpleDesc->pAppInClusterList[i] );
        MOV     DPL,?V0 + 6
        MOV     DPH,?V0 + 7
        MOVX    A,@DPTR
        ADD     A,?V0 + 2
        MOV     R7,A
        INC     DPTR
        MOVX    A,@DPTR
        ADDC    A,?V0 + 3
        MOV     DPL,R7
        MOV     DPH,A
        INC     DPTR
        MOVX    A,@DPTR
        MOV     DPL,R0
        MOV     DPH,R1
        MOVX    @DPTR,A
        INC     DPTR
        INC     R0
        MOV     R1,DPH
//  866       }
        INC     R3
??ZDP_SimpleDescMsg_6:
        MOV     DPL,?V0 + 4
        MOV     DPH,?V0 + 5
        MOVX    A,@DPTR
        MOV     R7,A
        MOV     A,R3
        CLR     C
        SUBB    A,R7
        JC      ??ZDP_SimpleDescMsg_7
//  867     }
//  868 
//  869     *pBuf++ = pSimpleDesc->AppNumOutClusters;
??ZDP_SimpleDescMsg_5:
        MOV     A,R4
        ADD     A,#0x9
        MOV     ?V0 + 2,A
        MOV     A,R5
        ADDC    A,#0x0
        MOV     ?V0 + 4,?V0 + 2
        MOV     ?V0 + 5,A
        MOV     DPL,?V0 + 4
        MOV     DPH,A
        MOVX    A,@DPTR
        MOV     DPL,R0
        MOV     DPH,R1
        MOVX    @DPTR,A
        INC     DPTR
        MOV     R0,DPL
        MOV     R1,DPH
//  870     if ( pSimpleDesc->AppNumOutClusters )
        MOV     DPL,?V0 + 4
        MOV     DPH,?V0 + 5
        MOVX    A,@DPTR
        JZ      ??ZDP_SimpleDescMsg_8
//  871     {
//  872       for (i=0; i<pSimpleDesc->AppNumOutClusters; ++i)
        MOV     R3,#0x0
??ZDP_SimpleDescMsg_9:
        MOV     DPL,?V0 + 4
        MOV     DPH,?V0 + 5
        MOVX    A,@DPTR
        MOV     R7,A
        MOV     A,R3
        CLR     C
        SUBB    A,R7
        JNC     ??ZDP_SimpleDescMsg_8
//  873       {
//  874         *pBuf++ = LO_UINT16( pSimpleDesc->pAppOutClusterList[i] );
        MOV     A,R3
        CLR     C
        RLC     A
        MOV     ?V0 + 2,A
        CLR     A
        RLC     A
        MOV     ?V0 + 3,A
        MOV     A,R4
        ADD     A,#0xa
        MOV     ?V0 + 6,A
        MOV     A,R5
        ADDC    A,#0x0
        MOV     ?V0 + 7,A
        MOV     DPL,?V0 + 6
        MOV     DPH,A
        MOVX    A,@DPTR
        ADD     A,?V0 + 2
        MOV     R7,A
        INC     DPTR
        MOVX    A,@DPTR
        ADDC    A,?V0 + 3
        MOV     DPL,R7
        MOV     DPH,A
        MOVX    A,@DPTR
        MOV     DPL,R0
        MOV     DPH,R1
        MOVX    @DPTR,A
        INC     DPTR
        MOV     R0,DPL
        MOV     R1,DPH
//  875         *pBuf++ = HI_UINT16( pSimpleDesc->pAppOutClusterList[i] );
        MOV     DPL,?V0 + 6
        MOV     DPH,?V0 + 7
        MOVX    A,@DPTR
        ADD     A,?V0 + 2
        MOV     R7,A
        INC     DPTR
        MOVX    A,@DPTR
        ADDC    A,?V0 + 3
        MOV     DPL,R7
        MOV     DPH,A
        INC     DPTR
        MOVX    A,@DPTR
        MOV     DPL,R0
        MOV     DPH,R1
        MOVX    @DPTR,A
        INC     DPTR
        INC     R0
        MOV     R1,DPH
//  876       }
        INC     R3
        SJMP    ??ZDP_SimpleDescMsg_9
//  877     }
//  878   }
//  879 
//  880   else
//  881   {
//  882     *pBuf = 0; // Description Length = 0;
??ZDP_SimpleDescMsg_4:
        CLR     A
        MOVX    @DPTR,A
//  883   }
//  884 
//  885   return fillAndSend( &(inMsg->TransSeq), &(inMsg->srcAddr), Simple_Desc_rsp, len );
??ZDP_SimpleDescMsg_8:
        ; Setup parameters for call to function fillAndSend
        MOV     ?V0 + 2,#0x4
        MOV     ?V0 + 3,#-0x80
        MOV     R0,#?V0 + 2
        LCALL   ?PUSH_XSTACK_I_TWO
        CFI CFA_XSP16 add(XSP16, 20)
        MOV     A,R2
        MOV     R1,A
        MOV     A,?V0 + 0
        ADD     A,#0x2
        MOV     R4,A
        MOV     A,?V0 + 1
        ADDC    A,#0x0
        MOV     R5,A
        MOV     A,?V0 + 0
        ADD     A,#0xf
        MOV     R2,A
        MOV     A,?V0 + 1
        ADDC    A,#0x0
        MOV     R3,A
        LCALL   ??fillAndSend?relay
        MOV     A,#0x2
        LCALL   ?DEALLOC_XSTACK8
        CFI CFA_XSP16 add(XSP16, 18)
??ZDP_SimpleDescMsg_3:
        MOV     R7,#0xa
        LJMP    ?BANKED_LEAVE_XDATA
        CFI EndBlock cfiBlock13
//  886 }
//  887 
//  888 /*********************************************************************
//  889  * @fn          ZDP_EPRsp
//  890  *
//  891  * @brief       This builds and send an endpoint list. Used in
//  892  *              Active_EP_rsp and Match_Desc_Rsp
//  893  *              message.  This function sends unicast message to the
//  894  *              requesting device.
//  895  *
//  896  * @param       MsgType - either Active_EP_rsp or Match_Desc_Rsp
//  897  * @param       dstAddr - destination address
//  898  * @param       Status - message status (ZDP_SUCCESS or other)
//  899  * @param       nwkAddr - Device's short address that this response describes
//  900  * @param       Count - number of endpoint/interfaces in list
//  901  * @param       pEPIntfList - Array of Endpoint/Interfaces
//  902  * @param       SecurityEnable - Security Options
//  903  *
//  904  * @return      afStatus_t
//  905  */

        RSEG BANKED_CODE:CODE:NOROOT(0)
//  906 afStatus_t ZDP_EPRsp( uint16 MsgType, byte TransSeq, zAddrType_t *dstAddr,
ZDP_EPRsp:
        CFI Block cfiBlock14 Using cfiCommon0
        CFI Function ZDP_EPRsp
        CODE
//  907                         byte Status, uint16 nwkAddr, byte Count,
//  908                         uint8 *pEPList,
//  909                         byte SecurityEnable )
//  910 {
        FUNCALL ZDP_EPRsp, osal_memcpy
        LOCFRAME ISTACK, 0, STACK
        LOCFRAME PSTACK, 0, STACK
        LOCFRAME XSTACK, 22, STACK
        LOCFRAME IOVERLAY, 0, STATIC
        LOCFRAME DOVERLAY, 0, STATIC
        ARGFRAME ISTACK, 0, STACK
        ARGFRAME PSTACK, 0, STACK
        ARGFRAME XSTACK, 22, STACK
        ARGFRAME IOVERLAY, 0, STATIC
        ARGFRAME DOVERLAY, 0, STATIC
        FUNCALL ZDP_EPRsp, fillAndSend
        LOCFRAME ISTACK, 0, STACK
        LOCFRAME PSTACK, 0, STACK
        LOCFRAME XSTACK, 21, STACK
        LOCFRAME IOVERLAY, 0, STATIC
        LOCFRAME DOVERLAY, 0, STATIC
        ARGFRAME ISTACK, 0, STACK
        ARGFRAME PSTACK, 0, STACK
        ARGFRAME XSTACK, 21, STACK
        ARGFRAME IOVERLAY, 0, STATIC
        ARGFRAME DOVERLAY, 0, STATIC
        MOV     A,#-0x12
        LCALL   ?BANKED_ENTER_XDATA
        CFI DPH0 load(1, XDATA, add(CFA_XSP16, literal(-1)))
        CFI DPL0 load(1, XDATA, add(CFA_XSP16, literal(-2)))
        CFI ?BRET_EXT load(1, XDATA, add(CFA_XSP16, literal(-3)))
        CFI ?RET_HIGH load(1, XDATA, add(CFA_XSP16, literal(-4)))
        CFI ?RET_LOW load(1, XDATA, add(CFA_XSP16, literal(-5)))
        CFI R7 load(1, XDATA, add(CFA_XSP16, literal(-6)))
        CFI V9 load(1, XDATA, add(CFA_XSP16, literal(-7)))
        CFI V8 load(1, XDATA, add(CFA_XSP16, literal(-8)))
        CFI V7 load(1, XDATA, add(CFA_XSP16, literal(-9)))
        CFI V6 load(1, XDATA, add(CFA_XSP16, literal(-10)))
        CFI V5 load(1, XDATA, add(CFA_XSP16, literal(-11)))
        CFI V4 load(1, XDATA, add(CFA_XSP16, literal(-12)))
        CFI V3 load(1, XDATA, add(CFA_XSP16, literal(-13)))
        CFI V2 load(1, XDATA, add(CFA_XSP16, literal(-14)))
        CFI V1 load(1, XDATA, add(CFA_XSP16, literal(-15)))
        CFI V0 load(1, XDATA, add(CFA_XSP16, literal(-16)))
        CFI VB load(1, XDATA, add(CFA_XSP16, literal(-17)))
        CFI R6 load(1, XDATA, add(CFA_XSP16, literal(-18)))
        CFI CFA_SP SP+0
        CFI CFA_XSP16 add(XSP16, 18)
        ; Saved register size: 18
        ; Auto size: 1
        MOV     A,#-0x1
        LCALL   ?ALLOC_XSTACK8
        CFI CFA_XSP16 add(XSP16, 19)
        MOV     A,R1
        MOV     DPL,?XSP + 0
        MOV     DPH,?XSP + 1
        MOVX    @DPTR,A
        MOV     A,R2
        MOV     R6,A
        MOV     A,R3
        MOV     R7,A
        MOV     ?V0 + 2,R4
        MOV     ?V0 + 3,R5
        MOV     A,#0x13
        LCALL   ?XSTACK_DISP0_8
        MOVX    A,@DPTR
        MOV     R4,A
        MOV     A,#0x14
        LCALL   ?XSTACK_DISP0_8
        MOVX    A,@DPTR
        MOV     R0,A
        INC     DPTR
        MOVX    A,@DPTR
        MOV     R1,A
        MOV     A,#0x16
        LCALL   ?XSTACK_DISP0_8
        MOVX    A,@DPTR
        MOV     ?V0 + 8,A
        MOV     A,#0x17
        LCALL   ?XSTACK_DISP0_8
        MOVX    A,@DPTR
        MOV     ?V0 + 4,A
        INC     DPTR
        MOVX    A,@DPTR
        MOV     ?V0 + 5,A
//  911   uint8 *pBuf = ZDP_TmpBuf;
        MOV     DPTR,#ZDP_TmpBuf
        MOVX    A,@DPTR
        MOV     R2,A
        INC     DPTR
        MOVX    A,@DPTR
        MOV     R3,A
//  912   byte len = 1 + 2 + 1;  // Status + nwkAddr + endpoint/interface count.
        MOV     ?V0 + 0,#0x4
//  913   byte txOptions;
//  914 
//  915   (void)SecurityEnable;  // Intentionally unreferenced parameter
//  916 
//  917   if ( MsgType == Match_Desc_rsp )
        MOV     A,#0x6
        XRL     A,R6
        JNZ     ??ZDP_EPRsp_0
        MOV     A,#-0x80
        XRL     A,R7
??ZDP_EPRsp_0:
        JNZ     ??ZDP_EPRsp_1
//  918     txOptions = AF_MSG_ACK_REQUEST;
        MOV     ?V0 + 1,#0x10
        SJMP    ??ZDP_EPRsp_2
//  919   else
//  920     txOptions = 0;
??ZDP_EPRsp_1:
        MOV     ?V0 + 1,#0x0
//  921 
//  922     *pBuf++ = Status;
??ZDP_EPRsp_2:
        MOV     A,R4
        MOV     DPL,R2
        MOV     DPH,R3
        MOVX    @DPTR,A
        INC     DPTR
//  923   *pBuf++ = LO_UINT16( nwkAddr );
        MOV     A,R0
        MOVX    @DPTR,A
        INC     DPTR
//  924   *pBuf++ = HI_UINT16( nwkAddr );
        MOV     A,R1
        MOVX    @DPTR,A
        INC     DPTR
//  925 
//  926   *pBuf++ = Count;   // Endpoint/Interface count
        MOV     A,?V0 + 8
        MOVX    @DPTR,A
        INC     DPTR
        MOV     R2,DPL
        MOV     R3,DPH
//  927 
//  928   if ( Count )
        JZ      ??ZDP_EPRsp_3
//  929   {
//  930     len += Count;
        MOV     A,#0x4
        ADD     A,?V0 + 8
        MOV     ?V0 + 0,A
//  931     osal_memcpy( pBuf, pEPList, Count );
        ; Setup parameters for call to function osal_memcpy
        MOV     ?V0 + 6,#0x0
        MOV     R0,#?V0 + 4
        LCALL   ?PUSH_XSTACK_I_THREE
        CFI CFA_XSP16 add(XSP16, 22)
        MOV     R4,?V0 + 8
        MOV     R5,#0x0
        LCALL   ??osal_memcpy?relay
        MOV     A,#0x3
        LCALL   ?DEALLOC_XSTACK8
        CFI CFA_XSP16 add(XSP16, 19)
//  932   }
//  933 
//  934   FillAndSendTxOptions( &TransSeq, dstAddr, MsgType, len, txOptions );
??ZDP_EPRsp_3:
        MOV     A,?V0 + 1
        MOV     DPTR,#ZDP_TxOptions
        MOVX    @DPTR,A
        ; Setup parameters for call to function fillAndSend
        MOV     ?V0 + 4,R6
        MOV     ?V0 + 5,R7
        MOV     R0,#?V0 + 4
        LCALL   ?PUSH_XSTACK_I_TWO
        CFI CFA_XSP16 add(XSP16, 21)
        MOV     R1,?V0 + 0
        MOV     R4,?V0 + 2
        MOV     R5,?V0 + 3
        MOV     A,#0x2
        LCALL   ?XSTACK_DISP0_8
        MOV     R2,DPL
        MOV     R3,DPH
        LCALL   ??fillAndSend?relay
        MOV     A,#0x2
        LCALL   ?DEALLOC_XSTACK8
        CFI CFA_XSP16 add(XSP16, 19)
        MOV     DPTR,#ZDP_TxOptions
        CLR     A
        MOVX    @DPTR,A
        INC     A
        LCALL   ?DEALLOC_XSTACK8
        CFI CFA_XSP16 add(XSP16, 18)
        MOV     R7,#0xa
        LJMP    ?BANKED_LEAVE_XDATA
        CFI EndBlock cfiBlock14
//  935 }
//  936 
//  937 /*********************************************************************
//  938  * @fn          ZDP_UserDescRsp
//  939  *
//  940  * @brief       Build and send the User Decriptor Response.
//  941  *
//  942  *
//  943  * @param       dstAddr - destination address
//  944  * @param       nwkAddrOfInterest -
//  945  * @param       userDesc -
//  946  * @param       SecurityEnable - Security Options
//  947  *
//  948  * @return      ZStatus_t
//  949  */

        RSEG BANKED_CODE:CODE:NOROOT(0)
//  950 ZStatus_t ZDP_UserDescRsp( byte TransSeq, zAddrType_t *dstAddr,
ZDP_UserDescRsp:
        CFI Block cfiBlock15 Using cfiCommon0
        CFI Function ZDP_UserDescRsp
        CODE
//  951                 uint16 nwkAddrOfInterest, UserDescriptorFormat_t *userDesc,
//  952                 byte SecurityEnable )
//  953 {
        FUNCALL ZDP_UserDescRsp, osal_memcpy
        LOCFRAME ISTACK, 0, STACK
        LOCFRAME PSTACK, 0, STACK
        LOCFRAME XSTACK, 22, STACK
        LOCFRAME IOVERLAY, 0, STATIC
        LOCFRAME DOVERLAY, 0, STATIC
        ARGFRAME ISTACK, 0, STACK
        ARGFRAME PSTACK, 0, STACK
        ARGFRAME XSTACK, 22, STACK
        ARGFRAME IOVERLAY, 0, STATIC
        ARGFRAME DOVERLAY, 0, STATIC
        FUNCALL ZDP_UserDescRsp, fillAndSend
        LOCFRAME ISTACK, 0, STACK
        LOCFRAME PSTACK, 0, STACK
        LOCFRAME XSTACK, 21, STACK
        LOCFRAME IOVERLAY, 0, STATIC
        LOCFRAME DOVERLAY, 0, STATIC
        ARGFRAME ISTACK, 0, STACK
        ARGFRAME PSTACK, 0, STACK
        ARGFRAME XSTACK, 21, STACK
        ARGFRAME IOVERLAY, 0, STATIC
        ARGFRAME DOVERLAY, 0, STATIC
        MOV     A,#-0x12
        LCALL   ?BANKED_ENTER_XDATA
        CFI DPH0 load(1, XDATA, add(CFA_XSP16, literal(-1)))
        CFI DPL0 load(1, XDATA, add(CFA_XSP16, literal(-2)))
        CFI ?BRET_EXT load(1, XDATA, add(CFA_XSP16, literal(-3)))
        CFI ?RET_HIGH load(1, XDATA, add(CFA_XSP16, literal(-4)))
        CFI ?RET_LOW load(1, XDATA, add(CFA_XSP16, literal(-5)))
        CFI R7 load(1, XDATA, add(CFA_XSP16, literal(-6)))
        CFI V9 load(1, XDATA, add(CFA_XSP16, literal(-7)))
        CFI V8 load(1, XDATA, add(CFA_XSP16, literal(-8)))
        CFI V7 load(1, XDATA, add(CFA_XSP16, literal(-9)))
        CFI V6 load(1, XDATA, add(CFA_XSP16, literal(-10)))
        CFI V5 load(1, XDATA, add(CFA_XSP16, literal(-11)))
        CFI V4 load(1, XDATA, add(CFA_XSP16, literal(-12)))
        CFI V3 load(1, XDATA, add(CFA_XSP16, literal(-13)))
        CFI V2 load(1, XDATA, add(CFA_XSP16, literal(-14)))
        CFI V1 load(1, XDATA, add(CFA_XSP16, literal(-15)))
        CFI V0 load(1, XDATA, add(CFA_XSP16, literal(-16)))
        CFI VB load(1, XDATA, add(CFA_XSP16, literal(-17)))
        CFI R6 load(1, XDATA, add(CFA_XSP16, literal(-18)))
        CFI CFA_SP SP+0
        CFI CFA_XSP16 add(XSP16, 18)
        ; Saved register size: 18
        ; Auto size: 1
        MOV     A,#-0x1
        LCALL   ?ALLOC_XSTACK8
        CFI CFA_XSP16 add(XSP16, 19)
        MOV     A,R1
        MOV     DPL,?XSP + 0
        MOV     DPH,?XSP + 1
        MOVX    @DPTR,A
        MOV     A,R2
        MOV     R6,A
        MOV     A,R3
        MOV     R7,A
        MOV     A,#0x13
        LCALL   ?XSTACK_DISP0_8
        MOVX    A,@DPTR
        MOV     R0,A
        INC     DPTR
        MOVX    A,@DPTR
        MOV     R1,A
        MOV     ?V0 + 8,R0
        MOV     ?V0 + 9,R1
//  954   uint8 *pBuf = ZDP_TmpBuf;
        MOV     DPTR,#ZDP_TmpBuf
        MOVX    A,@DPTR
        MOV     ?V0 + 0,A
        INC     DPTR
        MOVX    A,@DPTR
        MOV     ?V0 + 1,A
//  955   byte len = 1 + 2 + 1;  // Status + nwkAddr + descriptor length.
//  956 
//  957   (void)SecurityEnable;  // Intentionally unreferenced parameter
//  958 
//  959   len += userDesc->len;
        MOV     DPL,R0
        MOV     DPH,R1
        MOVX    A,@DPTR
        ADD     A,#0x4
        MOV     ?V0 + 2,A
//  960 
//  961   *pBuf++ = ZSUCCESS;
        MOV     DPL,?V0 + 0
        MOV     DPH,?V0 + 1
        CLR     A
        MOVX    @DPTR,A
        INC     DPTR
//  962 
//  963   *pBuf++ = LO_UINT16( nwkAddrOfInterest );
        MOV     A,R4
        MOVX    @DPTR,A
        INC     DPTR
//  964   *pBuf++ = HI_UINT16( nwkAddrOfInterest );
        MOV     A,R5
        MOVX    @DPTR,A
        INC     DPTR
        MOV     ?V0 + 0,DPL
        MOV     ?V0 + 1,DPH
//  965 
//  966   *pBuf++ = userDesc->len;
        MOV     DPL,R0
        MOV     DPH,R1
        MOVX    A,@DPTR
        MOV     DPL,?V0 + 0
        MOV     DPH,?V0 + 1
        MOVX    @DPTR,A
        INC     DPTR
        MOV     ?V0 + 0,DPL
        MOV     ?V0 + 1,DPH
//  967   osal_memcpy( pBuf, userDesc->desc, userDesc->len );
        ; Setup parameters for call to function osal_memcpy
        MOV     DPL,R0
        MOV     DPH,R1
        INC     DPTR
        MOV     R1,DPL
        MOV     R2,DPH
        MOV     ?V0 + 4,R1
        MOV     ?V0 + 5,R2
        MOV     ?V0 + 6,#0x0
        MOV     R0,#?V0 + 4
        LCALL   ?PUSH_XSTACK_I_THREE
        CFI CFA_XSP16 add(XSP16, 22)
        MOV     DPL,?V0 + 8
        MOV     DPH,?V0 + 9
        MOVX    A,@DPTR
        MOV     R4,A
        MOV     R5,#0x0
        MOV     R2,?V0 + 0
        MOV     R3,?V0 + 1
        LCALL   ??osal_memcpy?relay
        MOV     A,#0x3
        LCALL   ?DEALLOC_XSTACK8
        CFI CFA_XSP16 add(XSP16, 19)
//  968 
//  969   return (ZStatus_t)fillAndSend( &TransSeq, dstAddr, User_Desc_rsp, len );
        ; Setup parameters for call to function fillAndSend
        MOV     ?V0 + 0,#0x11
        MOV     ?V0 + 1,#-0x80
        MOV     R0,#?V0 + 0
        LCALL   ?PUSH_XSTACK_I_TWO
        CFI CFA_XSP16 add(XSP16, 21)
        MOV     R1,?V0 + 2
        MOV     A,R6
        MOV     R4,A
        MOV     A,R7
        MOV     R5,A
        MOV     A,#0x2
        LCALL   ?XSTACK_DISP0_8
        MOV     R2,DPL
        MOV     R3,DPH
        LCALL   ??fillAndSend?relay
        MOV     A,#0x2
        LCALL   ?DEALLOC_XSTACK8
        CFI CFA_XSP16 add(XSP16, 19)
        MOV     A,#0x1
        LCALL   ?DEALLOC_XSTACK8
        CFI CFA_XSP16 add(XSP16, 18)
        MOV     R7,#0xa
        LJMP    ?BANKED_LEAVE_XDATA
        CFI EndBlock cfiBlock15
//  970 }
//  971 
//  972 /*********************************************************************
//  973  * @fn          ZDP_ServerDiscRsp
//  974  *
//  975  * @brief       Build and send the Server_Discovery_rsp response.
//  976  *
//  977  * @param       transID - Transaction sequence number of request.
//  978  * @param       dstAddr - Network Destination Address.
//  979  * @param       status - Status of response to request.
//  980  * @param       aoi - Network Address of Interest of request.
//  981  * @param       serverMask - Bit map of service(s) being sought.
//  982  * @param       SecurityEnable - Security Options
//  983  *
//  984  * @return      ZStatus_t
//  985  */

        RSEG BANKED_CODE:CODE:NOROOT(0)
//  986 ZStatus_t ZDP_ServerDiscRsp( byte transID, zAddrType_t *dstAddr, byte status,
ZDP_ServerDiscRsp:
        CFI Block cfiBlock16 Using cfiCommon0
        CFI Function ZDP_ServerDiscRsp
        CODE
//  987                            uint16 aoi, uint16 serverMask, byte SecurityEnable )
//  988 {
        FUNCALL ZDP_ServerDiscRsp, fillAndSend
        LOCFRAME ISTACK, 0, STACK
        LOCFRAME PSTACK, 0, STACK
        LOCFRAME XSTACK, 13, STACK
        LOCFRAME IOVERLAY, 0, STATIC
        LOCFRAME DOVERLAY, 0, STATIC
        ARGFRAME ISTACK, 0, STACK
        ARGFRAME PSTACK, 0, STACK
        ARGFRAME XSTACK, 13, STACK
        ARGFRAME IOVERLAY, 0, STATIC
        ARGFRAME DOVERLAY, 0, STATIC
        MOV     A,#-0xa
        LCALL   ?BANKED_ENTER_XDATA
        CFI DPH0 load(1, XDATA, add(CFA_XSP16, literal(-1)))
        CFI DPL0 load(1, XDATA, add(CFA_XSP16, literal(-2)))
        CFI ?BRET_EXT load(1, XDATA, add(CFA_XSP16, literal(-3)))
        CFI ?RET_HIGH load(1, XDATA, add(CFA_XSP16, literal(-4)))
        CFI ?RET_LOW load(1, XDATA, add(CFA_XSP16, literal(-5)))
        CFI R7 load(1, XDATA, add(CFA_XSP16, literal(-6)))
        CFI V1 load(1, XDATA, add(CFA_XSP16, literal(-7)))
        CFI V0 load(1, XDATA, add(CFA_XSP16, literal(-8)))
        CFI VB load(1, XDATA, add(CFA_XSP16, literal(-9)))
        CFI R6 load(1, XDATA, add(CFA_XSP16, literal(-10)))
        CFI CFA_SP SP+0
        CFI CFA_XSP16 add(XSP16, 10)
        ; Saved register size: 10
        ; Auto size: 1
        MOV     A,#-0x1
        LCALL   ?ALLOC_XSTACK8
        CFI CFA_XSP16 add(XSP16, 11)
        MOV     A,R1
        MOV     DPL,?XSP + 0
        MOV     DPH,?XSP + 1
        MOVX    @DPTR,A
        MOV     A,R4
        MOV     R6,A
        MOV     A,#0xd
        LCALL   ?XSTACK_DISP0_8
        MOVX    A,@DPTR
        MOV     R0,A
        INC     DPTR
        MOVX    A,@DPTR
        MOV     R1,A
//  989   const byte len = 1  + 2;  // status + aoi + mask.
//  990   uint8 *pBuf = ZDP_TmpBuf;
        MOV     DPTR,#ZDP_TmpBuf
        MOVX    A,@DPTR
        MOV     R4,A
        INC     DPTR
        MOVX    A,@DPTR
        MOV     R5,A
        MOV     DPL,R4
        MOV     DPH,R5
//  991   ZStatus_t stat;
//  992 
//  993   // Intentionally unreferenced parameters
//  994   (void)aoi;
//  995   (void)SecurityEnable;
//  996 
//  997   *pBuf++ = status;
        MOV     A,R6
        MOVX    @DPTR,A
        INC     DPTR
//  998 
//  999   *pBuf++ = LO_UINT16( serverMask );
        MOV     A,R0
        MOVX    @DPTR,A
        INC     DPTR
// 1000   *pBuf++ = HI_UINT16( serverMask );
        MOV     A,R1
        MOVX    @DPTR,A
// 1001 
// 1002   ZDP_TxOptions = AF_MSG_ACK_REQUEST;
        MOV     DPTR,#ZDP_TxOptions
        MOV     A,#0x10
        MOVX    @DPTR,A
// 1003   stat = fillAndSend( &transID, dstAddr, Server_Discovery_rsp, len );
        ; Setup parameters for call to function fillAndSend
        MOV     ?V0 + 0,#0x15
        MOV     ?V0 + 1,#-0x80
        MOV     R0,#?V0 + 0
        LCALL   ?PUSH_XSTACK_I_TWO
        CFI CFA_XSP16 add(XSP16, 13)
        MOV     R1,#0x3
        MOV     A,R2
        MOV     R4,A
        MOV     A,R3
        MOV     R5,A
        MOV     A,#0x2
        LCALL   ?XSTACK_DISP0_8
        MOV     R2,DPL
        MOV     R3,DPH
        LCALL   ??fillAndSend?relay
        MOV     A,#0x2
        LCALL   ?DEALLOC_XSTACK8
        CFI CFA_XSP16 add(XSP16, 11)
// 1004   ZDP_TxOptions = AF_TX_OPTIONS_NONE;
        MOV     DPTR,#ZDP_TxOptions
        CLR     A
        MOVX    @DPTR,A
// 1005 
// 1006   return ( stat );
        INC     A
        LCALL   ?DEALLOC_XSTACK8
        CFI CFA_XSP16 add(XSP16, 10)
        MOV     R7,#0x2
        LJMP    ?BANKED_LEAVE_XDATA
        CFI EndBlock cfiBlock16
// 1007 }
// 1008 
// 1009 /*********************************************************************
// 1010  * @fn          ZDP_GenericRsp
// 1011  *
// 1012  * @brief       Sends a response message with only the parameter status
// 1013  *              byte and the addr of interest for data.
// 1014  *              This function sends unicast message to the
// 1015  *              requesting device.
// 1016  *
// 1017  * @param       dstAddr - destination address
// 1018  * @param       status  - generic status for response
// 1019  * @param       aoi     - address of interest
// 1020  * @param       dstAddr - destination address
// 1021  * @param       rspId   - response cluster ID
// 1022  * @param       SecurityEnable - Security Options
// 1023  *
// 1024  * @return      afStatus_t
// 1025  */

        RSEG BANKED_CODE:CODE:NOROOT(0)
// 1026 afStatus_t ZDP_GenericRsp( byte TransSeq, zAddrType_t *dstAddr,
ZDP_GenericRsp:
        CFI Block cfiBlock17 Using cfiCommon0
        CFI Function ZDP_GenericRsp
        CODE
// 1027                      byte status, uint16 aoi, uint16 rspID, byte SecurityEnable )
// 1028 {
        FUNCALL ZDP_GenericRsp, fillAndSend
        LOCFRAME ISTACK, 0, STACK
        LOCFRAME PSTACK, 0, STACK
        LOCFRAME XSTACK, 13, STACK
        LOCFRAME IOVERLAY, 0, STATIC
        LOCFRAME DOVERLAY, 0, STATIC
        ARGFRAME ISTACK, 0, STACK
        ARGFRAME PSTACK, 0, STACK
        ARGFRAME XSTACK, 13, STACK
        ARGFRAME IOVERLAY, 0, STATIC
        ARGFRAME DOVERLAY, 0, STATIC
        MOV     A,#-0xa
        LCALL   ?BANKED_ENTER_XDATA
        CFI DPH0 load(1, XDATA, add(CFA_XSP16, literal(-1)))
        CFI DPL0 load(1, XDATA, add(CFA_XSP16, literal(-2)))
        CFI ?BRET_EXT load(1, XDATA, add(CFA_XSP16, literal(-3)))
        CFI ?RET_HIGH load(1, XDATA, add(CFA_XSP16, literal(-4)))
        CFI ?RET_LOW load(1, XDATA, add(CFA_XSP16, literal(-5)))
        CFI R7 load(1, XDATA, add(CFA_XSP16, literal(-6)))
        CFI V1 load(1, XDATA, add(CFA_XSP16, literal(-7)))
        CFI V0 load(1, XDATA, add(CFA_XSP16, literal(-8)))
        CFI VB load(1, XDATA, add(CFA_XSP16, literal(-9)))
        CFI R6 load(1, XDATA, add(CFA_XSP16, literal(-10)))
        CFI CFA_SP SP+0
        CFI CFA_XSP16 add(XSP16, 10)
        ; Saved register size: 10
        ; Auto size: 1
        MOV     A,#-0x1
        LCALL   ?ALLOC_XSTACK8
        CFI CFA_XSP16 add(XSP16, 11)
        MOV     A,R1
        MOV     DPL,?XSP + 0
        MOV     DPH,?XSP + 1
        MOVX    @DPTR,A
        MOV     A,R4
        MOV     R6,A
        MOV     A,#0xb
        LCALL   ?XSTACK_DISP0_8
        MOVX    A,@DPTR
        MOV     R0,A
        INC     DPTR
        MOVX    A,@DPTR
        MOV     R1,A
        MOV     A,#0xd
        LCALL   ?XSTACK_DISP0_8
        MOVX    A,@DPTR
        MOV     ?V0 + 0,A
        INC     DPTR
        MOVX    A,@DPTR
        MOV     ?V0 + 1,A
// 1029   uint8 len;
// 1030 
// 1031   (void)SecurityEnable;  // Intentionally unreferenced parameter
// 1032 
// 1033   ZDP_TmpBuf[0] = status;
        MOV     A,R6
        PUSH    A
        CFI CFA_SP SP+-1
        MOV     DPTR,#ZDP_TmpBuf
        MOVX    A,@DPTR
        MOV     R4,A
        INC     DPTR
        MOVX    A,@DPTR
        MOV     DPH,A
        MOV     DPL,R4
        POP     A
        CFI CFA_SP SP+0
        MOVX    @DPTR,A
// 1034   ZDP_TmpBuf[1] = LO_UINT16( aoi );
        MOV     A,R0
        PUSH    A
        CFI CFA_SP SP+-1
        MOV     DPTR,#ZDP_TmpBuf
        MOVX    A,@DPTR
        MOV     R4,A
        INC     DPTR
        MOVX    A,@DPTR
        MOV     DPH,A
        MOV     DPL,R4
        INC     DPTR
        POP     A
        CFI CFA_SP SP+0
        MOVX    @DPTR,A
// 1035   ZDP_TmpBuf[2] = HI_UINT16( aoi );
        MOV     A,R1
        PUSH    A
        CFI CFA_SP SP+-1
        MOV     DPTR,#ZDP_TmpBuf
        MOVX    A,@DPTR
        MOV     R0,A
        INC     DPTR
        MOVX    A,@DPTR
        MOV     DPH,A
        MOV     DPL,R0
        INC     DPTR
        INC     DPTR
        POP     A
        CFI CFA_SP SP+0
        MOVX    @DPTR,A
// 1036 
// 1037   // Length byte
// 1038   ZDP_TmpBuf[3] = 0;
        MOV     DPTR,#ZDP_TmpBuf
        MOVX    A,@DPTR
        MOV     R0,A
        INC     DPTR
        MOVX    A,@DPTR
        MOV     DPH,A
        MOV     DPL,R0
        INC     DPTR
        INC     DPTR
        INC     DPTR
        CLR     A
        MOVX    @DPTR,A
// 1039   len = 4;
// 1040 
// 1041   return fillAndSend( &TransSeq, dstAddr, rspID, len );
        ; Setup parameters for call to function fillAndSend
        MOV     R0,#?V0 + 0
        LCALL   ?PUSH_XSTACK_I_TWO
        CFI CFA_XSP16 add(XSP16, 13)
        MOV     R1,#0x4
        MOV     A,R2
        MOV     R4,A
        MOV     A,R3
        MOV     R5,A
        MOV     A,#0x2
        LCALL   ?XSTACK_DISP0_8
        MOV     R2,DPL
        MOV     R3,DPH
        LCALL   ??fillAndSend?relay
        MOV     A,#0x2
        LCALL   ?DEALLOC_XSTACK8
        CFI CFA_XSP16 add(XSP16, 11)
        MOV     A,#0x1
        LCALL   ?DEALLOC_XSTACK8
        CFI CFA_XSP16 add(XSP16, 10)
        MOV     R7,#0x2
        LJMP    ?BANKED_LEAVE_XDATA
        CFI EndBlock cfiBlock17
// 1042 }
// 1043 
// 1044 /*********************************************************************
// 1045  * Binding
// 1046  */
// 1047 /*********************************************************************
// 1048  * @fn          ZDP_EndDeviceBindReq
// 1049  *
// 1050  * @brief       This builds and sends a End_Device_Bind_req message.
// 1051  *              This function sends a unicast message.
// 1052  *
// 1053  * @param       dstAddr - destination address
// 1054  * @param       LocalCoordinator - short address of local coordinator
// 1055  * @param       epIntf - Endpoint/Interface of Simple Desc
// 1056  * @param       ProfileID - Profile ID
// 1057  *
// 1058  *   The Input cluster list is the opposite of what you would think.
// 1059  *   This is the output cluster list of this device
// 1060  * @param       NumInClusters - number of input clusters
// 1061  * @param       InClusterList - input cluster ID list
// 1062  *
// 1063  *   The Output cluster list is the opposite of what you would think.
// 1064  *   This is the input cluster list of this device
// 1065  * @param       NumOutClusters - number of output clusters
// 1066  * @param       OutClusterList - output cluster ID list
// 1067  *
// 1068  * @param       SecurityEnable - Security Options
// 1069  *
// 1070  * @return      afStatus_t
// 1071  */

        RSEG BANKED_CODE:CODE:NOROOT(0)
// 1072 afStatus_t ZDP_EndDeviceBindReq( zAddrType_t *dstAddr,
ZDP_EndDeviceBindReq:
        CFI Block cfiBlock18 Using cfiCommon0
        CFI Function ZDP_EndDeviceBindReq
        CODE
// 1073                                  uint16 LocalCoordinator,
// 1074                                  byte endPoint,
// 1075                                  uint16 ProfileID,
// 1076                                  byte NumInClusters, cId_t *InClusterList,
// 1077                                  byte NumOutClusters, cId_t *OutClusterList,
// 1078                                  byte SecurityEnable )
// 1079 {
        FUNCALL ZDP_EndDeviceBindReq, NLME_GetShortAddr
        LOCFRAME ISTACK, 0, STACK
        LOCFRAME PSTACK, 0, STACK
        LOCFRAME XSTACK, 24, STACK
        LOCFRAME IOVERLAY, 0, STATIC
        LOCFRAME DOVERLAY, 0, STATIC
        ARGFRAME ISTACK, 0, STACK
        ARGFRAME PSTACK, 0, STACK
        ARGFRAME XSTACK, 24, STACK
        ARGFRAME IOVERLAY, 0, STATIC
        ARGFRAME DOVERLAY, 0, STATIC
        FUNCALL ZDP_EndDeviceBindReq, NLME_GetExtAddr
        LOCFRAME ISTACK, 0, STACK
        LOCFRAME PSTACK, 0, STACK
        LOCFRAME XSTACK, 24, STACK
        LOCFRAME IOVERLAY, 0, STATIC
        LOCFRAME DOVERLAY, 0, STATIC
        ARGFRAME ISTACK, 0, STACK
        ARGFRAME PSTACK, 0, STACK
        ARGFRAME XSTACK, 24, STACK
        ARGFRAME IOVERLAY, 0, STATIC
        ARGFRAME DOVERLAY, 0, STATIC
        FUNCALL ZDP_EndDeviceBindReq, sAddrExtCpy
        LOCFRAME ISTACK, 0, STACK
        LOCFRAME PSTACK, 0, STACK
        LOCFRAME XSTACK, 24, STACK
        LOCFRAME IOVERLAY, 0, STATIC
        LOCFRAME DOVERLAY, 0, STATIC
        ARGFRAME ISTACK, 0, STACK
        ARGFRAME PSTACK, 0, STACK
        ARGFRAME XSTACK, 24, STACK
        ARGFRAME IOVERLAY, 0, STATIC
        ARGFRAME DOVERLAY, 0, STATIC
        FUNCALL ZDP_EndDeviceBindReq, fillAndSend
        LOCFRAME ISTACK, 0, STACK
        LOCFRAME PSTACK, 0, STACK
        LOCFRAME XSTACK, 26, STACK
        LOCFRAME IOVERLAY, 0, STATIC
        LOCFRAME DOVERLAY, 0, STATIC
        ARGFRAME ISTACK, 0, STACK
        ARGFRAME PSTACK, 0, STACK
        ARGFRAME XSTACK, 26, STACK
        ARGFRAME IOVERLAY, 0, STATIC
        ARGFRAME DOVERLAY, 0, STATIC
        MOV     A,#-0x18
        LCALL   ?BANKED_ENTER_XDATA
        CFI DPH0 load(1, XDATA, add(CFA_XSP16, literal(-1)))
        CFI DPL0 load(1, XDATA, add(CFA_XSP16, literal(-2)))
        CFI ?BRET_EXT load(1, XDATA, add(CFA_XSP16, literal(-3)))
        CFI ?RET_HIGH load(1, XDATA, add(CFA_XSP16, literal(-4)))
        CFI ?RET_LOW load(1, XDATA, add(CFA_XSP16, literal(-5)))
        CFI R7 load(1, XDATA, add(CFA_XSP16, literal(-6)))
        CFI V15 load(1, XDATA, add(CFA_XSP16, literal(-7)))
        CFI V14 load(1, XDATA, add(CFA_XSP16, literal(-8)))
        CFI V13 load(1, XDATA, add(CFA_XSP16, literal(-9)))
        CFI V12 load(1, XDATA, add(CFA_XSP16, literal(-10)))
        CFI V11 load(1, XDATA, add(CFA_XSP16, literal(-11)))
        CFI V10 load(1, XDATA, add(CFA_XSP16, literal(-12)))
        CFI V9 load(1, XDATA, add(CFA_XSP16, literal(-13)))
        CFI V8 load(1, XDATA, add(CFA_XSP16, literal(-14)))
        CFI V7 load(1, XDATA, add(CFA_XSP16, literal(-15)))
        CFI V6 load(1, XDATA, add(CFA_XSP16, literal(-16)))
        CFI V5 load(1, XDATA, add(CFA_XSP16, literal(-17)))
        CFI V4 load(1, XDATA, add(CFA_XSP16, literal(-18)))
        CFI V3 load(1, XDATA, add(CFA_XSP16, literal(-19)))
        CFI V2 load(1, XDATA, add(CFA_XSP16, literal(-20)))
        CFI V1 load(1, XDATA, add(CFA_XSP16, literal(-21)))
        CFI V0 load(1, XDATA, add(CFA_XSP16, literal(-22)))
        CFI VB load(1, XDATA, add(CFA_XSP16, literal(-23)))
        CFI R6 load(1, XDATA, add(CFA_XSP16, literal(-24)))
        CFI CFA_SP SP+0
        CFI CFA_XSP16 add(XSP16, 24)
        ; Saved register size: 24
        ; Auto size: 0
        MOV     ?V0 + 14,R2
        MOV     ?V0 + 15,R3
        MOV     ?V0 + 4,R4
        MOV     ?V0 + 5,R5
        MOV     ?V0 + 7,R1
        MOV     A,#0x18
        LCALL   ?XSTACK_DISP0_8
        MOVX    A,@DPTR
        MOV     ?V0 + 0,A
        INC     DPTR
        MOVX    A,@DPTR
        MOV     ?V0 + 1,A
        MOV     A,#0x1a
        LCALL   ?XSTACK_DISP0_8
        MOVX    A,@DPTR
        MOV     ?V0 + 2,A
        MOV     A,#0x1b
        LCALL   ?XSTACK_DISP0_8
        MOVX    A,@DPTR
        MOV     ?V0 + 12,A
        INC     DPTR
        MOVX    A,@DPTR
        MOV     ?V0 + 13,A
        MOV     A,#0x1d
        LCALL   ?XSTACK_DISP0_8
        MOVX    A,@DPTR
        MOV     ?V0 + 3,A
        MOV     A,#0x1e
        LCALL   ?XSTACK_DISP0_8
        MOVX    A,@DPTR
        MOV     ?V0 + 10,A
        INC     DPTR
        MOVX    A,@DPTR
        MOV     ?V0 + 11,A
// 1080   uint8 *pBuf = ZDP_TmpBuf;
        MOV     DPTR,#ZDP_TmpBuf
        MOVX    A,@DPTR
        MOV     R6,A
        INC     DPTR
        MOVX    A,@DPTR
        MOV     R7,A
// 1081   uint8 i, len;
// 1082   uint8 *ieeeAddr;
// 1083 
// 1084   (void)SecurityEnable;  // Intentionally unreferenced parameter
// 1085 
// 1086   // LocalCoordinator + SrcExtAddr + ep + ProfileID +  NumInClusters + NumOutClusters.
// 1087   len = 2 + Z_EXTADDR_LEN + 1 + 2 + 1 + 1;
// 1088   len += (NumInClusters + NumOutClusters) * sizeof ( uint16 );
        MOV     A,?V0 + 2
        ADD     A,?V0 + 3
        CLR     C
        RLC     A
        ADD     A,#0xf
        MOV     ?V0 + 6,A
// 1089 
// 1090   if ( len >= ZDP_BUF_SZ-1 )
        CLR     C
        SUBB    A,#0x4f
        JC      ??ZDP_EndDeviceBindReq_0
// 1091   {
// 1092     return afStatus_MEM_FAIL;
        MOV     R1,#0x10
        LJMP    ??ZDP_EndDeviceBindReq_1 & 0xFFFF
// 1093   }
// 1094 
// 1095   if ( LocalCoordinator != NLME_GetShortAddr() )
??ZDP_EndDeviceBindReq_0:
        ; Setup parameters for call to function NLME_GetShortAddr
        LCALL   ??NLME_GetShortAddr?relay
        MOV     A,R2
        XRL     A,?V0 + 4
        JNZ     ??ZDP_EndDeviceBindReq_2
        MOV     A,R3
        XRL     A,?V0 + 5
??ZDP_EndDeviceBindReq_2:
        JZ      ??ZDP_EndDeviceBindReq_3
// 1096   {
// 1097     return afStatus_INVALID_PARAMETER;
        MOV     R1,#0x2
        LJMP    ??ZDP_EndDeviceBindReq_1 & 0xFFFF
// 1098   }
// 1099 
// 1100   *pBuf++ = LO_UINT16( LocalCoordinator );
??ZDP_EndDeviceBindReq_3:
        MOV     DPL,R6
        MOV     DPH,R7
        MOV     A,?V0 + 4
        MOVX    @DPTR,A
        INC     DPTR
// 1101   *pBuf++ = HI_UINT16( LocalCoordinator );
        MOV     A,?V0 + 5
        MOVX    @DPTR,A
        INC     DPTR
        MOV     R6,DPL
        MOV     R7,DPH
// 1102 
// 1103   ieeeAddr = NLME_GetExtAddr();
// 1104   pBuf = osal_cpyExtAddr( pBuf, ieeeAddr );
        ; Setup parameters for call to function sAddrExtCpy
        ; Setup parameters for call to function NLME_GetExtAddr
        LCALL   ??NLME_GetExtAddr?relay
        MOV     A,R2
        MOV     R4,A
        MOV     A,R3
        MOV     R5,A
        MOV     A,R6
        MOV     R2,A
        MOV     A,R7
        MOV     R3,A
        LCALL   ??sAddrExtCpy?relay
        MOV     ?V0 + 4,R2
        MOV     ?V0 + 5,R3
        MOV     R6,?V0 + 4
        MOV     R7,?V0 + 5
// 1105 
// 1106   *pBuf++ = endPoint;
        MOV     DPL,R6
        MOV     DPH,R7
        MOV     A,?V0 + 7
        MOVX    @DPTR,A
        INC     DPTR
// 1107 
// 1108   *pBuf++ = LO_UINT16( ProfileID );   // Profile ID
        MOV     A,?V0 + 0
        MOVX    @DPTR,A
        INC     DPTR
// 1109   *pBuf++ = HI_UINT16( ProfileID );
        MOV     A,?V0 + 1
        MOVX    @DPTR,A
        INC     DPTR
// 1110 
// 1111   *pBuf++ = NumInClusters; // Input cluster list
        MOV     A,?V0 + 2
        MOVX    @DPTR,A
        INC     DPTR
        MOV     R6,DPL
        MOV     R7,DPH
// 1112   for ( i = 0; i < NumInClusters; ++i )
        MOV     R4,#0x0
        SJMP    ??ZDP_EndDeviceBindReq_4
// 1113   {
// 1114     *pBuf++ = LO_UINT16(InClusterList[i]);
??ZDP_EndDeviceBindReq_5:
        MOV     A,R4
        CLR     C
        RLC     A
        MOV     R2,A
        CLR     A
        RLC     A
        MOV     R3,A
        MOV     A,?V0 + 12
        ADD     A,R2
        MOV     R2,A
        MOV     A,?V0 + 13
        ADDC    A,R3
        MOV     R3,A
        MOV     DPL,R2
        MOV     DPH,R3
        MOVX    A,@DPTR
        MOV     DPL,R6
        MOV     DPH,R7
        MOVX    @DPTR,A
        MOV     A,R0
        MOV     R6,A
        MOV     A,R1
        MOV     R7,A
// 1115     *pBuf++ = HI_UINT16(InClusterList[i]);
        MOV     DPL,R2
        MOV     DPH,R3
        INC     DPTR
        MOVX    A,@DPTR
        MOV     DPL,R6
        MOV     DPH,R7
        MOVX    @DPTR,A
        INC     DPTR
        INC     R6
        MOV     R7,DPH
// 1116   }
        INC     R4
??ZDP_EndDeviceBindReq_4:
        MOV     DPL,R6
        MOV     DPH,R7
        INC     DPTR
        MOV     R0,DPL
        MOV     R1,DPH
        MOV     A,R4
        CLR     C
        SUBB    A,?V0 + 2
        JC      ??ZDP_EndDeviceBindReq_5
// 1117 
// 1118   *pBuf++ = NumOutClusters; // Output cluster list
        MOV     DPL,R6
        MOV     DPH,R7
        MOV     A,?V0 + 3
        MOVX    @DPTR,A
        MOV     A,R0
        MOV     R6,A
        MOV     A,R1
        MOV     R7,A
// 1119   for ( i = 0; i < NumOutClusters; ++i )
        MOV     R4,#0x0
        SJMP    ??ZDP_EndDeviceBindReq_6
// 1120   {
// 1121     *pBuf++ = LO_UINT16(OutClusterList[i]);
??ZDP_EndDeviceBindReq_7:
        MOV     A,R4
        CLR     C
        RLC     A
        MOV     R0,A
        CLR     A
        RLC     A
        MOV     R1,A
        MOV     A,?V0 + 10
        ADD     A,R0
        MOV     R0,A
        MOV     A,?V0 + 11
        ADDC    A,R1
        MOV     R1,A
        MOV     DPL,R0
        MOV     DPH,R1
        MOVX    A,@DPTR
        MOV     DPL,R6
        MOV     DPH,R7
        MOVX    @DPTR,A
        INC     DPTR
        MOV     R6,DPL
        MOV     R7,DPH
// 1122     *pBuf++ = HI_UINT16(OutClusterList[i]);
        MOV     DPL,R0
        MOV     DPH,R1
        INC     DPTR
        MOVX    A,@DPTR
        MOV     DPL,R6
        MOV     DPH,R7
        MOVX    @DPTR,A
        INC     DPTR
        INC     R6
        MOV     R7,DPH
// 1123   }
        INC     R4
??ZDP_EndDeviceBindReq_6:
        MOV     A,R4
        CLR     C
        SUBB    A,?V0 + 3
        JC      ??ZDP_EndDeviceBindReq_7
// 1124 
// 1125   return fillAndSend( &ZDP_TransID, dstAddr, End_Device_Bind_req, len );
        ; Setup parameters for call to function fillAndSend
        MOV     ?V0 + 0,#0x20
        MOV     ?V0 + 1,#0x0
        MOV     R0,#?V0 + 0
        LCALL   ?PUSH_XSTACK_I_TWO
        CFI CFA_XSP16 add(XSP16, 26)
        MOV     R1,?V0 + 6
        MOV     R4,?V0 + 14
        MOV     R5,?V0 + 15
        MOV     R2,#ZDP_TransID & 0xff
        MOV     R3,#(ZDP_TransID >> 8) & 0xff
        LCALL   ??fillAndSend?relay
        MOV     A,#0x2
        LCALL   ?DEALLOC_XSTACK8
        CFI CFA_XSP16 add(XSP16, 24)
??ZDP_EndDeviceBindReq_1:
        MOV     R7,#0x10
        LJMP    ?BANKED_LEAVE_XDATA
        CFI EndBlock cfiBlock18
// 1126 }
// 1127 
// 1128 /*********************************************************************
// 1129  * @fn          ZDP_BindUnbindReq
// 1130  *
// 1131  * @brief       This builds and send a Bind_req or Unbind_req message
// 1132  *              Depending on the ClusterID. This function
// 1133  *              sends a unicast message to the local coordinator.
// 1134  *
// 1135  * @param       BindOrUnbind - either Bind_req or Unbind_req
// 1136  * @param       dstAddr - destination address of the message
// 1137  * @param       SourceAddr - source 64 bit address of the binding
// 1138  * @param       SrcEPIntf - Source endpoint/interface
// 1139  * @param       ClusterID - Binding cluster ID
// 1140  * @param       DestinationAddr - destination 64 bit addr of binding
// 1141  * @param       DstEPIntf - destination endpoint/interface
// 1142  * @param       SecurityEnable - Security Options
// 1143  *
// 1144  * @return      afStatus_t
// 1145  */

        RSEG BANKED_CODE:CODE:NOROOT(0)
// 1146 afStatus_t ZDP_BindUnbindReq( uint16 BindOrUnbind, zAddrType_t *dstAddr,
ZDP_BindUnbindReq:
        CFI Block cfiBlock19 Using cfiCommon0
        CFI Function ZDP_BindUnbindReq
        CODE
// 1147                               uint8 *SourceAddr, byte SrcEndPoint,
// 1148                               cId_t ClusterID,
// 1149                               zAddrType_t *destinationAddr, byte DstEndPoint,
// 1150                               byte SecurityEnable )
// 1151 {
        FUNCALL ZDP_BindUnbindReq, sAddrExtCpy
        LOCFRAME ISTACK, 0, STACK
        LOCFRAME PSTACK, 0, STACK
        LOCFRAME XSTACK, 22, STACK
        LOCFRAME IOVERLAY, 0, STATIC
        LOCFRAME DOVERLAY, 0, STATIC
        ARGFRAME ISTACK, 0, STACK
        ARGFRAME PSTACK, 0, STACK
        ARGFRAME XSTACK, 22, STACK
        ARGFRAME IOVERLAY, 0, STATIC
        ARGFRAME DOVERLAY, 0, STATIC
        FUNCALL ZDP_BindUnbindReq, sAddrExtCpy
        LOCFRAME ISTACK, 0, STACK
        LOCFRAME PSTACK, 0, STACK
        LOCFRAME XSTACK, 22, STACK
        LOCFRAME IOVERLAY, 0, STATIC
        LOCFRAME DOVERLAY, 0, STATIC
        ARGFRAME ISTACK, 0, STACK
        ARGFRAME PSTACK, 0, STACK
        ARGFRAME XSTACK, 22, STACK
        ARGFRAME IOVERLAY, 0, STATIC
        ARGFRAME DOVERLAY, 0, STATIC
        FUNCALL ZDP_BindUnbindReq, fillAndSend
        LOCFRAME ISTACK, 0, STACK
        LOCFRAME PSTACK, 0, STACK
        LOCFRAME XSTACK, 24, STACK
        LOCFRAME IOVERLAY, 0, STATIC
        LOCFRAME DOVERLAY, 0, STATIC
        ARGFRAME ISTACK, 0, STACK
        ARGFRAME PSTACK, 0, STACK
        ARGFRAME XSTACK, 24, STACK
        ARGFRAME IOVERLAY, 0, STATIC
        ARGFRAME DOVERLAY, 0, STATIC
        MOV     A,#-0x16
        LCALL   ?BANKED_ENTER_XDATA
        CFI DPH0 load(1, XDATA, add(CFA_XSP16, literal(-1)))
        CFI DPL0 load(1, XDATA, add(CFA_XSP16, literal(-2)))
        CFI ?BRET_EXT load(1, XDATA, add(CFA_XSP16, literal(-3)))
        CFI ?RET_HIGH load(1, XDATA, add(CFA_XSP16, literal(-4)))
        CFI ?RET_LOW load(1, XDATA, add(CFA_XSP16, literal(-5)))
        CFI R7 load(1, XDATA, add(CFA_XSP16, literal(-6)))
        CFI V13 load(1, XDATA, add(CFA_XSP16, literal(-7)))
        CFI V12 load(1, XDATA, add(CFA_XSP16, literal(-8)))
        CFI V11 load(1, XDATA, add(CFA_XSP16, literal(-9)))
        CFI V10 load(1, XDATA, add(CFA_XSP16, literal(-10)))
        CFI V9 load(1, XDATA, add(CFA_XSP16, literal(-11)))
        CFI V8 load(1, XDATA, add(CFA_XSP16, literal(-12)))
        CFI V7 load(1, XDATA, add(CFA_XSP16, literal(-13)))
        CFI V6 load(1, XDATA, add(CFA_XSP16, literal(-14)))
        CFI V5 load(1, XDATA, add(CFA_XSP16, literal(-15)))
        CFI V4 load(1, XDATA, add(CFA_XSP16, literal(-16)))
        CFI V3 load(1, XDATA, add(CFA_XSP16, literal(-17)))
        CFI V2 load(1, XDATA, add(CFA_XSP16, literal(-18)))
        CFI V1 load(1, XDATA, add(CFA_XSP16, literal(-19)))
        CFI V0 load(1, XDATA, add(CFA_XSP16, literal(-20)))
        CFI VB load(1, XDATA, add(CFA_XSP16, literal(-21)))
        CFI R6 load(1, XDATA, add(CFA_XSP16, literal(-22)))
        CFI CFA_SP SP+0
        CFI CFA_XSP16 add(XSP16, 22)
        ; Saved register size: 22
        ; Auto size: 0
        MOV     ?V0 + 0,R2
        MOV     ?V0 + 1,R3
        MOV     ?V0 + 12,R4
        MOV     ?V0 + 13,R5
        MOV     ?V0 + 8,R1
        MOV     A,#0x16
        LCALL   ?XSTACK_DISP0_8
        MOVX    A,@DPTR
        MOV     R4,A
        INC     DPTR
        MOVX    A,@DPTR
        MOV     R5,A
        MOV     A,#0x18
        LCALL   ?XSTACK_DISP0_8
        MOVX    A,@DPTR
        MOV     R6,A
        INC     DPTR
        MOVX    A,@DPTR
        MOV     R7,A
        MOV     A,#0x1a
        LCALL   ?XSTACK_DISP0_8
        MOVX    A,@DPTR
        MOV     ?V0 + 6,A
        INC     DPTR
        MOVX    A,@DPTR
        MOV     ?V0 + 7,A
        MOV     A,#0x1c
        LCALL   ?XSTACK_DISP0_8
        MOVX    A,@DPTR
        MOV     ?V0 + 3,A
// 1152   uint8 *pBuf = ZDP_TmpBuf;
        MOV     DPTR,#ZDP_TmpBuf
        MOVX    A,@DPTR
        MOV     R2,A
        INC     DPTR
        MOVX    A,@DPTR
        MOV     R3,A
// 1153   byte len;
// 1154 
// 1155   (void)SecurityEnable;  // Intentionally unreferenced parameter
// 1156 
// 1157   // SourceAddr + SrcEPIntf + ClusterID +  addrMode.
// 1158   len = Z_EXTADDR_LEN + 1 + sizeof( cId_t ) + sizeof( uint8 );
        MOV     ?V0 + 2,#0xc
// 1159   if ( destinationAddr->addrMode == Addr64Bit )
        MOV     A,?V0 + 6
        ADD     A,#0x8
        MOV     ?V0 + 4,A
        MOV     A,?V0 + 7
        ADDC    A,#0x0
        MOV     ?V0 + 5,A
        MOV     DPL,?V0 + 4
        MOV     DPH,A
        MOVX    A,@DPTR
        XRL     A,#0x3
        JNZ     ??ZDP_BindUnbindReq_0
// 1160     len += Z_EXTADDR_LEN + 1;     // +1 for DstEPIntf
        MOV     ?V0 + 2,#0x15
        SJMP    ??ZDP_BindUnbindReq_1
// 1161   else if ( destinationAddr->addrMode == AddrGroup )
??ZDP_BindUnbindReq_0:
        MOVX    A,@DPTR
        XRL     A,#0x1
        JNZ     ??ZDP_BindUnbindReq_1
// 1162     len += sizeof ( uint16 );
        MOV     ?V0 + 2,#0xe
// 1163 
// 1164   pBuf = osal_cpyExtAddr( pBuf, SourceAddr );
??ZDP_BindUnbindReq_1:
        ; Setup parameters for call to function sAddrExtCpy
        LCALL   ??sAddrExtCpy?relay
// 1165   *pBuf++ = SrcEndPoint;
        MOV     DPL,R2
        MOV     DPH,R3
        MOV     A,?V0 + 8
        MOVX    @DPTR,A
        INC     DPTR
// 1166 
// 1167   *pBuf++ = LO_UINT16( ClusterID );
        MOV     A,R6
        MOVX    @DPTR,A
        INC     DPTR
// 1168 
// 1169   *pBuf++ = HI_UINT16( ClusterID );
        MOV     A,R7
        MOVX    @DPTR,A
        INC     DPTR
        MOV     R2,DPL
        MOV     R3,DPH
// 1170   *pBuf++ = destinationAddr->addrMode;
        MOV     DPL,?V0 + 4
        MOV     DPH,?V0 + 5
        MOVX    A,@DPTR
        MOV     DPL,R2
        MOV     DPH,R3
        MOVX    @DPTR,A
        INC     DPTR
        INC     R2
        MOV     R3,DPH
// 1171   if ( destinationAddr->addrMode == Addr64Bit )
        MOV     DPL,?V0 + 4
        MOV     DPH,?V0 + 5
        MOVX    A,@DPTR
        XRL     A,#0x3
        JNZ     ??ZDP_BindUnbindReq_2
// 1172   {
// 1173     pBuf = osal_cpyExtAddr( pBuf, destinationAddr->addr.extAddr );
        ; Setup parameters for call to function sAddrExtCpy
        MOV     R4,?V0 + 6
        MOV     R5,?V0 + 7
        LCALL   ??sAddrExtCpy?relay
// 1174     *pBuf = DstEndPoint;
        MOV     DPL,R2
        MOV     DPH,R3
        MOV     A,?V0 + 3
        SJMP    ??ZDP_BindUnbindReq_3
// 1175   }
// 1176   else if ( destinationAddr->addrMode == AddrGroup )
??ZDP_BindUnbindReq_2:
        MOVX    A,@DPTR
        XRL     A,#0x1
        JNZ     ??ZDP_BindUnbindReq_4
// 1177   {
// 1178     *pBuf++ = LO_UINT16( destinationAddr->addr.shortAddr );
        MOV     DPL,?V0 + 6
        MOV     DPH,?V0 + 7
        MOVX    A,@DPTR
        MOV     DPL,R2
        MOV     DPH,R3
        MOVX    @DPTR,A
        INC     DPTR
        INC     R2
        MOV     R3,DPH
// 1179     *pBuf++ = HI_UINT16( destinationAddr->addr.shortAddr );
        MOV     DPL,?V0 + 6
        MOV     DPH,?V0 + 7
        INC     DPTR
        MOVX    A,@DPTR
        MOV     DPL,R2
        MOV     DPH,R3
??ZDP_BindUnbindReq_3:
        MOVX    @DPTR,A
// 1180   }
// 1181 
// 1182   FillAndSendTxOptions( &ZDP_TransID, dstAddr, BindOrUnbind, len, AF_MSG_ACK_REQUEST );
??ZDP_BindUnbindReq_4:
        MOV     DPTR,#ZDP_TxOptions
        MOV     A,#0x10
        MOVX    @DPTR,A
        ; Setup parameters for call to function fillAndSend
        MOV     R0,#?V0 + 0
        LCALL   ?PUSH_XSTACK_I_TWO
        CFI CFA_XSP16 add(XSP16, 24)
        MOV     R1,?V0 + 2
        MOV     R4,?V0 + 12
        MOV     R5,?V0 + 13
        MOV     R2,#ZDP_TransID & 0xff
        MOV     R3,#(ZDP_TransID >> 8) & 0xff
        LCALL   ??fillAndSend?relay
        MOV     A,#0x2
        LCALL   ?DEALLOC_XSTACK8
        CFI CFA_XSP16 add(XSP16, 22)
        MOV     DPTR,#ZDP_TxOptions
        CLR     A
        MOVX    @DPTR,A
        MOV     R7,#0xe
        LJMP    ?BANKED_LEAVE_XDATA
        CFI EndBlock cfiBlock19
// 1183 }
// 1184 
// 1185 /*********************************************************************
// 1186  * Network Management
// 1187  */
// 1188 
// 1189 /*********************************************************************
// 1190  * @fn          ZDP_MgmtNwkDiscReq
// 1191  *
// 1192  * @brief       This builds and send a Mgmt_NWK_Disc_req message. This
// 1193  *              function sends a unicast message.
// 1194  *
// 1195  * @param       dstAddr - destination address of the message
// 1196  * @param       ScanChannels - 32 bit address bit map
// 1197  * @param       StartIndex - Starting index within the reporting network
// 1198  *                           list
// 1199  * @param       SecurityEnable - Security Options
// 1200  *
// 1201  * @return      afStatus_t
// 1202  */

        RSEG BANKED_CODE:CODE:NOROOT(0)
// 1203 afStatus_t ZDP_MgmtNwkDiscReq( zAddrType_t *dstAddr,
ZDP_MgmtNwkDiscReq:
        CFI Block cfiBlock20 Using cfiCommon0
        CFI Function ZDP_MgmtNwkDiscReq
        CODE
// 1204                                uint32 ScanChannels,
// 1205                                byte ScanDuration,
// 1206                                byte StartIndex,
// 1207                                byte SecurityEnable )
// 1208 {
        FUNCALL ZDP_MgmtNwkDiscReq, osal_buffer_uint32
        LOCFRAME ISTACK, 0, STACK
        LOCFRAME PSTACK, 0, STACK
        LOCFRAME XSTACK, 20, STACK
        LOCFRAME IOVERLAY, 0, STATIC
        LOCFRAME DOVERLAY, 0, STATIC
        ARGFRAME ISTACK, 0, STACK
        ARGFRAME PSTACK, 0, STACK
        ARGFRAME XSTACK, 20, STACK
        ARGFRAME IOVERLAY, 0, STATIC
        ARGFRAME DOVERLAY, 0, STATIC
        FUNCALL ZDP_MgmtNwkDiscReq, fillAndSend
        LOCFRAME ISTACK, 0, STACK
        LOCFRAME PSTACK, 0, STACK
        LOCFRAME XSTACK, 18, STACK
        LOCFRAME IOVERLAY, 0, STATIC
        LOCFRAME DOVERLAY, 0, STATIC
        ARGFRAME ISTACK, 0, STACK
        ARGFRAME PSTACK, 0, STACK
        ARGFRAME XSTACK, 18, STACK
        ARGFRAME IOVERLAY, 0, STATIC
        ARGFRAME DOVERLAY, 0, STATIC
        MOV     A,#-0x10
        LCALL   ?BANKED_ENTER_XDATA
        CFI DPH0 load(1, XDATA, add(CFA_XSP16, literal(-1)))
        CFI DPL0 load(1, XDATA, add(CFA_XSP16, literal(-2)))
        CFI ?BRET_EXT load(1, XDATA, add(CFA_XSP16, literal(-3)))
        CFI ?RET_HIGH load(1, XDATA, add(CFA_XSP16, literal(-4)))
        CFI ?RET_LOW load(1, XDATA, add(CFA_XSP16, literal(-5)))
        CFI R7 load(1, XDATA, add(CFA_XSP16, literal(-6)))
        CFI V7 load(1, XDATA, add(CFA_XSP16, literal(-7)))
        CFI V6 load(1, XDATA, add(CFA_XSP16, literal(-8)))
        CFI V5 load(1, XDATA, add(CFA_XSP16, literal(-9)))
        CFI V4 load(1, XDATA, add(CFA_XSP16, literal(-10)))
        CFI V3 load(1, XDATA, add(CFA_XSP16, literal(-11)))
        CFI V2 load(1, XDATA, add(CFA_XSP16, literal(-12)))
        CFI V1 load(1, XDATA, add(CFA_XSP16, literal(-13)))
        CFI V0 load(1, XDATA, add(CFA_XSP16, literal(-14)))
        CFI VB load(1, XDATA, add(CFA_XSP16, literal(-15)))
        CFI R6 load(1, XDATA, add(CFA_XSP16, literal(-16)))
        CFI CFA_SP SP+0
        CFI CFA_XSP16 add(XSP16, 16)
        ; Saved register size: 16
        ; Auto size: 0
        MOV     A,R2
        MOV     R6,A
        MOV     A,R3
        MOV     R7,A
        MOV     ?V0 + 0,R1
        MOV     ?V0 + 1,R4
        MOV     A,#0x10
        LCALL   ?XSTACK_DISP0_8
        MOV     R0,#?V0 + 4
        LCALL   ?L_MOV_X
// 1209   uint8 *pBuf = ZDP_TmpBuf;
// 1210   byte len = sizeof( uint32 )+1+1;  // ScanChannels + ScanDuration + StartIndex.
// 1211 
// 1212   (void)SecurityEnable;  // Intentionally unreferenced parameter
// 1213 
// 1214   pBuf = osal_buffer_uint32( pBuf, ScanChannels );
        ; Setup parameters for call to function osal_buffer_uint32
        MOV     R0,#?V0 + 4
        LCALL   ?PUSH_XSTACK_I_FOUR
        CFI CFA_XSP16 add(XSP16, 20)
        MOV     DPTR,#ZDP_TmpBuf
        MOVX    A,@DPTR
        MOV     R2,A
        INC     DPTR
        MOVX    A,@DPTR
        MOV     R3,A
        LCALL   ??osal_buffer_uint32?relay
        MOV     A,#0x4
        LCALL   ?DEALLOC_XSTACK8
        CFI CFA_XSP16 add(XSP16, 16)
        MOV     DPL,R2
        MOV     DPH,R3
// 1215 
// 1216   *pBuf++ = ScanDuration;
        MOV     A,?V0 + 0
        MOVX    @DPTR,A
        INC     DPTR
// 1217   *pBuf = StartIndex;
        MOV     A,?V0 + 1
        MOVX    @DPTR,A
// 1218 
// 1219   return fillAndSend( &ZDP_TransID, dstAddr, Mgmt_NWK_Disc_req, len );
        ; Setup parameters for call to function fillAndSend
        MOV     ?V0 + 2,#0x30
        MOV     ?V0 + 3,#0x0
        MOV     R0,#?V0 + 2
        LCALL   ?PUSH_XSTACK_I_TWO
        CFI CFA_XSP16 add(XSP16, 18)
        MOV     R1,#0x6
        MOV     A,R6
        MOV     R4,A
        MOV     A,R7
        MOV     R5,A
        MOV     R2,#ZDP_TransID & 0xff
        MOV     R3,#(ZDP_TransID >> 8) & 0xff
        LCALL   ??fillAndSend?relay
        MOV     A,#0x2
        LCALL   ?DEALLOC_XSTACK8
        CFI CFA_XSP16 add(XSP16, 16)
        MOV     R7,#0x8
        LJMP    ?BANKED_LEAVE_XDATA
        CFI EndBlock cfiBlock20
// 1220 }
// 1221 
// 1222 /*********************************************************************
// 1223  * @fn          ZDP_MgmtDirectJoinReq
// 1224  *
// 1225  * @brief       This builds and send a Mgmt_Direct_Join_req message. This
// 1226  *              function sends a unicast message.
// 1227  *
// 1228  * @param       dstAddr - destination address of the message
// 1229  * @param       deviceAddr - 64 bit IEEE Address
// 1230  * @param       SecurityEnable - Security Options
// 1231  *
// 1232  * @return      afStatus_t
// 1233  */

        RSEG BANKED_CODE:CODE:NOROOT(0)
// 1234 afStatus_t ZDP_MgmtDirectJoinReq( zAddrType_t *dstAddr,
ZDP_MgmtDirectJoinReq:
        CFI Block cfiBlock21 Using cfiCommon0
        CFI Function ZDP_MgmtDirectJoinReq
        CODE
// 1235                                uint8 *deviceAddr,
// 1236                                byte capInfo,
// 1237                                byte SecurityEnable )
// 1238 {
        FUNCALL ZDP_MgmtDirectJoinReq, sAddrExtCpy
        LOCFRAME ISTACK, 0, STACK
        LOCFRAME PSTACK, 0, STACK
        LOCFRAME XSTACK, 12, STACK
        LOCFRAME IOVERLAY, 0, STATIC
        LOCFRAME DOVERLAY, 0, STATIC
        ARGFRAME ISTACK, 0, STACK
        ARGFRAME PSTACK, 0, STACK
        ARGFRAME XSTACK, 12, STACK
        ARGFRAME IOVERLAY, 0, STATIC
        ARGFRAME DOVERLAY, 0, STATIC
        FUNCALL ZDP_MgmtDirectJoinReq, fillAndSend
        LOCFRAME ISTACK, 0, STACK
        LOCFRAME PSTACK, 0, STACK
        LOCFRAME XSTACK, 14, STACK
        LOCFRAME IOVERLAY, 0, STATIC
        LOCFRAME DOVERLAY, 0, STATIC
        ARGFRAME ISTACK, 0, STACK
        ARGFRAME PSTACK, 0, STACK
        ARGFRAME XSTACK, 14, STACK
        ARGFRAME IOVERLAY, 0, STATIC
        ARGFRAME DOVERLAY, 0, STATIC
        MOV     A,#-0xc
        LCALL   ?BANKED_ENTER_XDATA
        CFI DPH0 load(1, XDATA, add(CFA_XSP16, literal(-1)))
        CFI DPL0 load(1, XDATA, add(CFA_XSP16, literal(-2)))
        CFI ?BRET_EXT load(1, XDATA, add(CFA_XSP16, literal(-3)))
        CFI ?RET_HIGH load(1, XDATA, add(CFA_XSP16, literal(-4)))
        CFI ?RET_LOW load(1, XDATA, add(CFA_XSP16, literal(-5)))
        CFI R7 load(1, XDATA, add(CFA_XSP16, literal(-6)))
        CFI V3 load(1, XDATA, add(CFA_XSP16, literal(-7)))
        CFI V2 load(1, XDATA, add(CFA_XSP16, literal(-8)))
        CFI V1 load(1, XDATA, add(CFA_XSP16, literal(-9)))
        CFI V0 load(1, XDATA, add(CFA_XSP16, literal(-10)))
        CFI VB load(1, XDATA, add(CFA_XSP16, literal(-11)))
        CFI R6 load(1, XDATA, add(CFA_XSP16, literal(-12)))
        CFI CFA_SP SP+0
        CFI CFA_XSP16 add(XSP16, 12)
        ; Saved register size: 12
        ; Auto size: 0
        MOV     A,R2
        MOV     R6,A
        MOV     A,R3
        MOV     R7,A
        MOV     ?V0 + 0,R1
// 1239   (void)SecurityEnable;  // Intentionally unreferenced parameter
// 1240 
// 1241   osal_cpyExtAddr( ZDP_TmpBuf, deviceAddr );
        ; Setup parameters for call to function sAddrExtCpy
        MOV     DPTR,#ZDP_TmpBuf
        MOVX    A,@DPTR
        MOV     R2,A
        INC     DPTR
        MOVX    A,@DPTR
        MOV     R3,A
        LCALL   ??sAddrExtCpy?relay
// 1242   ZDP_TmpBuf[Z_EXTADDR_LEN] = capInfo;
        MOV     DPTR,#ZDP_TmpBuf
        MOVX    A,@DPTR
        MOV     R0,A
        INC     DPTR
        MOVX    A,@DPTR
        MOV     DPH,A
        MOV     DPL,R0
        INC     DPTR
        INC     DPTR
        INC     DPTR
        INC     DPTR
        INC     DPTR
        INC     DPTR
        INC     DPTR
        INC     DPTR
        MOV     A,?V0 + 0
        MOVX    @DPTR,A
// 1243 
// 1244   return fillAndSend( &ZDP_TransID, dstAddr, Mgmt_Direct_Join_req, (Z_EXTADDR_LEN + 1) );
        ; Setup parameters for call to function fillAndSend
        MOV     ?V0 + 2,#0x35
        MOV     ?V0 + 3,#0x0
        MOV     R0,#?V0 + 2
        LCALL   ?PUSH_XSTACK_I_TWO
        CFI CFA_XSP16 add(XSP16, 14)
        MOV     R1,#0x9
        MOV     A,R6
        MOV     R4,A
        MOV     A,R7
        MOV     R5,A
        MOV     R2,#ZDP_TransID & 0xff
        MOV     R3,#(ZDP_TransID >> 8) & 0xff
        LCALL   ??fillAndSend?relay
        MOV     A,#0x2
        LCALL   ?DEALLOC_XSTACK8
        CFI CFA_XSP16 add(XSP16, 12)
        MOV     R7,#0x4
        LJMP    ?BANKED_LEAVE_XDATA
        CFI EndBlock cfiBlock21
// 1245 }
// 1246 
// 1247 /*********************************************************************
// 1248  * @fn          ZDP_MgmtPermitJoinReq
// 1249  *
// 1250  * @brief       This builds and send a Mgmt_Permit_Join_req message.
// 1251  *
// 1252  * @param       dstAddr - destination address of the message
// 1253  * @param       duration - Permit duration
// 1254  * @param       TcSignificance - Trust Center Significance
// 1255  *
// 1256  * @return      afStatus_t
// 1257  */

        RSEG BANKED_CODE:CODE:NOROOT(0)
// 1258 afStatus_t ZDP_MgmtPermitJoinReq( zAddrType_t *dstAddr, byte duration,
ZDP_MgmtPermitJoinReq:
        CFI Block cfiBlock22 Using cfiCommon0
        CFI Function ZDP_MgmtPermitJoinReq
        CODE
// 1259                                   byte TcSignificance, byte SecurityEnable )
// 1260 {
        FUNCALL ZDP_MgmtPermitJoinReq, fillAndSend
        LOCFRAME ISTACK, 0, STACK
        LOCFRAME PSTACK, 0, STACK
        LOCFRAME XSTACK, 12, STACK
        LOCFRAME IOVERLAY, 0, STATIC
        LOCFRAME DOVERLAY, 0, STATIC
        ARGFRAME ISTACK, 0, STACK
        ARGFRAME PSTACK, 0, STACK
        ARGFRAME XSTACK, 12, STACK
        ARGFRAME IOVERLAY, 0, STATIC
        ARGFRAME DOVERLAY, 0, STATIC
        MOV     A,#-0xa
        LCALL   ?BANKED_ENTER_XDATA
        CFI DPH0 load(1, XDATA, add(CFA_XSP16, literal(-1)))
        CFI DPL0 load(1, XDATA, add(CFA_XSP16, literal(-2)))
        CFI ?BRET_EXT load(1, XDATA, add(CFA_XSP16, literal(-3)))
        CFI ?RET_HIGH load(1, XDATA, add(CFA_XSP16, literal(-4)))
        CFI ?RET_LOW load(1, XDATA, add(CFA_XSP16, literal(-5)))
        CFI R7 load(1, XDATA, add(CFA_XSP16, literal(-6)))
        CFI V1 load(1, XDATA, add(CFA_XSP16, literal(-7)))
        CFI V0 load(1, XDATA, add(CFA_XSP16, literal(-8)))
        CFI VB load(1, XDATA, add(CFA_XSP16, literal(-9)))
        CFI R6 load(1, XDATA, add(CFA_XSP16, literal(-10)))
        CFI CFA_SP SP+0
        CFI CFA_XSP16 add(XSP16, 10)
        ; Saved register size: 10
        ; Auto size: 0
        MOV     A,R1
        MOV     R6,A
        MOV     A,R4
        MOV     R7,A
// 1261   (void)SecurityEnable;  // Intentionally unreferenced parameter
// 1262 
// 1263   // Build buffer
// 1264   ZDP_TmpBuf[ZDP_MGMT_PERMIT_JOIN_REQ_DURATION] = duration;
        MOV     A,R6
        PUSH    A
        CFI CFA_SP SP+-1
        MOV     DPTR,#ZDP_TmpBuf
        MOVX    A,@DPTR
        MOV     R0,A
        INC     DPTR
        MOVX    A,@DPTR
        MOV     DPH,A
        MOV     DPL,R0
        POP     A
        CFI CFA_SP SP+0
        MOVX    @DPTR,A
// 1265   ZDP_TmpBuf[ZDP_MGMT_PERMIT_JOIN_REQ_TC_SIG]   = TcSignificance;
        MOV     A,R7
        PUSH    A
        CFI CFA_SP SP+-1
        MOV     DPTR,#ZDP_TmpBuf
        MOVX    A,@DPTR
        MOV     R0,A
        INC     DPTR
        MOVX    A,@DPTR
        MOV     DPH,A
        MOV     DPL,R0
        INC     DPTR
        POP     A
        CFI CFA_SP SP+0
        MOVX    @DPTR,A
// 1266 
// 1267   // Send the message
// 1268   return fillAndSend( &ZDP_TransID, dstAddr, Mgmt_Permit_Join_req,
// 1269                       ZDP_MGMT_PERMIT_JOIN_REQ_SIZE );
        ; Setup parameters for call to function fillAndSend
        MOV     ?V0 + 0,#0x36
        MOV     ?V0 + 1,#0x0
        MOV     R0,#?V0 + 0
        LCALL   ?PUSH_XSTACK_I_TWO
        CFI CFA_XSP16 add(XSP16, 12)
        MOV     R1,#0x2
        MOV     A,R2
        MOV     R4,A
        MOV     A,R3
        MOV     R5,A
        MOV     R2,#ZDP_TransID & 0xff
        MOV     R3,#(ZDP_TransID >> 8) & 0xff
        LCALL   ??fillAndSend?relay
        MOV     A,#0x2
        LCALL   ?DEALLOC_XSTACK8
        CFI CFA_XSP16 add(XSP16, 10)
        MOV     R7,#0x2
        LJMP    ?BANKED_LEAVE_XDATA
        CFI EndBlock cfiBlock22
// 1270 }
// 1271 
// 1272 /*********************************************************************
// 1273  * @fn          ZDP_MgmtLeaveReq
// 1274  *
// 1275  * @brief       This builds and send a Mgmt_Leave_req message.
// 1276  *
// 1277  * @param       dstAddr - destination address of the message
// 1278  *              IEEEAddr - IEEE adddress of device that is removed
// 1279  *              RemoveChildren - set to 1 to remove the children of the
// 1280  *                                device as well. 0 otherwise.
// 1281  *              Rejoin - set to 1 if the removed device should rejoin
// 1282                          afterwards. 0 otherwise.
// 1283  *
// 1284  * @return      afStatus_t
// 1285  */

        RSEG BANKED_CODE:CODE:NOROOT(0)
// 1286 afStatus_t ZDP_MgmtLeaveReq( zAddrType_t *dstAddr, uint8 *IEEEAddr, uint8 RemoveChildren,
ZDP_MgmtLeaveReq:
        CFI Block cfiBlock23 Using cfiCommon0
        CFI Function ZDP_MgmtLeaveReq
        CODE
// 1287                  uint8 Rejoin, uint8 SecurityEnable )
// 1288 
// 1289 {
        FUNCALL ZDP_MgmtLeaveReq, sAddrExtCpy
        LOCFRAME ISTACK, 0, STACK
        LOCFRAME PSTACK, 0, STACK
        LOCFRAME XSTACK, 12, STACK
        LOCFRAME IOVERLAY, 0, STATIC
        LOCFRAME DOVERLAY, 0, STATIC
        ARGFRAME ISTACK, 0, STACK
        ARGFRAME PSTACK, 0, STACK
        ARGFRAME XSTACK, 12, STACK
        ARGFRAME IOVERLAY, 0, STATIC
        ARGFRAME DOVERLAY, 0, STATIC
        FUNCALL ZDP_MgmtLeaveReq, fillAndSend
        LOCFRAME ISTACK, 0, STACK
        LOCFRAME PSTACK, 0, STACK
        LOCFRAME XSTACK, 14, STACK
        LOCFRAME IOVERLAY, 0, STATIC
        LOCFRAME DOVERLAY, 0, STATIC
        ARGFRAME ISTACK, 0, STACK
        ARGFRAME PSTACK, 0, STACK
        ARGFRAME XSTACK, 14, STACK
        ARGFRAME IOVERLAY, 0, STATIC
        ARGFRAME DOVERLAY, 0, STATIC
        MOV     A,#-0xc
        LCALL   ?BANKED_ENTER_XDATA
        CFI DPH0 load(1, XDATA, add(CFA_XSP16, literal(-1)))
        CFI DPL0 load(1, XDATA, add(CFA_XSP16, literal(-2)))
        CFI ?BRET_EXT load(1, XDATA, add(CFA_XSP16, literal(-3)))
        CFI ?RET_HIGH load(1, XDATA, add(CFA_XSP16, literal(-4)))
        CFI ?RET_LOW load(1, XDATA, add(CFA_XSP16, literal(-5)))
        CFI R7 load(1, XDATA, add(CFA_XSP16, literal(-6)))
        CFI V3 load(1, XDATA, add(CFA_XSP16, literal(-7)))
        CFI V2 load(1, XDATA, add(CFA_XSP16, literal(-8)))
        CFI V1 load(1, XDATA, add(CFA_XSP16, literal(-9)))
        CFI V0 load(1, XDATA, add(CFA_XSP16, literal(-10)))
        CFI VB load(1, XDATA, add(CFA_XSP16, literal(-11)))
        CFI R6 load(1, XDATA, add(CFA_XSP16, literal(-12)))
        CFI CFA_SP SP+0
        CFI CFA_XSP16 add(XSP16, 12)
        ; Saved register size: 12
        ; Auto size: 0
        MOV     A,R2
        MOV     R6,A
        MOV     A,R3
        MOV     R7,A
        MOV     ?V0 + 0,R1
        MOV     A,#0xc
        LCALL   ?XSTACK_DISP0_8
        MOVX    A,@DPTR
        MOV     ?V0 + 1,A
// 1290   (void)SecurityEnable;  // Intentionally unreferenced parameter
// 1291 
// 1292   osal_cpyExtAddr( ZDP_TmpBuf, IEEEAddr );
        ; Setup parameters for call to function sAddrExtCpy
        MOV     DPTR,#ZDP_TmpBuf
        MOVX    A,@DPTR
        MOV     R2,A
        INC     DPTR
        MOVX    A,@DPTR
        MOV     R3,A
        LCALL   ??sAddrExtCpy?relay
// 1293   ZDP_TmpBuf[Z_EXTADDR_LEN] = 0;
        MOV     DPTR,#ZDP_TmpBuf
        MOVX    A,@DPTR
        ADD     A,#0x8
        MOV     R0,A
        INC     DPTR
        MOVX    A,@DPTR
        ADDC    A,#0x0
        MOV     R1,A
        MOV     DPL,R0
        MOV     DPH,R1
        CLR     A
        MOVX    @DPTR,A
// 1294 
// 1295   if ( RemoveChildren == TRUE )
        INC     A
        XRL     A,?V0 + 0
        JNZ     ??ZDP_MgmtLeaveReq_0
// 1296   {
// 1297     ZDP_TmpBuf[Z_EXTADDR_LEN] |= ZDP_MGMT_LEAVE_REQ_RC;
        MOVX    A,@DPTR
        SETB    0xE0 /* A   */.6
        MOVX    @DPTR,A
// 1298   }
// 1299   if ( Rejoin == TRUE )
??ZDP_MgmtLeaveReq_0:
        MOV     A,#0x1
        XRL     A,?V0 + 1
        JNZ     ??ZDP_MgmtLeaveReq_1
// 1300   {
// 1301     ZDP_TmpBuf[Z_EXTADDR_LEN] |= ZDP_MGMT_LEAVE_REQ_REJOIN;
        MOVX    A,@DPTR
        SETB    0xE0 /* A   */.7
        MOVX    @DPTR,A
// 1302   }
// 1303 
// 1304   return fillAndSend( &ZDP_TransID, dstAddr, Mgmt_Leave_req, (Z_EXTADDR_LEN + 1) );
??ZDP_MgmtLeaveReq_1:
        ; Setup parameters for call to function fillAndSend
        MOV     ?V0 + 2,#0x34
        MOV     ?V0 + 3,#0x0
        MOV     R0,#?V0 + 2
        LCALL   ?PUSH_XSTACK_I_TWO
        CFI CFA_XSP16 add(XSP16, 14)
        MOV     R1,#0x9
        MOV     A,R6
        MOV     R4,A
        MOV     A,R7
        MOV     R5,A
        MOV     R2,#ZDP_TransID & 0xff
        MOV     R3,#(ZDP_TransID >> 8) & 0xff
        LCALL   ??fillAndSend?relay
        MOV     A,#0x2
        LCALL   ?DEALLOC_XSTACK8
        CFI CFA_XSP16 add(XSP16, 12)
        MOV     R7,#0x4
        LJMP    ?BANKED_LEAVE_XDATA
        CFI EndBlock cfiBlock23
// 1305 }
// 1306 
// 1307 /*********************************************************************
// 1308  * @fn          ZDP_MgmtNwkUpdateReq
// 1309  *
// 1310  * @brief       This builds and send a Mgmt_NWK_Update_req message. This
// 1311  *              function sends a unicast or broadcast message.
// 1312  *
// 1313  * @param       dstAddr - destination address of the message
// 1314  * @param       ChannelMask - 32 bit address bit map
// 1315  * @param       ScanDuration - length of time to spend scanning each channel
// 1316  * @param       ScanCount - number of energy scans to be conducted
// 1317  * @param       NwkUpdateId - NWk Update Id value
// 1318  * @param       NwkManagerAddr - NWK address for device with Network Manager
// 1319  *                               bit set in its Node Descriptor
// 1320  *
// 1321  * @return      afStatus_t
// 1322  */

        RSEG BANKED_CODE:CODE:NOROOT(0)
// 1323 afStatus_t ZDP_MgmtNwkUpdateReq( zAddrType_t *dstAddr,
ZDP_MgmtNwkUpdateReq:
        CFI Block cfiBlock24 Using cfiCommon0
        CFI Function ZDP_MgmtNwkUpdateReq
        CODE
// 1324                                  uint32 ChannelMask,
// 1325                                  uint8 ScanDuration,
// 1326                                  uint8 ScanCount,
// 1327                                  uint8 NwkUpdateId,
// 1328                                  uint16 NwkManagerAddr )
// 1329 {
        FUNCALL ZDP_MgmtNwkUpdateReq, osal_buffer_uint32
        LOCFRAME ISTACK, 0, STACK
        LOCFRAME PSTACK, 0, STACK
        LOCFRAME XSTACK, 22, STACK
        LOCFRAME IOVERLAY, 0, STATIC
        LOCFRAME DOVERLAY, 0, STATIC
        ARGFRAME ISTACK, 0, STACK
        ARGFRAME PSTACK, 0, STACK
        ARGFRAME XSTACK, 22, STACK
        ARGFRAME IOVERLAY, 0, STATIC
        ARGFRAME DOVERLAY, 0, STATIC
        FUNCALL ZDP_MgmtNwkUpdateReq, fillAndSend
        LOCFRAME ISTACK, 0, STACK
        LOCFRAME PSTACK, 0, STACK
        LOCFRAME XSTACK, 20, STACK
        LOCFRAME IOVERLAY, 0, STATIC
        LOCFRAME DOVERLAY, 0, STATIC
        ARGFRAME ISTACK, 0, STACK
        ARGFRAME PSTACK, 0, STACK
        ARGFRAME XSTACK, 20, STACK
        ARGFRAME IOVERLAY, 0, STATIC
        ARGFRAME DOVERLAY, 0, STATIC
        MOV     A,#-0x12
        LCALL   ?BANKED_ENTER_XDATA
        CFI DPH0 load(1, XDATA, add(CFA_XSP16, literal(-1)))
        CFI DPL0 load(1, XDATA, add(CFA_XSP16, literal(-2)))
        CFI ?BRET_EXT load(1, XDATA, add(CFA_XSP16, literal(-3)))
        CFI ?RET_HIGH load(1, XDATA, add(CFA_XSP16, literal(-4)))
        CFI ?RET_LOW load(1, XDATA, add(CFA_XSP16, literal(-5)))
        CFI R7 load(1, XDATA, add(CFA_XSP16, literal(-6)))
        CFI V9 load(1, XDATA, add(CFA_XSP16, literal(-7)))
        CFI V8 load(1, XDATA, add(CFA_XSP16, literal(-8)))
        CFI V7 load(1, XDATA, add(CFA_XSP16, literal(-9)))
        CFI V6 load(1, XDATA, add(CFA_XSP16, literal(-10)))
        CFI V5 load(1, XDATA, add(CFA_XSP16, literal(-11)))
        CFI V4 load(1, XDATA, add(CFA_XSP16, literal(-12)))
        CFI V3 load(1, XDATA, add(CFA_XSP16, literal(-13)))
        CFI V2 load(1, XDATA, add(CFA_XSP16, literal(-14)))
        CFI V1 load(1, XDATA, add(CFA_XSP16, literal(-15)))
        CFI V0 load(1, XDATA, add(CFA_XSP16, literal(-16)))
        CFI VB load(1, XDATA, add(CFA_XSP16, literal(-17)))
        CFI R6 load(1, XDATA, add(CFA_XSP16, literal(-18)))
        CFI CFA_SP SP+0
        CFI CFA_XSP16 add(XSP16, 18)
        ; Saved register size: 18
        ; Auto size: 0
        MOV     ?V0 + 8,R2
        MOV     ?V0 + 9,R3
        MOV     ?V0 + 4,R1
        MOV     ?V0 + 6,R4
        MOV     ?V0 + 5,R5
        MOV     A,#0x12
        LCALL   ?XSTACK_DISP0_8
        MOV     R0,#?V0 + 0
        LCALL   ?L_MOV_X
        MOV     A,#0x16
        LCALL   ?XSTACK_DISP0_8
        MOVX    A,@DPTR
        MOV     R6,A
        INC     DPTR
        MOVX    A,@DPTR
        MOV     R7,A
// 1330   uint8 *pBuf = ZDP_TmpBuf;
// 1331   byte len = sizeof( uint32 ) + 1;  // ChannelMask + ScanDuration
        MOV     ?V0 + 7,#0x5
// 1332 
// 1333   pBuf = osal_buffer_uint32( pBuf, ChannelMask );
        ; Setup parameters for call to function osal_buffer_uint32
        MOV     R0,#?V0 + 0
        LCALL   ?PUSH_XSTACK_I_FOUR
        CFI CFA_XSP16 add(XSP16, 22)
        MOV     DPTR,#ZDP_TmpBuf
        MOVX    A,@DPTR
        MOV     R2,A
        INC     DPTR
        MOVX    A,@DPTR
        MOV     R3,A
        LCALL   ??osal_buffer_uint32?relay
        MOV     A,#0x4
        LCALL   ?DEALLOC_XSTACK8
        CFI CFA_XSP16 add(XSP16, 18)
        MOV     DPL,R2
        MOV     DPH,R3
// 1334 
// 1335   *pBuf++ = ScanDuration;
        MOV     A,?V0 + 4
        MOVX    @DPTR,A
        INC     DPTR
// 1336 
// 1337   if ( ScanDuration <= 0x05 )
        CLR     C
        SUBB    A,#0x6
        JNC     ??ZDP_MgmtNwkUpdateReq_0
// 1338   {
// 1339     // Request is to scan over channelMask
// 1340     len += sizeof( uint8 );
        MOV     ?V0 + 7,#0x6
// 1341 
// 1342     *pBuf++ = ScanCount;
        MOV     A,?V0 + 6
        SJMP    ??ZDP_MgmtNwkUpdateReq_1
// 1343   }
// 1344   else if ( ( ScanDuration == 0xFE ) || ( ScanDuration == 0xFF ) )
??ZDP_MgmtNwkUpdateReq_0:
        MOV     A,#-0x2
        XRL     A,?V0 + 4
        JZ      ??ZDP_MgmtNwkUpdateReq_2
        MOV     A,#-0x1
        XRL     A,?V0 + 4
        JNZ     ??ZDP_MgmtNwkUpdateReq_3
// 1345   {
// 1346     // Request is to change Channel (0xFE) or apsChannelMask and NwkManagerAddr (0xFF)
// 1347     len += sizeof( uint8 );
??ZDP_MgmtNwkUpdateReq_2:
        MOV     ?V0 + 7,#0x6
// 1348 
// 1349     *pBuf++ = NwkUpdateId;
        MOV     A,?V0 + 5
        MOVX    @DPTR,A
        INC     DPTR
// 1350 
// 1351     if ( ScanDuration == 0xFF )
        MOV     A,#-0x1
        XRL     A,?V0 + 4
        JNZ     ??ZDP_MgmtNwkUpdateReq_3
// 1352     {
// 1353       len += sizeof( uint16 );
        MOV     ?V0 + 7,#0x8
// 1354 
// 1355       *pBuf++  = LO_UINT16( NwkManagerAddr );
        MOV     A,R6
        MOVX    @DPTR,A
        INC     DPTR
// 1356       *pBuf++  = HI_UINT16( NwkManagerAddr );
        MOV     A,R7
??ZDP_MgmtNwkUpdateReq_1:
        MOVX    @DPTR,A
// 1357     }
// 1358   }
// 1359 
// 1360   return fillAndSend( &ZDP_TransID, dstAddr, Mgmt_NWK_Update_req, len );
??ZDP_MgmtNwkUpdateReq_3:
        ; Setup parameters for call to function fillAndSend
        MOV     ?V0 + 0,#0x38
        MOV     ?V0 + 1,#0x0
        MOV     R0,#?V0 + 0
        LCALL   ?PUSH_XSTACK_I_TWO
        CFI CFA_XSP16 add(XSP16, 20)
        MOV     R1,?V0 + 7
        MOV     R4,?V0 + 8
        MOV     R5,?V0 + 9
        MOV     R2,#ZDP_TransID & 0xff
        MOV     R3,#(ZDP_TransID >> 8) & 0xff
        LCALL   ??fillAndSend?relay
        MOV     A,#0x2
        LCALL   ?DEALLOC_XSTACK8
        CFI CFA_XSP16 add(XSP16, 18)
        MOV     R7,#0xa
        LJMP    ?BANKED_LEAVE_XDATA
        CFI EndBlock cfiBlock24
// 1361 }
// 1362 
// 1363 
// 1364 /*********************************************************************
// 1365  * Network Management Responses
// 1366  */
// 1367 
// 1368 /*********************************************************************
// 1369  * @fn          ZDP_MgmtNwkDiscRsp
// 1370  *
// 1371  * @brief       This builds and send a Mgmt_NWK_Disc_rsp message. This
// 1372  *              function sends a unicast message.
// 1373  *
// 1374  * @param       dstAddr - destination address of the message
// 1375  * @param       Status - message status (ZDP_SUCCESS or other)
// 1376  * @param       NetworkCount - Total number of networks found
// 1377  * @param       StartIndex - Starting index within the reporting network
// 1378  *                           list
// 1379  * @param       NetworkListCount - number of network lists included
// 1380  *                                 in this message
// 1381  * @param       NetworkList - List of network descriptors
// 1382  * @param       SecurityEnable - Security Options
// 1383  *
// 1384  * @return      afStatus_t
// 1385  */

        RSEG BANKED_CODE:CODE:NOROOT(0)
// 1386 afStatus_t ZDP_MgmtNwkDiscRsp( byte TransSeq, zAddrType_t *dstAddr,
ZDP_MgmtNwkDiscRsp:
        CFI Block cfiBlock25 Using cfiCommon0
        CFI Function ZDP_MgmtNwkDiscRsp
        CODE
// 1387                             byte Status,
// 1388                             byte NetworkCount,
// 1389                             byte StartIndex,
// 1390                             byte NetworkListCount,
// 1391                             networkDesc_t *NetworkList,
// 1392                             byte SecurityEnable )
// 1393 {
        FUNCALL ZDP_MgmtNwkDiscRsp, osal_mem_alloc
        LOCFRAME ISTACK, 0, STACK
        LOCFRAME PSTACK, 0, STACK
        LOCFRAME XSTACK, 23, STACK
        LOCFRAME IOVERLAY, 0, STATIC
        LOCFRAME DOVERLAY, 0, STATIC
        ARGFRAME ISTACK, 0, STACK
        ARGFRAME PSTACK, 0, STACK
        ARGFRAME XSTACK, 23, STACK
        ARGFRAME IOVERLAY, 0, STATIC
        ARGFRAME DOVERLAY, 0, STATIC
        FUNCALL ZDP_MgmtNwkDiscRsp, sAddrExtCpy
        LOCFRAME ISTACK, 0, STACK
        LOCFRAME PSTACK, 0, STACK
        LOCFRAME XSTACK, 23, STACK
        LOCFRAME IOVERLAY, 0, STATIC
        LOCFRAME DOVERLAY, 0, STATIC
        ARGFRAME ISTACK, 0, STACK
        ARGFRAME PSTACK, 0, STACK
        ARGFRAME XSTACK, 23, STACK
        ARGFRAME IOVERLAY, 0, STATIC
        ARGFRAME DOVERLAY, 0, STATIC
        FUNCALL ZDP_MgmtNwkDiscRsp, fillAndSend
        LOCFRAME ISTACK, 0, STACK
        LOCFRAME PSTACK, 0, STACK
        LOCFRAME XSTACK, 25, STACK
        LOCFRAME IOVERLAY, 0, STATIC
        LOCFRAME DOVERLAY, 0, STATIC
        ARGFRAME ISTACK, 0, STACK
        ARGFRAME PSTACK, 0, STACK
        ARGFRAME XSTACK, 25, STACK
        ARGFRAME IOVERLAY, 0, STATIC
        ARGFRAME DOVERLAY, 0, STATIC
        FUNCALL ZDP_MgmtNwkDiscRsp, osal_mem_free
        LOCFRAME ISTACK, 0, STACK
        LOCFRAME PSTACK, 0, STACK
        LOCFRAME XSTACK, 23, STACK
        LOCFRAME IOVERLAY, 0, STATIC
        LOCFRAME DOVERLAY, 0, STATIC
        ARGFRAME ISTACK, 0, STACK
        ARGFRAME PSTACK, 0, STACK
        ARGFRAME XSTACK, 23, STACK
        ARGFRAME IOVERLAY, 0, STATIC
        ARGFRAME DOVERLAY, 0, STATIC
        MOV     A,#-0x16
        LCALL   ?BANKED_ENTER_XDATA
        CFI DPH0 load(1, XDATA, add(CFA_XSP16, literal(-1)))
        CFI DPL0 load(1, XDATA, add(CFA_XSP16, literal(-2)))
        CFI ?BRET_EXT load(1, XDATA, add(CFA_XSP16, literal(-3)))
        CFI ?RET_HIGH load(1, XDATA, add(CFA_XSP16, literal(-4)))
        CFI ?RET_LOW load(1, XDATA, add(CFA_XSP16, literal(-5)))
        CFI R7 load(1, XDATA, add(CFA_XSP16, literal(-6)))
        CFI V13 load(1, XDATA, add(CFA_XSP16, literal(-7)))
        CFI V12 load(1, XDATA, add(CFA_XSP16, literal(-8)))
        CFI V11 load(1, XDATA, add(CFA_XSP16, literal(-9)))
        CFI V10 load(1, XDATA, add(CFA_XSP16, literal(-10)))
        CFI V9 load(1, XDATA, add(CFA_XSP16, literal(-11)))
        CFI V8 load(1, XDATA, add(CFA_XSP16, literal(-12)))
        CFI V7 load(1, XDATA, add(CFA_XSP16, literal(-13)))
        CFI V6 load(1, XDATA, add(CFA_XSP16, literal(-14)))
        CFI V5 load(1, XDATA, add(CFA_XSP16, literal(-15)))
        CFI V4 load(1, XDATA, add(CFA_XSP16, literal(-16)))
        CFI V3 load(1, XDATA, add(CFA_XSP16, literal(-17)))
        CFI V2 load(1, XDATA, add(CFA_XSP16, literal(-18)))
        CFI V1 load(1, XDATA, add(CFA_XSP16, literal(-19)))
        CFI V0 load(1, XDATA, add(CFA_XSP16, literal(-20)))
        CFI VB load(1, XDATA, add(CFA_XSP16, literal(-21)))
        CFI R6 load(1, XDATA, add(CFA_XSP16, literal(-22)))
        CFI CFA_SP SP+0
        CFI CFA_XSP16 add(XSP16, 22)
        ; Saved register size: 22
        ; Auto size: 1
        MOV     A,#-0x1
        LCALL   ?ALLOC_XSTACK8
        CFI CFA_XSP16 add(XSP16, 23)
        MOV     A,R1
        MOV     DPL,?XSP + 0
        MOV     DPH,?XSP + 1
        MOVX    @DPTR,A
        MOV     ?V0 + 12,R2
        MOV     ?V0 + 13,R3
        MOV     ?V0 + 10,R4
        MOV     ?V0 + 7,R5
        MOV     A,#0x17
        LCALL   ?XSTACK_DISP0_8
        MOVX    A,@DPTR
        MOV     ?V0 + 6,A
        MOV     A,#0x18
        LCALL   ?XSTACK_DISP0_8
        MOVX    A,@DPTR
        MOV     ?V0 + 4,A
        MOV     A,#0x19
        LCALL   ?XSTACK_DISP0_8
        MOVX    A,@DPTR
        MOV     ?V0 + 2,A
        INC     DPTR
        MOVX    A,@DPTR
        MOV     ?V0 + 3,A
// 1394   uint8 *buf;
// 1395   uint8 *pBuf;
// 1396   byte len = 1+1+1+1;  // Status + NetworkCount + StartIndex + NetworkCountList.
// 1397   byte idx;
// 1398 
// 1399   (void)SecurityEnable;  // Intentionally unreferenced parameter
// 1400 
// 1401   len += (NetworkListCount * ( ZDP_NETWORK_EXTENDED_DISCRIPTOR_SIZE - 2 ));
        MOV     B,#0xc
        MOV     A,?V0 + 4
        MUL     AB
        ADD     A,#0x4
        MOV     ?V0 + 5,A
// 1402 
// 1403   buf = osal_mem_alloc( len+1 );
        ; Setup parameters for call to function osal_mem_alloc
        ADD     A,#0x1
        MOV     R2,A
        CLR     A
        ADDC    A,#0x0
        MOV     R3,A
        LCALL   ??osal_mem_alloc?relay
        MOV     ?V0 + 0,R2
        MOV     ?V0 + 1,R3
// 1404   if ( buf == NULL )
        MOV     A,R2
        ORL     A,?V0 + 1
        JNZ     ??ZDP_MgmtNwkDiscRsp_0
// 1405   {
// 1406     return afStatus_MEM_FAIL;
        MOV     R1,#0x10
        LJMP    ??ZDP_MgmtNwkDiscRsp_1 & 0xFFFF
// 1407   }
// 1408 
// 1409   pBuf = buf+1;
??ZDP_MgmtNwkDiscRsp_0:
        MOV     DPL,R2
        MOV     DPH,R3
        INC     DPTR
        MOV     ?V0 + 8,DPL
        MOV     ?V0 + 9,DPH
// 1410 
// 1411   *pBuf++ = Status;
        MOV     A,?V0 + 10
        MOVX    @DPTR,A
        INC     DPTR
// 1412   *pBuf++ = NetworkCount;
        MOV     A,?V0 + 7
        MOVX    @DPTR,A
        INC     DPTR
// 1413   *pBuf++ = StartIndex;
        MOV     A,?V0 + 6
        MOVX    @DPTR,A
        INC     DPTR
// 1414   *pBuf++ = NetworkListCount;
        MOV     A,?V0 + 4
        MOVX    @DPTR,A
        INC     DPTR
        MOV     R6,DPL
        MOV     R7,DPH
// 1415 
// 1416   for ( idx = 0; idx < NetworkListCount; idx++ )
        MOV     ?V0 + 6,#0x0
        SJMP    ??ZDP_MgmtNwkDiscRsp_2
// 1417   {
// 1418     osal_cpyExtAddr( pBuf, NetworkList->extendedPANID);
// 1419     pBuf += Z_EXTADDR_LEN;
// 1420 
// 1421     *pBuf++  = NetworkList->logicalChannel;                // LogicalChannel
// 1422     *pBuf    = NetworkList->stackProfile;                  // Stack profile
// 1423     *pBuf++ |= (byte)(NetworkList->version << 4);          // ZigBee Version
// 1424     *pBuf    = NetworkList->beaconOrder;                   // Beacon Order
// 1425     *pBuf++ |= (byte)(NetworkList->superFrameOrder << 4);  // Superframe Order
// 1426 
// 1427     if ( NetworkList->chosenRouter != INVALID_NODE_ADDR )
// 1428     {
// 1429       *pBuf++ = TRUE;                         // Permit Joining
// 1430     }
// 1431     else
// 1432     {
// 1433       *pBuf++ = FALSE;
??ZDP_MgmtNwkDiscRsp_3:
        CLR     A
??ZDP_MgmtNwkDiscRsp_4:
        MOVX    @DPTR,A
        INC     R6
        MOV     A,R1
        MOV     R7,A
// 1434     }
// 1435 
// 1436     NetworkList = NetworkList->nextDesc;    // Move to next list entry
        MOV     A,?V0 + 2
        ADD     A,#0x16
        MOV     DPL,A
        MOV     A,?V0 + 3
        ADDC    A,#0x0
        MOV     DPH,A
        MOVX    A,@DPTR
        MOV     ?V0 + 2,A
        INC     DPTR
        MOVX    A,@DPTR
        MOV     ?V0 + 3,A
        INC     ?V0 + 6
??ZDP_MgmtNwkDiscRsp_2:
        MOV     A,?V0 + 6
        CLR     C
        SUBB    A,?V0 + 4
        JC      $+5
        LJMP    ??ZDP_MgmtNwkDiscRsp_5 & 0xFFFF
        ; Setup parameters for call to function sAddrExtCpy
        MOV     A,?V0 + 2
        ADD     A,#0xd
        MOV     R4,A
        MOV     A,?V0 + 3
        ADDC    A,#0x0
        MOV     R5,A
        MOV     A,R6
        MOV     R2,A
        MOV     A,R7
        MOV     R3,A
        LCALL   ??sAddrExtCpy?relay
        MOV     A,R6
        ADD     A,#0x8
        MOV     R6,A
        MOV     A,R7
        ADDC    A,#0x0
        MOV     R7,A
        MOV     DPL,?V0 + 2
        MOV     DPH,?V0 + 3
        INC     DPTR
        INC     DPTR
        MOVX    A,@DPTR
        MOV     DPL,R6
        MOV     DPH,R7
        MOVX    @DPTR,A
        INC     DPTR
        MOV     R6,DPL
        MOV     R7,DPH
        MOV     DPL,?V0 + 2
        MOV     DPH,?V0 + 3
        INC     DPTR
        INC     DPTR
        INC     DPTR
        INC     DPTR
        INC     DPTR
        INC     DPTR
        INC     DPTR
        INC     DPTR
        MOVX    A,@DPTR
        MOV     DPL,R6
        MOV     DPH,R7
        MOVX    @DPTR,A
        MOV     A,R6
        MOV     R0,A
        MOV     A,R7
        MOV     R1,A
        INC     DPTR
        INC     R6
        MOV     R7,DPH
        MOV     DPL,?V0 + 2
        MOV     DPH,?V0 + 3
        INC     DPTR
        INC     DPTR
        INC     DPTR
        INC     DPTR
        INC     DPTR
        INC     DPTR
        INC     DPTR
        MOVX    A,@DPTR
        SWAP    A
        ANL     A,#0xf0
        MOV     R2,A
        MOV     DPL,R0
        MOV     DPH,R1
        MOVX    A,@DPTR
        ORL     A,R2
        MOVX    @DPTR,A
        MOV     DPL,?V0 + 2
        MOV     DPH,?V0 + 3
        INC     DPTR
        INC     DPTR
        INC     DPTR
        MOVX    A,@DPTR
        MOV     DPL,R6
        MOV     DPH,R7
        MOVX    @DPTR,A
        INC     R0
        MOV     A,R7
        MOV     R1,A
        INC     DPTR
        INC     R6
        MOV     R7,DPH
        MOV     DPL,?V0 + 2
        MOV     DPH,?V0 + 3
        INC     DPTR
        INC     DPTR
        INC     DPTR
        INC     DPTR
        MOVX    A,@DPTR
        SWAP    A
        ANL     A,#0xf0
        MOV     R2,A
        MOV     DPL,R0
        MOV     DPH,R1
        MOVX    A,@DPTR
        ORL     A,R2
        MOVX    @DPTR,A
        MOV     DPL,R6
        MOV     DPH,R7
        INC     DPTR
        MOV     R1,DPH
        MOV     DPL,?V0 + 2
        MOV     DPH,?V0 + 3
        INC     DPTR
        INC     DPTR
        INC     DPTR
        INC     DPTR
        INC     DPTR
        INC     DPTR
        INC     DPTR
        INC     DPTR
        INC     DPTR
        MOVX    A,@DPTR
        XRL     A,#0xfe
        JNZ     ??ZDP_MgmtNwkDiscRsp_6
        INC     DPTR
        MOVX    A,@DPTR
        CPL     A
??ZDP_MgmtNwkDiscRsp_6:
        MOV     DPL,R6
        MOV     DPH,R7
        JNZ     $+5
        LJMP    ??ZDP_MgmtNwkDiscRsp_3 & 0xFFFF
        MOV     A,#0x1
        LJMP    ??ZDP_MgmtNwkDiscRsp_4 & 0xFFFF
// 1437   }
// 1438 
// 1439   FillAndSendBuffer( &TransSeq, dstAddr, Mgmt_NWK_Disc_rsp, len, buf );
??ZDP_MgmtNwkDiscRsp_5:
        MOV     DPTR,#ZDP_TmpBuf
        MOV     A,?V0 + 8
        MOVX    @DPTR,A
        INC     DPTR
        MOV     A,?V0 + 9
        MOVX    @DPTR,A
        ; Setup parameters for call to function fillAndSend
        MOV     ?V0 + 2,#0x30
        MOV     ?V0 + 3,#-0x80
        MOV     R0,#?V0 + 2
        LCALL   ?PUSH_XSTACK_I_TWO
        CFI CFA_XSP16 add(XSP16, 25)
        MOV     R1,?V0 + 5
        MOV     R4,?V0 + 12
        MOV     R5,?V0 + 13
        MOV     A,#0x2
        LCALL   ?XSTACK_DISP0_8
        MOV     R2,DPL
        MOV     R3,DPH
        LCALL   ??fillAndSend?relay
        MOV     A,#0x2
        LCALL   ?DEALLOC_XSTACK8
        CFI CFA_XSP16 add(XSP16, 23)
        MOV     A,R1
        MOV     R6,A
        ; Setup parameters for call to function osal_mem_free
        MOV     R2,?V0 + 0
        MOV     R3,?V0 + 1
        LCALL   ??osal_mem_free?relay
        MOV     DPTR,#ZDP_TmpBuf
        MOV     A,#(ZDP_Buf + 1) & 0xff
        MOVX    @DPTR,A
        INC     DPTR
        MOV     A,#((ZDP_Buf + 1) >> 8) & 0xff
        MOVX    @DPTR,A
        MOV     A,R6
        MOV     R1,A
??ZDP_MgmtNwkDiscRsp_1:
        MOV     A,#0x1
        LCALL   ?DEALLOC_XSTACK8
        CFI CFA_XSP16 add(XSP16, 22)
        MOV     R7,#0xe
        LJMP    ?BANKED_LEAVE_XDATA
        CFI EndBlock cfiBlock25
// 1440 }
// 1441 
// 1442 /*********************************************************************
// 1443  * @fn          ZDP_MgmtLqiRsp
// 1444  *
// 1445  * @brief       This builds and send a Mgmt_Lqi_rsp message. This
// 1446  *              function sends a unicast message.
// 1447  *
// 1448  * @param       dstAddr - destination address of the message
// 1449  * @param       Status - message status (ZDP_SUCCESS or other)
// 1450  * @param       NeighborLqiEntries - Total number of entries found
// 1451  * @param       StartIndex - Starting index within the reporting list
// 1452  * @param       NeighborLqiCount - number of lists included
// 1453  *                                 in this message
// 1454  * @param       NeighborLqiList - List of NeighborLqiItems.  This list
// 1455  *                is the list to be sent, not the entire list
// 1456  * @param       SecurityEnable - true if secure
// 1457  *
// 1458  * @return      ZStatus_t
// 1459  */

        RSEG BANKED_CODE:CODE:NOROOT(0)
// 1460 ZStatus_t ZDP_MgmtLqiRsp( byte TransSeq, zAddrType_t *dstAddr,
ZDP_MgmtLqiRsp:
        CFI Block cfiBlock26 Using cfiCommon0
        CFI Function ZDP_MgmtLqiRsp
        CODE
// 1461                           byte Status,
// 1462                           byte NeighborLqiEntries,
// 1463                           byte StartIndex,
// 1464                           byte NeighborLqiCount,
// 1465                           ZDP_MgmtLqiItem_t* NeighborList,
// 1466                           byte SecurityEnable )
// 1467 {
        FUNCALL ZDP_MgmtLqiRsp, fillAndSend
        LOCFRAME ISTACK, 0, STACK
        LOCFRAME PSTACK, 0, STACK
        LOCFRAME XSTACK, 26, STACK
        LOCFRAME IOVERLAY, 0, STATIC
        LOCFRAME DOVERLAY, 0, STATIC
        ARGFRAME ISTACK, 0, STACK
        ARGFRAME PSTACK, 0, STACK
        ARGFRAME XSTACK, 26, STACK
        ARGFRAME IOVERLAY, 0, STATIC
        ARGFRAME DOVERLAY, 0, STATIC
        FUNCALL ZDP_MgmtLqiRsp, osal_mem_alloc
        LOCFRAME ISTACK, 0, STACK
        LOCFRAME PSTACK, 0, STACK
        LOCFRAME XSTACK, 24, STACK
        LOCFRAME IOVERLAY, 0, STATIC
        LOCFRAME DOVERLAY, 0, STATIC
        ARGFRAME ISTACK, 0, STACK
        ARGFRAME PSTACK, 0, STACK
        ARGFRAME XSTACK, 24, STACK
        ARGFRAME IOVERLAY, 0, STATIC
        ARGFRAME DOVERLAY, 0, STATIC
        FUNCALL ZDP_MgmtLqiRsp, sAddrExtCpy
        LOCFRAME ISTACK, 0, STACK
        LOCFRAME PSTACK, 0, STACK
        LOCFRAME XSTACK, 24, STACK
        LOCFRAME IOVERLAY, 0, STATIC
        LOCFRAME DOVERLAY, 0, STATIC
        ARGFRAME ISTACK, 0, STACK
        ARGFRAME PSTACK, 0, STACK
        ARGFRAME XSTACK, 24, STACK
        ARGFRAME IOVERLAY, 0, STATIC
        ARGFRAME DOVERLAY, 0, STATIC
        FUNCALL ZDP_MgmtLqiRsp, sAddrExtCpy
        LOCFRAME ISTACK, 0, STACK
        LOCFRAME PSTACK, 0, STACK
        LOCFRAME XSTACK, 24, STACK
        LOCFRAME IOVERLAY, 0, STATIC
        LOCFRAME DOVERLAY, 0, STATIC
        ARGFRAME ISTACK, 0, STACK
        ARGFRAME PSTACK, 0, STACK
        ARGFRAME XSTACK, 24, STACK
        ARGFRAME IOVERLAY, 0, STATIC
        ARGFRAME DOVERLAY, 0, STATIC
        FUNCALL ZDP_MgmtLqiRsp, fillAndSend
        LOCFRAME ISTACK, 0, STACK
        LOCFRAME PSTACK, 0, STACK
        LOCFRAME XSTACK, 26, STACK
        LOCFRAME IOVERLAY, 0, STATIC
        LOCFRAME DOVERLAY, 0, STATIC
        ARGFRAME ISTACK, 0, STACK
        ARGFRAME PSTACK, 0, STACK
        ARGFRAME XSTACK, 26, STACK
        ARGFRAME IOVERLAY, 0, STATIC
        ARGFRAME DOVERLAY, 0, STATIC
        FUNCALL ZDP_MgmtLqiRsp, osal_mem_free
        LOCFRAME ISTACK, 0, STACK
        LOCFRAME PSTACK, 0, STACK
        LOCFRAME XSTACK, 24, STACK
        LOCFRAME IOVERLAY, 0, STATIC
        LOCFRAME DOVERLAY, 0, STATIC
        ARGFRAME ISTACK, 0, STACK
        ARGFRAME PSTACK, 0, STACK
        ARGFRAME XSTACK, 24, STACK
        ARGFRAME IOVERLAY, 0, STATIC
        ARGFRAME DOVERLAY, 0, STATIC
        MOV     A,#-0x17
        LCALL   ?BANKED_ENTER_XDATA
        CFI DPH0 load(1, XDATA, add(CFA_XSP16, literal(-1)))
        CFI DPL0 load(1, XDATA, add(CFA_XSP16, literal(-2)))
        CFI ?BRET_EXT load(1, XDATA, add(CFA_XSP16, literal(-3)))
        CFI ?RET_HIGH load(1, XDATA, add(CFA_XSP16, literal(-4)))
        CFI ?RET_LOW load(1, XDATA, add(CFA_XSP16, literal(-5)))
        CFI R7 load(1, XDATA, add(CFA_XSP16, literal(-6)))
        CFI V14 load(1, XDATA, add(CFA_XSP16, literal(-7)))
        CFI V13 load(1, XDATA, add(CFA_XSP16, literal(-8)))
        CFI V12 load(1, XDATA, add(CFA_XSP16, literal(-9)))
        CFI V11 load(1, XDATA, add(CFA_XSP16, literal(-10)))
        CFI V10 load(1, XDATA, add(CFA_XSP16, literal(-11)))
        CFI V9 load(1, XDATA, add(CFA_XSP16, literal(-12)))
        CFI V8 load(1, XDATA, add(CFA_XSP16, literal(-13)))
        CFI V7 load(1, XDATA, add(CFA_XSP16, literal(-14)))
        CFI V6 load(1, XDATA, add(CFA_XSP16, literal(-15)))
        CFI V5 load(1, XDATA, add(CFA_XSP16, literal(-16)))
        CFI V4 load(1, XDATA, add(CFA_XSP16, literal(-17)))
        CFI V3 load(1, XDATA, add(CFA_XSP16, literal(-18)))
        CFI V2 load(1, XDATA, add(CFA_XSP16, literal(-19)))
        CFI V1 load(1, XDATA, add(CFA_XSP16, literal(-20)))
        CFI V0 load(1, XDATA, add(CFA_XSP16, literal(-21)))
        CFI VB load(1, XDATA, add(CFA_XSP16, literal(-22)))
        CFI R6 load(1, XDATA, add(CFA_XSP16, literal(-23)))
        CFI CFA_SP SP+0
        CFI CFA_XSP16 add(XSP16, 23)
        ; Saved register size: 23
        ; Auto size: 1
        MOV     A,#-0x1
        LCALL   ?ALLOC_XSTACK8
        CFI CFA_XSP16 add(XSP16, 24)
        MOV     A,R1
        MOV     DPL,?XSP + 0
        MOV     DPH,?XSP + 1
        MOVX    @DPTR,A
        MOV     ?V0 + 12,R2
        MOV     ?V0 + 13,R3
        MOV     ?V0 + 14,R5
        MOV     A,#0x18
        LCALL   ?XSTACK_DISP0_8
        MOVX    A,@DPTR
        MOV     ?V0 + 4,A
        MOV     A,#0x19
        LCALL   ?XSTACK_DISP0_8
        MOVX    A,@DPTR
        MOV     ?V0 + 5,A
        MOV     A,#0x1a
        LCALL   ?XSTACK_DISP0_8
        MOVX    A,@DPTR
        MOV     ?V0 + 0,A
        INC     DPTR
        MOVX    A,@DPTR
        MOV     ?V0 + 1,A
// 1468   ZDP_MgmtLqiItem_t* list = NeighborList;
// 1469   uint8 *buf, *pBuf;
// 1470   byte len, x;
// 1471 
// 1472   (void)SecurityEnable;  // Intentionally unreferenced parameter
// 1473 
// 1474   if ( ZSuccess != Status )
        MOV     A,R4
        JZ      ??ZDP_MgmtLqiRsp_0
// 1475   {
// 1476     ZDP_TmpBuf[0] = Status;
        MOV     DPTR,#ZDP_TmpBuf
        MOVX    A,@DPTR
        MOV     R0,A
        INC     DPTR
        MOVX    A,@DPTR
        MOV     DPH,A
        MOV     DPL,R0
        MOV     A,R4
        MOVX    @DPTR,A
// 1477     return fillAndSend( &TransSeq, dstAddr, Mgmt_Lqi_rsp, 1 );
        ; Setup parameters for call to function fillAndSend
        MOV     ?V0 + 0,#0x31
        MOV     ?V0 + 1,#-0x80
        MOV     R0,#?V0 + 0
        LCALL   ?PUSH_XSTACK_I_TWO
        CFI CFA_XSP16 add(XSP16, 26)
        MOV     R1,#0x1
        MOV     R4,?V0 + 12
        MOV     R5,?V0 + 13
        MOV     A,#0x2
        LCALL   ?XSTACK_DISP0_8
        MOV     R2,DPL
        MOV     R3,DPH
        LCALL   ??fillAndSend?relay
        MOV     A,#0x2
        LCALL   ?DEALLOC_XSTACK8
        CFI CFA_XSP16 add(XSP16, 24)
        LJMP    ??ZDP_MgmtLqiRsp_1 & 0xFFFF
// 1478   }
// 1479 
// 1480   // (Status + NeighborLqiEntries + StartIndex + NeighborLqiCount) +
// 1481   //  neighbor LQI data.
// 1482   len = (1 + 1 + 1 + 1) + (NeighborLqiCount * ZDP_MGMTLQI_EXTENDED_SIZE);
??ZDP_MgmtLqiRsp_0:
        MOV     B,#0x16
        MOV     A,?V0 + 5
        MUL     AB
        ADD     A,#0x4
        MOV     ?V0 + 6,A
// 1483 
// 1484   buf = osal_mem_alloc( len+1 );
        ; Setup parameters for call to function osal_mem_alloc
        ADD     A,#0x1
        MOV     R2,A
        CLR     A
        ADDC    A,#0x0
        MOV     R3,A
        LCALL   ??osal_mem_alloc?relay
        MOV     ?V0 + 2,R2
        MOV     ?V0 + 3,R3
// 1485   if ( buf == NULL )
        MOV     A,R2
        ORL     A,?V0 + 3
        JNZ     ??ZDP_MgmtLqiRsp_2
// 1486   {
// 1487     return afStatus_MEM_FAIL;
        MOV     R1,#0x10
        LJMP    ??ZDP_MgmtLqiRsp_1 & 0xFFFF
// 1488   }
// 1489 
// 1490   pBuf = buf+1;
??ZDP_MgmtLqiRsp_2:
        MOV     DPL,R2
        MOV     DPH,R3
        INC     DPTR
        MOV     ?V0 + 8,DPL
        MOV     ?V0 + 9,DPH
// 1491 
// 1492   *pBuf++ = Status;
        CLR     A
        MOVX    @DPTR,A
        INC     DPTR
// 1493   *pBuf++ = NeighborLqiEntries;
        MOV     A,?V0 + 14
        MOVX    @DPTR,A
        INC     DPTR
// 1494   *pBuf++ = StartIndex;
        MOV     A,?V0 + 4
        MOVX    @DPTR,A
        INC     DPTR
// 1495   *pBuf++ = NeighborLqiCount;
        MOV     A,?V0 + 5
        MOVX    @DPTR,A
        INC     DPTR
        MOV     R6,DPL
        MOV     R7,DPH
// 1496 
// 1497   for ( x = 0; x < NeighborLqiCount; x++ )
        MOV     ?V0 + 4,#0x0
        LJMP    ??ZDP_MgmtLqiRsp_3 & 0xFFFF
// 1498   {
// 1499     osal_cpyExtAddr( pBuf, list->extPanID);         // Extended PanID
??ZDP_MgmtLqiRsp_4:
        ; Setup parameters for call to function sAddrExtCpy
        MOV     A,?V0 + 0
        ADD     A,#0x2
        MOV     R4,A
        MOV     A,?V0 + 1
        ADDC    A,#0x0
        MOV     R5,A
        MOV     A,R6
        MOV     R2,A
        MOV     A,R7
        MOV     R3,A
        LCALL   ??sAddrExtCpy?relay
// 1500     pBuf += Z_EXTADDR_LEN;
// 1501 
// 1502     // EXTADDR
// 1503     pBuf = osal_cpyExtAddr( pBuf, list->extAddr );
        ; Setup parameters for call to function sAddrExtCpy
        MOV     A,?V0 + 0
        ADD     A,#0xa
        MOV     R4,A
        MOV     A,?V0 + 1
        ADDC    A,#0x0
        MOV     R5,A
        MOV     A,R6
        ADD     A,#0x8
        MOV     R2,A
        MOV     A,R7
        ADDC    A,#0x0
        MOV     R3,A
        LCALL   ??sAddrExtCpy?relay
        MOV     ?V0 + 10,R2
        MOV     ?V0 + 11,R3
        MOV     R6,?V0 + 10
        MOV     R7,?V0 + 11
// 1504 
// 1505     // NWKADDR
// 1506     *pBuf++ = LO_UINT16( list->nwkAddr );
        MOV     A,?V0 + 0
        ADD     A,#0x12
        MOV     R0,A
        MOV     A,?V0 + 1
        ADDC    A,#0x0
        MOV     R1,A
        MOV     DPL,R0
        MOV     DPH,R1
        MOVX    A,@DPTR
        MOV     DPL,R6
        MOV     DPH,R7
        MOVX    @DPTR,A
        INC     DPTR
        MOV     R6,DPL
        MOV     R7,DPH
// 1507     *pBuf++ = HI_UINT16( list->nwkAddr );
        MOV     DPL,R0
        MOV     DPH,R1
        INC     DPTR
        MOVX    A,@DPTR
        MOV     DPL,R6
        MOV     DPH,R7
        MOVX    @DPTR,A
        INC     DPTR
        INC     R6
        MOV     R7,DPH
// 1508 
// 1509     // DEVICETYPE
// 1510     *pBuf = list->devType;
        MOV     A,?V0 + 0
        ADD     A,#0x14
        MOV     DPL,A
        MOV     A,?V0 + 1
        ADDC    A,#0x0
        MOV     DPH,A
        MOVX    A,@DPTR
        MOV     DPL,R6
        MOV     DPH,R7
        MOVX    @DPTR,A
// 1511 
// 1512     // RXONIDLE
// 1513     *pBuf |= (uint8)(list->rxOnIdle << 2);
        MOV     A,?V0 + 0
        ADD     A,#0x15
        MOV     DPL,A
        MOV     A,?V0 + 1
        ADDC    A,#0x0
        MOV     DPH,A
        MOVX    A,@DPTR
        RLC     A
        RLC     A
        ANL     A,#0xfc
        MOV     R0,A
        MOV     DPL,R6
        MOV     DPH,R7
        MOVX    A,@DPTR
        ORL     A,R0
        MOVX    @DPTR,A
// 1514 
// 1515     // RELATIONSHIP
// 1516     *pBuf++ |= (uint8)(list->relation << 4);
        MOV     A,R6
        MOV     R0,A
        MOV     A,R7
        MOV     R1,A
        INC     DPTR
        INC     R6
        MOV     R7,DPH
        MOV     A,?V0 + 0
        ADD     A,#0x16
        MOV     DPL,A
        MOV     A,?V0 + 1
        ADDC    A,#0x0
        MOV     DPH,A
        MOVX    A,@DPTR
        SWAP    A
        ANL     A,#0xf0
        MOV     R2,A
        MOV     DPL,R0
        MOV     DPH,R1
        MOVX    A,@DPTR
        ORL     A,R2
        MOVX    @DPTR,A
// 1517 
// 1518     // PERMITJOINING
// 1519     *pBuf++ = (uint8)(list->permit);
        MOV     A,?V0 + 0
        ADD     A,#0x17
        MOV     DPL,A
        MOV     A,?V0 + 1
        ADDC    A,#0x0
        MOV     DPH,A
        MOVX    A,@DPTR
        MOV     DPL,R6
        MOV     DPH,R7
        MOVX    @DPTR,A
        INC     DPTR
        INC     R6
        MOV     R7,DPH
// 1520 
// 1521     // DEPTH
// 1522     *pBuf++ = list->depth;
        MOV     A,?V0 + 0
        ADD     A,#0x18
        MOV     DPL,A
        MOV     A,?V0 + 1
        ADDC    A,#0x0
        MOV     DPH,A
        MOVX    A,@DPTR
        MOV     DPL,R6
        MOV     DPH,R7
        MOVX    @DPTR,A
        INC     DPTR
        INC     R6
        MOV     R7,DPH
// 1523 
// 1524     // LQI
// 1525     *pBuf++ = list->lqi;
        MOV     A,?V0 + 0
        ADD     A,#0x19
        MOV     DPL,A
        MOV     A,?V0 + 1
        ADDC    A,#0x0
        MOV     DPH,A
        MOVX    A,@DPTR
        MOV     DPL,R6
        MOV     DPH,R7
        MOVX    @DPTR,A
        INC     DPTR
        INC     R6
        MOV     R7,DPH
// 1526 
// 1527     list++; // next list entry
        MOV     A,?V0 + 0
        ADD     A,#0x1a
        MOV     ?V0 + 0,A
        MOV     A,?V0 + 1
        ADDC    A,#0x0
        MOV     ?V0 + 1,A
// 1528   }
        INC     ?V0 + 4
??ZDP_MgmtLqiRsp_3:
        MOV     A,?V0 + 4
        CLR     C
        SUBB    A,?V0 + 5
        JNC     $+5
        LJMP    ??ZDP_MgmtLqiRsp_4 & 0xFFFF
// 1529 
// 1530   FillAndSendBuffer( &TransSeq, dstAddr, Mgmt_Lqi_rsp, len, buf );
        MOV     DPTR,#ZDP_TmpBuf
        MOV     A,?V0 + 8
        MOVX    @DPTR,A
        INC     DPTR
        MOV     A,?V0 + 9
        MOVX    @DPTR,A
        ; Setup parameters for call to function fillAndSend
        MOV     ?V0 + 0,#0x31
        MOV     ?V0 + 1,#-0x80
        MOV     R0,#?V0 + 0
        LCALL   ?PUSH_XSTACK_I_TWO
        CFI CFA_XSP16 add(XSP16, 26)
        MOV     R1,?V0 + 6
        MOV     R4,?V0 + 12
        MOV     R5,?V0 + 13
        MOV     A,#0x2
        LCALL   ?XSTACK_DISP0_8
        MOV     R2,DPL
        MOV     R3,DPH
        LCALL   ??fillAndSend?relay
        MOV     A,#0x2
        LCALL   ?DEALLOC_XSTACK8
        CFI CFA_XSP16 add(XSP16, 24)
        MOV     A,R1
        MOV     R6,A
        ; Setup parameters for call to function osal_mem_free
        MOV     R2,?V0 + 2
        MOV     R3,?V0 + 3
        LCALL   ??osal_mem_free?relay
        MOV     DPTR,#ZDP_TmpBuf
        MOV     A,#(ZDP_Buf + 1) & 0xff
        MOVX    @DPTR,A
        INC     DPTR
        MOV     A,#((ZDP_Buf + 1) >> 8) & 0xff
        MOVX    @DPTR,A
        MOV     A,R6
        MOV     R1,A
??ZDP_MgmtLqiRsp_1:
        MOV     A,#0x1
        LCALL   ?DEALLOC_XSTACK8
        CFI CFA_XSP16 add(XSP16, 23)
        MOV     R7,#0xf
        LJMP    ?BANKED_LEAVE_XDATA
        CFI EndBlock cfiBlock26
// 1531 }
// 1532 
// 1533 /*********************************************************************
// 1534  * @fn          ZDP_MgmtRtgRsp
// 1535  *
// 1536  * @brief       This builds and send a Mgmt_Rtg_rsp message. This
// 1537  *              function sends a unicast message.
// 1538  *
// 1539  * @param       dstAddr - destination address of the message
// 1540  * @param       Status - message status (ZDP_SUCCESS or other)
// 1541  * @param       RoutingTableEntries - Total number of entries
// 1542  * @param       StartIndex - Starting index within the reporting list
// 1543  * @param       RoutingTableListCount - number of entries included
// 1544  *                                      in this message
// 1545  * @param       RoutingTableList - List of Routing Table entries
// 1546  * @param       SecurityEnable - true to enable security for this message
// 1547  *
// 1548  * @return      ZStatus_t
// 1549  */

        RSEG BANKED_CODE:CODE:NOROOT(0)
// 1550 ZStatus_t ZDP_MgmtRtgRsp( byte TransSeq, zAddrType_t *dstAddr,
ZDP_MgmtRtgRsp:
        CFI Block cfiBlock27 Using cfiCommon0
        CFI Function ZDP_MgmtRtgRsp
        CODE
// 1551                             byte Status,
// 1552                             byte RoutingTableEntries,
// 1553                             byte StartIndex,
// 1554                             byte RoutingListCount,
// 1555                             rtgItem_t *RoutingTableList,
// 1556                             byte SecurityEnable )
// 1557 {
        FUNCALL ZDP_MgmtRtgRsp, osal_mem_alloc
        LOCFRAME ISTACK, 0, STACK
        LOCFRAME PSTACK, 0, STACK
        LOCFRAME XSTACK, 21, STACK
        LOCFRAME IOVERLAY, 0, STATIC
        LOCFRAME DOVERLAY, 0, STATIC
        ARGFRAME ISTACK, 0, STACK
        ARGFRAME PSTACK, 0, STACK
        ARGFRAME XSTACK, 21, STACK
        ARGFRAME IOVERLAY, 0, STATIC
        ARGFRAME DOVERLAY, 0, STATIC
        FUNCALL ZDP_MgmtRtgRsp, fillAndSend
        LOCFRAME ISTACK, 0, STACK
        LOCFRAME PSTACK, 0, STACK
        LOCFRAME XSTACK, 23, STACK
        LOCFRAME IOVERLAY, 0, STATIC
        LOCFRAME DOVERLAY, 0, STATIC
        ARGFRAME ISTACK, 0, STACK
        ARGFRAME PSTACK, 0, STACK
        ARGFRAME XSTACK, 23, STACK
        ARGFRAME IOVERLAY, 0, STATIC
        ARGFRAME DOVERLAY, 0, STATIC
        FUNCALL ZDP_MgmtRtgRsp, osal_mem_free
        LOCFRAME ISTACK, 0, STACK
        LOCFRAME PSTACK, 0, STACK
        LOCFRAME XSTACK, 21, STACK
        LOCFRAME IOVERLAY, 0, STATIC
        LOCFRAME DOVERLAY, 0, STATIC
        ARGFRAME ISTACK, 0, STACK
        ARGFRAME PSTACK, 0, STACK
        ARGFRAME XSTACK, 21, STACK
        ARGFRAME IOVERLAY, 0, STATIC
        ARGFRAME DOVERLAY, 0, STATIC
        MOV     A,#-0x14
        LCALL   ?BANKED_ENTER_XDATA
        CFI DPH0 load(1, XDATA, add(CFA_XSP16, literal(-1)))
        CFI DPL0 load(1, XDATA, add(CFA_XSP16, literal(-2)))
        CFI ?BRET_EXT load(1, XDATA, add(CFA_XSP16, literal(-3)))
        CFI ?RET_HIGH load(1, XDATA, add(CFA_XSP16, literal(-4)))
        CFI ?RET_LOW load(1, XDATA, add(CFA_XSP16, literal(-5)))
        CFI R7 load(1, XDATA, add(CFA_XSP16, literal(-6)))
        CFI V11 load(1, XDATA, add(CFA_XSP16, literal(-7)))
        CFI V10 load(1, XDATA, add(CFA_XSP16, literal(-8)))
        CFI V9 load(1, XDATA, add(CFA_XSP16, literal(-9)))
        CFI V8 load(1, XDATA, add(CFA_XSP16, literal(-10)))
        CFI V7 load(1, XDATA, add(CFA_XSP16, literal(-11)))
        CFI V6 load(1, XDATA, add(CFA_XSP16, literal(-12)))
        CFI V5 load(1, XDATA, add(CFA_XSP16, literal(-13)))
        CFI V4 load(1, XDATA, add(CFA_XSP16, literal(-14)))
        CFI V3 load(1, XDATA, add(CFA_XSP16, literal(-15)))
        CFI V2 load(1, XDATA, add(CFA_XSP16, literal(-16)))
        CFI V1 load(1, XDATA, add(CFA_XSP16, literal(-17)))
        CFI V0 load(1, XDATA, add(CFA_XSP16, literal(-18)))
        CFI VB load(1, XDATA, add(CFA_XSP16, literal(-19)))
        CFI R6 load(1, XDATA, add(CFA_XSP16, literal(-20)))
        CFI CFA_SP SP+0
        CFI CFA_XSP16 add(XSP16, 20)
        ; Saved register size: 20
        ; Auto size: 1
        MOV     A,#-0x1
        LCALL   ?ALLOC_XSTACK8
        CFI CFA_XSP16 add(XSP16, 21)
        MOV     A,R1
        MOV     DPL,?XSP + 0
        MOV     DPH,?XSP + 1
        MOVX    @DPTR,A
        MOV     ?V0 + 6,R2
        MOV     ?V0 + 7,R3
        MOV     ?V0 + 1,R4
        MOV     ?V0 + 0,R5
        MOV     A,#0x15
        LCALL   ?XSTACK_DISP0_8
        MOVX    A,@DPTR
        MOV     ?V0 + 10,A
        MOV     A,#0x16
        LCALL   ?XSTACK_DISP0_8
        MOVX    A,@DPTR
        MOV     ?V0 + 5,A
        MOV     A,#0x17
        LCALL   ?XSTACK_DISP0_8
        MOVX    A,@DPTR
        MOV     ?V0 + 2,A
        INC     DPTR
        MOVX    A,@DPTR
        MOV     ?V0 + 3,A
// 1558   uint8 *buf;
// 1559   uint8 *pBuf;
// 1560   // Status + RoutingTableEntries + StartIndex + RoutingListCount.
// 1561   byte len = 1 + 1 + 1 + 1;
// 1562   byte x;
// 1563 
// 1564   (void)SecurityEnable;  // Intentionally unreferenced parameter
// 1565 
// 1566   // Add an array for Routing List data
// 1567   len += (RoutingListCount * ZDP_ROUTINGENTRY_SIZE);
        MOV     B,#0x5
        MOV     A,?V0 + 5
        MUL     AB
        ADD     A,#0x4
        MOV     ?V0 + 4,A
// 1568 
// 1569   buf = osal_mem_alloc( (short)(len+1) );
        ; Setup parameters for call to function osal_mem_alloc
        ADD     A,#0x1
        MOV     R2,A
        CLR     A
        ADDC    A,#0x0
        MOV     R3,A
        LCALL   ??osal_mem_alloc?relay
        MOV     ?V0 + 8,R2
        MOV     ?V0 + 9,R3
        MOV     R6,?V0 + 8
        MOV     R7,?V0 + 9
// 1570   if ( buf == NULL )
        MOV     A,R6
        ORL     A,R7
        JNZ     ??ZDP_MgmtRtgRsp_0
// 1571   {
// 1572     return afStatus_MEM_FAIL;
        MOV     R1,#0x10
        LJMP    ??ZDP_MgmtRtgRsp_1 & 0xFFFF
// 1573   }
// 1574 
// 1575   pBuf = buf+1;
??ZDP_MgmtRtgRsp_0:
        MOV     DPL,R6
        MOV     DPH,R7
        INC     DPTR
        MOV     R2,DPL
        MOV     R3,DPH
// 1576 
// 1577   *pBuf++ = Status;
        MOV     A,?V0 + 1
        MOVX    @DPTR,A
        INC     DPTR
// 1578   *pBuf++ = RoutingTableEntries;
