///////////////////////////////////////////////////////////////////////////////
//                                                                            /
// IAR C/C++ Compiler V8.10.3.10338/W32 for 8051        16/Dec/2020  21:43:21 /
// Copyright 2004-2011 IAR Systems AB.                                        /
//                                                                            /
//    Core               =  plain                                             /
//    Code model         =  banked                                            /
//    Data model         =  large                                             /
//    Calling convention =  xdata reentrant                                   /
//    Constant location  =  data_rom                                          /
//    Dptr setup         =  1,16                                              /
//    Source file        =  E:\³£ÓÃÄ£¿éÊµÑé\ZigBeeÍ¨ÐÅÊµÑé\3.ZigBeeÍøÂç´«Êä³¬ /
//                          Éù²¨Êý¾ÝÊµÑé\Components\mt\MT.c                   /
//    Command line       =  -f E:\³£ÓÃÄ£¿éÊµÑé\ZigBeeÍ¨ÐÅÊµÑé\3.ZigBeeÍøÂç´«Ê /
//                          ä³¬Éù²¨Êý¾ÝÊµÑé\Projects\zstack\Samples\SampleApp /
//                          \CC2530DB\..\..\..\Tools\CC2530DB\f8wEndev.cfg    /
//                          (-DCPU32MHZ -DROOT=__near_func -DBLINK_LEDS) -f   /
//                          E:\³£ÓÃÄ£¿éÊµÑé\ZigBeeÍ¨ÐÅÊµÑé\3.ZigBeeÍøÂç´«Êä³¬ /
//                          Éù²¨Êý¾ÝÊµÑé\Projects\zstack\Samples\SampleApp\CC /
//                          2530DB\..\..\..\Tools\CC2530DB\f8wConfig.cfg      /
//                          (-DSECURE=0 -DZG_SECURE_DYNAMIC=0 -DREFLECTOR     /
//                          -DDEFAULT_CHANLIST=0x00000800                     /
//                          -DZDAPP_CONFIG_PAN_ID=0xFF11                      /
//                          -DNWK_START_DELAY=100 -DEXTENDED_JOINING_RANDOM_M /
//                          ASK=0x007F -DBEACON_REQUEST_DELAY=100             /
//                          -DBEACON_REQ_DELAY_MASK=0x00FF                    /
//                          -DROUTE_EXPIRY_TIME=30 -DAPSC_ACK_WAIT_DURATION_P /
//                          OLLED=3000 -DNWK_INDIRECT_MSG_TIMEOUT=7           /
//                          -DMAX_RREQ_ENTRIES=8 -DAPSC_MAX_FRAME_RETRIES=3   /
//                          -DNWK_MAX_DATA_RETRIES=2                          /
//                          -DMAX_POLL_FAILURE_RETRIES=2 -DMAX_BCAST=9        /
//                          -DAPS_MAX_GROUPS=16 -DMAX_RTG_ENTRIES=40          /
//                          -DNWK_MAX_BINDING_ENTRIES=4                       /
//                          -DMAX_BINDING_CLUSTER_IDS=4                       /
//                          "-DDEFAULT_KEY={0x01, 0x03, 0x05, 0x07, 0x09,     /
//                          0x0B, 0x0D, 0x0F, 0x00, 0x02, 0x04, 0x06, 0x08,   /
//                          0x0A, 0x0C, 0x0D}" -DMAC_MAX_FRAME_SIZE=116       /
//                          "-DCONST=const __code" -DGENERIC=__generic        /
//                          -DRFD_RCVC_ALWAYS_ON=FALSE -DPOLL_RATE=1000       /
//                          -DQUEUED_POLL_RATE=100 -DRESPONSE_POLL_RATE=100)  /
//                          -DREJOIN_POLL_RATE=440 E:\³£ÓÃÄ£¿éÊµÑé\ZigBeeÍ¨ÐÅ /
//                          ÊµÑé\3.ZigBeeÍøÂç´«Êä³¬Éù²¨Êý¾ÝÊµÑé\Components\mt /
//                          \MT.c -D NWK_AUTO_POLL -D ZTOOL_P1 -D             /
//                          MT_SYS_FUNC -D MT_ZDO_FUNC -D                     /
//                          LCD_SUPPORTED=DEBUG -lC                           /
//                          E:\³£ÓÃÄ£¿éÊµÑé\ZigBeeÍ¨ÐÅÊµÑé\3.ZigBeeÍøÂç´«Êä³¬ /
//                          Éù²¨Êý¾ÝÊµÑé\Projects\zstack\Samples\SampleApp\CC /
//                          2530DB\EndDeviceEB\List\ -lA                      /
//                          E:\³£ÓÃÄ£¿éÊµÑé\ZigBeeÍ¨ÐÅÊµÑé\3.ZigBeeÍøÂç´«Êä³¬ /
//                          Éù²¨Êý¾ÝÊµÑé\Projects\zstack\Samples\SampleApp\CC /
//                          2530DB\EndDeviceEB\List\ --diag_suppress          /
//                          Pe001,Pa010 -o E:\³£ÓÃÄ£¿éÊµÑé\ZigBeeÍ¨ÐÅÊµÑé\3.Z /
//                          igBeeÍøÂç´«Êä³¬Éù²¨Êý¾ÝÊµÑé\Projects\zstack\Sampl /
//                          es\SampleApp\CC2530DB\EndDeviceEB\Obj\ -e         /
//                          --no_unroll --no_inline --no_tbaa --debug         /
//                          --core=plain --dptr=16,1 --data_model=large       /
//                          --code_model=banked --calling_convention=xdata_re /
//                          entrant --place_constants=data_rom                /
//                          --nr_virtual_regs 16 -I                           /
//                          E:\³£ÓÃÄ£¿éÊµÑé\ZigBeeÍ¨ÐÅÊµÑé\3.ZigBeeÍøÂç´«Êä³¬ /
//                          Éù²¨Êý¾ÝÊµÑé\Projects\zstack\Samples\SampleApp\CC /
//                          2530DB\ -I E:\³£ÓÃÄ£¿éÊµÑé\ZigBeeÍ¨ÐÅÊµÑé\3.ZigBe /
//                          eÍøÂç´«Êä³¬Éù²¨Êý¾ÝÊµÑé\Projects\zstack\Samples\S /
//                          ampleApp\CC2530DB\..\SOURCE\ -I                   /
//                          E:\³£ÓÃÄ£¿éÊµÑé\ZigBeeÍ¨ÐÅÊµÑé\3.ZigBeeÍøÂç´«Êä³¬ /
//                          Éù²¨Êý¾ÝÊµÑé\Projects\zstack\Samples\SampleApp\CC /
//                          2530DB\..\..\..\ZMAIN\TI2530DB\ -I                /
//                          E:\³£ÓÃÄ£¿éÊµÑé\ZigBeeÍ¨ÐÅÊµÑé\3.ZigBeeÍøÂç´«Êä³¬ /
//                          Éù²¨Êý¾ÝÊµÑé\Projects\zstack\Samples\SampleApp\CC /
//                          2530DB\..\..\..\..\..\COMPONENTS\MT\ -I           /
//                          E:\³£ÓÃÄ£¿éÊµÑé\ZigBeeÍ¨ÐÅÊµÑé\3.ZigBeeÍøÂç´«Êä³¬ /
//                          Éù²¨Êý¾ÝÊµÑé\Projects\zstack\Samples\SampleApp\CC /
//                          2530DB\..\..\..\..\..\COMPONENTS\HAL\INCLUDE\ -I  /
//                          E:\³£ÓÃÄ£¿éÊµÑé\ZigBeeÍ¨ÐÅÊµÑé\3.ZigBeeÍøÂç´«Êä³¬ /
//                          Éù²¨Êý¾ÝÊµÑé\Projects\zstack\Samples\SampleApp\CC /
//                          2530DB\..\..\..\..\..\COMPONENTS\HAL\TARGET\CC253 /
//                          0EB\ -I E:\³£ÓÃÄ£¿éÊµÑé\ZigBeeÍ¨ÐÅÊµÑé\3.ZigBeeÍø /
//                          Âç´«Êä³¬Éù²¨Êý¾ÝÊµÑé\Projects\zstack\Samples\Samp /
//                          leApp\CC2530DB\..\..\..\..\..\COMPONENTS\OSAL\MCU /
//                          \CCSOC\ -I E:\³£ÓÃÄ£¿éÊµÑé\ZigBeeÍ¨ÐÅÊµÑé\3.ZigBe /
//                          eÍøÂç´«Êä³¬Éù²¨Êý¾ÝÊµÑé\Projects\zstack\Samples\S /
//                          ampleApp\CC2530DB\..\..\..\..\..\COMPONENTS\OSAL\ /
//                          INCLUDE\ -I E:\³£ÓÃÄ£¿éÊµÑé\ZigBeeÍ¨ÐÅÊµÑé\3.ZigB /
//                          eeÍøÂç´«Êä³¬Éù²¨Êý¾ÝÊµÑé\Projects\zstack\Samples\ /
//                          SampleApp\CC2530DB\..\..\..\..\..\COMPONENTS\STAC /
//                          K\AF\ -I E:\³£ÓÃÄ£¿éÊµÑé\ZigBeeÍ¨ÐÅÊµÑé\3.ZigBeeÍ /
//                          øÂç´«Êä³¬Éù²¨Êý¾ÝÊµÑé\Projects\zstack\Samples\Sam /
//                          pleApp\CC2530DB\..\..\..\..\..\COMPONENTS\STACK\N /
//                          WK\ -I E:\³£ÓÃÄ£¿éÊµÑé\ZigBeeÍ¨ÐÅÊµÑé\3.ZigBeeÍøÂ /
//                          ç´«Êä³¬Éù²¨Êý¾ÝÊµÑé\Projects\zstack\Samples\Sampl /
//                          eApp\CC2530DB\..\..\..\..\..\COMPONENTS\STACK\SEC /
//                          \ -I E:\³£ÓÃÄ£¿éÊµÑé\ZigBeeÍ¨ÐÅÊµÑé\3.ZigBeeÍøÂç´ /
//                          «Êä³¬Éù²¨Êý¾ÝÊµÑé\Projects\zstack\Samples\SampleA /
//                          pp\CC2530DB\..\..\..\..\..\COMPONENTS\STACK\SAPI\ /
//                           -I E:\³£ÓÃÄ£¿éÊµÑé\ZigBeeÍ¨ÐÅÊµÑé\3.ZigBeeÍøÂç´« /
//                          Êä³¬Éù²¨Êý¾ÝÊµÑé\Projects\zstack\Samples\SampleAp /
//                          p\CC2530DB\..\..\..\..\..\COMPONENTS\STACK\SYS\   /
//                          -I E:\³£ÓÃÄ£¿éÊµÑé\ZigBeeÍ¨ÐÅÊµÑé\3.ZigBeeÍøÂç´«Ê /
//                          ä³¬Éù²¨Êý¾ÝÊµÑé\Projects\zstack\Samples\SampleApp /
//                          \CC2530DB\..\..\..\..\..\COMPONENTS\STACK\ZDO\    /
//                          -I E:\³£ÓÃÄ£¿éÊµÑé\ZigBeeÍ¨ÐÅÊµÑé\3.ZigBeeÍøÂç´«Ê /
//                          ä³¬Éù²¨Êý¾ÝÊµÑé\Projects\zstack\Samples\SampleApp /
//                          \CC2530DB\..\..\..\..\..\COMPONENTS\ZMAC\F8W\ -I  /
//                          E:\³£ÓÃÄ£¿éÊµÑé\ZigBeeÍ¨ÐÅÊµÑé\3.ZigBeeÍøÂç´«Êä³¬ /
//                          Éù²¨Êý¾ÝÊµÑé\Projects\zstack\Samples\SampleApp\CC /
//                          2530DB\..\..\..\..\..\COMPONENTS\ZMAC\ -I         /
//                          E:\³£ÓÃÄ£¿éÊµÑé\ZigBeeÍ¨ÐÅÊµÑé\3.ZigBeeÍøÂç´«Êä³¬ /
//                          Éù²¨Êý¾ÝÊµÑé\Projects\zstack\Samples\SampleApp\CC /
//                          2530DB\..\..\..\..\..\COMPONENTS\SERVICES\SADDR\  /
//                          -I E:\³£ÓÃÄ£¿éÊµÑé\ZigBeeÍ¨ÐÅÊµÑé\3.ZigBeeÍøÂç´«Ê /
//                          ä³¬Éù²¨Êý¾ÝÊµÑé\Projects\zstack\Samples\SampleApp /
//                          \CC2530DB\..\..\..\..\..\COMPONENTS\SERVICES\SDAT /
//                          A\ -I E:\³£ÓÃÄ£¿éÊµÑé\ZigBeeÍ¨ÐÅÊµÑé\3.ZigBeeÍøÂç /
//                          ´«Êä³¬Éù²¨Êý¾ÝÊµÑé\Projects\zstack\Samples\Sample /
//                          App\CC2530DB\..\..\..\..\..\COMPONENTS\MAC\INCLUD /
//                          E\ -I E:\³£ÓÃÄ£¿éÊµÑé\ZigBeeÍ¨ÐÅÊµÑé\3.ZigBeeÍøÂç /
//                          ´«Êä³¬Éù²¨Êý¾ÝÊµÑé\Projects\zstack\Samples\Sample /
//                          App\CC2530DB\..\..\..\..\..\COMPONENTS\MAC\HIGH_L /
//                          EVEL\ -I E:\³£ÓÃÄ£¿éÊµÑé\ZigBeeÍ¨ÐÅÊµÑé\3.ZigBeeÍ /
//                          øÂç´«Êä³¬Éù²¨Êý¾ÝÊµÑé\Projects\zstack\Samples\Sam /
//                          pleApp\CC2530DB\..\..\..\..\..\COMPONENTS\MAC\LOW /
//                          _LEVEL\srf04\ -I E:\³£ÓÃÄ£¿éÊµÑé\ZigBeeÍ¨ÐÅÊµÑé\3 /
//                          .ZigBeeÍøÂç´«Êä³¬Éù²¨Êý¾ÝÊµÑé\Projects\zstack\Sam /
//                          ples\SampleApp\CC2530DB\..\..\..\..\..\COMPONENTS /
//                          \MAC\LOW_LEVEL\srf04\SINGLE_CHIP\ -I              /
//                          E:\³£ÓÃÄ£¿éÊµÑé\ZigBeeÍ¨ÐÅÊµÑé\3.ZigBeeÍøÂç´«Êä³¬ /
//                          Éù²¨Êý¾ÝÊµÑé\Projects\zstack\Samples\SampleApp\CC /
//                          2530DB\..\..\..\..\..\COMPONENTS\HARDWARE\ -Om    /
//    List file          =  E:\³£ÓÃÄ£¿éÊµÑé\ZigBeeÍ¨ÐÅÊµÑé\3.ZigBeeÍøÂç´«Êä³¬ /
//                          Éù²¨Êý¾ÝÊµÑé\Projects\zstack\Samples\SampleApp\CC /
//                          2530DB\EndDeviceEB\List\MT.s51                    /
//                                                                            /
//                                                                            /
///////////////////////////////////////////////////////////////////////////////

        NAME MT

        RTMODEL "__SystemLibrary", "CLib"
        RTMODEL "__calling_convention", "xdata_reentrant"
        RTMODEL "__code_model", "banked"
        RTMODEL "__core", "plain"
        RTMODEL "__data_model", "large"
        RTMODEL "__dptr_size", "16"
        RTMODEL "__extended_stack", "disabled"
        RTMODEL "__location_for_constants", "data"
        RTMODEL "__number_of_dptrs", "1"
        RTMODEL "__rt_version", "1"

        RSEG DOVERLAY:DATA:NOROOT(0)
        RSEG IOVERLAY:IDATA:NOROOT(0)
        RSEG ISTACK:IDATA:NOROOT(0)
        RSEG PSTACK:XDATA:NOROOT(0)
        RSEG XSTACK:XDATA:NOROOT(0)

        EXTERN ?ALLOC_XSTACK8
        EXTERN ?BANKED_ENTER_XDATA
        EXTERN ?BANKED_LEAVE_XDATA
        EXTERN ?BDISPATCH
        EXTERN ?CALL_IND
        EXTERN ?DEALLOC_XSTACK8
        EXTERN ?PUSH_XSTACK_I_THREE
        EXTERN ?PUSH_XSTACK_I_TWO
        EXTERN ?V0
        EXTERN ?XSP
        EXTERN ?XSTACK_DISP0_8
        EXTERN __INIT_XDATA_I
        EXTERN __INIT_XDATA_Z

        PUBLIC ??MTProcessAppRspMsg?relay
        FUNCTION ??MTProcessAppRspMsg?relay,0203H
        PUBLIC ??MT_BuildAndSendZToolResponse?relay
        FUNCTION ??MT_BuildAndSendZToolResponse?relay,0203H
        PUBLIC ??MT_BuildEndpointDesc?relay
        FUNCTION ??MT_BuildEndpointDesc?relay,0203H
        PUBLIC ??MT_BuildSPIMsg?relay
        FUNCTION ??MT_BuildSPIMsg?relay,0203H
        PUBLIC ??MT_Init?relay
        FUNCTION ??MT_Init?relay,0203H
        PUBLIC ??MT_ProcessIncoming?relay
        FUNCTION ??MT_ProcessIncoming?relay,0203H
        PUBLIC ??MT_ReverseBytes?relay
        FUNCTION ??MT_ReverseBytes?relay,0203H
        PUBLIC ??MT_Word2Buf?relay
        FUNCTION ??MT_Word2Buf?relay,0203H
        PUBLIC MTProcessAppRspMsg
        FUNCTION MTProcessAppRspMsg,021203H
        ARGFRAME XSTACK, 0, STACK
        LOCFRAME XSTACK, 9, STACK
        PUBLIC MT_BuildAndSendZToolResponse
        FUNCTION MT_BuildAndSendZToolResponse,021203H
        ARGFRAME XSTACK, 13, STACK
        ARGFRAME IOVERLAY, 0, STATIC
        ARGFRAME DOVERLAY, 0, STATIC
        LOCFRAME XSTACK, 18, STACK
        PUBLIC MT_BuildEndpointDesc
        FUNCTION MT_BuildEndpointDesc,021203H
        ARGFRAME XSTACK, 0, STACK
        LOCFRAME ISTACK, 1, STACK
        LOCFRAME XSTACK, 14, STACK
        PUBLIC MT_BuildSPIMsg
        FUNCTION MT_BuildSPIMsg,021203H
        ARGFRAME XSTACK, 18, STACK
        ARGFRAME IOVERLAY, 0, STATIC
        ARGFRAME DOVERLAY, 0, STATIC
        LOCFRAME ISTACK, 1, STACK
        LOCFRAME XSTACK, 19, STACK
        PUBLIC MT_Init
        FUNCTION MT_Init,021203H
        ARGFRAME XSTACK, 0, STACK
        LOCFRAME XSTACK, 9, STACK
        PUBLIC MT_ProcessIncoming
        FUNCTION MT_ProcessIncoming,021203H
        ARGFRAME XSTACK, 0, STACK
        LOCFRAME ISTACK, 1, STACK
        LOCFRAME XSTACK, 13, STACK
        PUBLIC MT_ReverseBytes
        FUNCTION MT_ReverseBytes,0203H
        ARGFRAME XSTACK, 0, STACK
        LOCFRAME ISTACK, 1, STACK
        LOCFRAME XSTACK, 12, STACK
        PUBLIC MT_TaskID
        PUBLIC MT_Word2Buf
        FUNCTION MT_Word2Buf,0203H
        ARGFRAME XSTACK, 0, STACK
        LOCFRAME ISTACK, 1, STACK
        LOCFRAME XSTACK, 9, STACK
        PUBLIC debugCompId
        PUBLIC debugThreshold
        PUBLIC mtProcessIncoming
        PUBLIC save_cmd
        
        CFI Names cfiNames0
        CFI StackFrame CFA_SP SP IDATA
        CFI StackFrame CFA_PSP16 PSP16 XDATA
        CFI StackFrame CFA_XSP16 XSP16 XDATA
        CFI StaticOverlayFrame CFA_IOVERLAY IOVERLAY
        CFI StaticOverlayFrame CFA_DOVERLAY DOVERLAY
        CFI Resource `PSW.CY`:1, `B.BR0`:1, `B.BR1`:1, `B.BR2`:1, `B.BR3`:1
        CFI Resource `B.BR4`:1, `B.BR5`:1, `B.BR6`:1, `B.BR7`:1, `VB.BR8`:1
        CFI Resource `VB.BR9`:1, `VB.BR10`:1, `VB.BR11`:1, `VB.BR12`:1
        CFI Resource `VB.BR13`:1, `VB.BR14`:1, `VB.BR15`:1, VB:8, B:8, A:8
        CFI Resource PSW:8, DPL0:8, DPH0:8, R0:8, R1:8, R2:8, R3:8, R4:8, R5:8
        CFI Resource R6:8, R7:8, V0:8, V1:8, V2:8, V3:8, V4:8, V5:8, V6:8, V7:8
        CFI Resource V8:8, V9:8, V10:8, V11:8, V12:8, V13:8, V14:8, V15:8, SP:8
        CFI Resource PSPH:8, PSPL:8, PSP16:16, XSPH:8, XSPL:8, XSP16:16
        CFI VirtualResource ?RET:24
        CFI Resource ?BRET_EXT:8
        CFI VirtualResource ?RET_HIGH:8, ?RET_LOW:8
        CFI ResourceParts PSP16 PSPH, PSPL
        CFI ResourceParts XSP16 XSPH, XSPL
        CFI ResourceParts ?RET ?BRET_EXT, ?RET_HIGH, ?RET_LOW
        CFI EndNames cfiNames0
        
        CFI Common cfiCommon0 Using cfiNames0
        CFI CodeAlign 1
        CFI DataAlign -1
        CFI ReturnAddress ?RET CODE
        CFI CFA_DOVERLAY Used
        CFI CFA_IOVERLAY Used
        CFI CFA_SP SP+-3
        CFI CFA_PSP16 PSP16+0
        CFI CFA_XSP16 XSP16+0
        CFI `PSW.CY` SameValue
        CFI `B.BR0` SameValue
        CFI `B.BR1` SameValue
        CFI `B.BR2` SameValue
        CFI `B.BR3` SameValue
        CFI `B.BR4` SameValue
        CFI `B.BR5` SameValue
        CFI `B.BR6` SameValue
        CFI `B.BR7` SameValue
        CFI `VB.BR8` SameValue
        CFI `VB.BR9` SameValue
        CFI `VB.BR10` SameValue
        CFI `VB.BR11` SameValue
        CFI `VB.BR12` SameValue
        CFI `VB.BR13` SameValue
        CFI `VB.BR14` SameValue
        CFI `VB.BR15` SameValue
        CFI VB SameValue
        CFI B Undefined
        CFI A Undefined
        CFI PSW SameValue
        CFI DPL0 SameValue
        CFI DPH0 SameValue
        CFI R0 Undefined
        CFI R1 Undefined
        CFI R2 Undefined
        CFI R3 Undefined
        CFI R4 Undefined
        CFI R5 Undefined
        CFI R6 SameValue
        CFI R7 SameValue
        CFI V0 SameValue
        CFI V1 SameValue
        CFI V2 SameValue
        CFI V3 SameValue
        CFI V4 SameValue
        CFI V5 SameValue
        CFI V6 SameValue
        CFI V7 SameValue
        CFI V8 SameValue
        CFI V9 SameValue
        CFI V10 SameValue
        CFI V11 SameValue
        CFI V12 SameValue
        CFI V13 SameValue
        CFI V14 SameValue
        CFI V15 SameValue
        CFI PSPH Undefined
        CFI PSPL Undefined
        CFI XSPH Undefined
        CFI XSPL Undefined
        CFI ?RET Concat
        CFI ?BRET_EXT Frame(CFA_SP, 3)
        CFI ?RET_HIGH Frame(CFA_SP, 2)
        CFI ?RET_LOW Frame(CFA_SP, 1)
        CFI EndCommon cfiCommon0
        
MT_ZdoInit          SYMBOL "MT_ZdoInit"
MT_SysResetInd      SYMBOL "MT_SysResetInd"
osal_memcpy         SYMBOL "osal_memcpy"
MT_TransportAlloc   SYMBOL "MT_TransportAlloc"
MT_TransportSend    SYMBOL "MT_TransportSend"
afFindEndPointDesc  SYMBOL "afFindEndPointDesc"
osal_mem_alloc      SYMBOL "osal_mem_alloc"
osal_mem_free       SYMBOL "osal_mem_free"
`?<Name MT_SysCommandProcess 8>` SYMBOL "MT_SysCommandProcessing"
??MT_SysCommandProcessing?relay SYMBOL "?relay", `?<Name MT_SysCommandProcess 8>`
??MT_SysResetInd?relay SYMBOL "?relay", MT_SysResetInd
??MT_TransportAlloc?relay SYMBOL "?relay", MT_TransportAlloc
??MT_TransportSend?relay SYMBOL "?relay", MT_TransportSend
`?<Name MT_ZdoCommandProcess 13>` SYMBOL "MT_ZdoCommandProcessing"
??MT_ZdoCommandProcessing?relay SYMBOL "?relay", `?<Name MT_ZdoCommandProcess 13>`
??MT_ZdoInit?relay  SYMBOL "?relay", MT_ZdoInit
??afFindEndPointDesc?relay SYMBOL "?relay", afFindEndPointDesc
??osal_mem_alloc?relay SYMBOL "?relay", osal_mem_alloc
??osal_mem_free?relay SYMBOL "?relay", osal_mem_free
??osal_memcpy?relay SYMBOL "?relay", osal_memcpy
MTProcessAppRspMsg  SYMBOL "MTProcessAppRspMsg"
??MTProcessAppRspMsg?relay SYMBOL "?relay", MTProcessAppRspMsg
MT_BuildAndSendZToolResponse SYMBOL "MT_BuildAndSendZToolResponse"
??MT_BuildAndSendZToolResponse?relay SYMBOL "?relay", MT_BuildAndSendZToolResponse
MT_BuildEndpointDesc SYMBOL "MT_BuildEndpointDesc"
??MT_BuildEndpointDesc?relay SYMBOL "?relay", MT_BuildEndpointDesc
MT_BuildSPIMsg      SYMBOL "MT_BuildSPIMsg"
??MT_BuildSPIMsg?relay SYMBOL "?relay", MT_BuildSPIMsg
MT_Init             SYMBOL "MT_Init"
??MT_Init?relay     SYMBOL "?relay", MT_Init
MT_ProcessIncoming  SYMBOL "MT_ProcessIncoming"
??MT_ProcessIncoming?relay SYMBOL "?relay", MT_ProcessIncoming
MT_ReverseBytes     SYMBOL "MT_ReverseBytes"
??MT_ReverseBytes?relay SYMBOL "?relay", MT_ReverseBytes
MT_Word2Buf         SYMBOL "MT_Word2Buf"
??MT_Word2Buf?relay SYMBOL "?relay", MT_Word2Buf

        EXTERN MT_ZdoInit
        FUNCTION MT_ZdoInit,0202H
        ARGFRAME ISTACK, 0, STACK
        ARGFRAME PSTACK, 0, STACK
        ARGFRAME XSTACK, 9, STACK
        ARGFRAME IOVERLAY, 0, STATIC
        ARGFRAME DOVERLAY, 0, STATIC
        EXTERN MT_SysResetInd
        FUNCTION MT_SysResetInd,0202H
        ARGFRAME ISTACK, 0, STACK
        ARGFRAME PSTACK, 0, STACK
        ARGFRAME XSTACK, 9, STACK
        ARGFRAME IOVERLAY, 0, STATIC
        ARGFRAME DOVERLAY, 0, STATIC
        EXTERN osal_memcpy
        FUNCTION osal_memcpy,0202H
        ARGFRAME ISTACK, 0, STACK
        ARGFRAME PSTACK, 0, STACK
        ARGFRAME XSTACK, 19, STACK
        ARGFRAME IOVERLAY, 0, STATIC
        ARGFRAME DOVERLAY, 0, STATIC
        EXTERN MT_TransportAlloc
        FUNCTION MT_TransportAlloc,0202H
        ARGFRAME ISTACK, 0, STACK
        ARGFRAME PSTACK, 0, STACK
        ARGFRAME XSTACK, 16, STACK
        ARGFRAME IOVERLAY, 0, STATIC
        ARGFRAME DOVERLAY, 0, STATIC
        EXTERN MT_TransportSend
        FUNCTION MT_TransportSend,0202H
        ARGFRAME ISTACK, 0, STACK
        ARGFRAME PSTACK, 0, STACK
        ARGFRAME XSTACK, 16, STACK
        ARGFRAME IOVERLAY, 0, STATIC
        ARGFRAME DOVERLAY, 0, STATIC
        EXTERN afFindEndPointDesc
        FUNCTION afFindEndPointDesc,0202H
        ARGFRAME ISTACK, 0, STACK
        ARGFRAME PSTACK, 0, STACK
        ARGFRAME XSTACK, 14, STACK
        ARGFRAME IOVERLAY, 0, STATIC
        ARGFRAME DOVERLAY, 0, STATIC
        EXTERN osal_mem_alloc
        FUNCTION osal_mem_alloc,0202H
        ARGFRAME ISTACK, 0, STACK
        ARGFRAME PSTACK, 0, STACK
        ARGFRAME XSTACK, 14, STACK
        ARGFRAME IOVERLAY, 0, STATIC
        ARGFRAME DOVERLAY, 0, STATIC
        EXTERN osal_mem_free
        FUNCTION osal_mem_free,0202H
        ARGFRAME ISTACK, 0, STACK
        ARGFRAME PSTACK, 0, STACK
        ARGFRAME XSTACK, 14, STACK
        ARGFRAME IOVERLAY, 0, STATIC
        ARGFRAME DOVERLAY, 0, STATIC
        EXTERN ??MT_SysCommandProcessing?relay
        FUNCTION ??MT_SysCommandProcessing?relay,00H
        EXTERN ??MT_SysResetInd?relay
        FUNCTION ??MT_SysResetInd?relay,00H
        EXTERN ??MT_TransportAlloc?relay
        FUNCTION ??MT_TransportAlloc?relay,00H
        EXTERN ??MT_TransportSend?relay
        FUNCTION ??MT_TransportSend?relay,00H
        EXTERN ??MT_ZdoCommandProcessing?relay
        FUNCTION ??MT_ZdoCommandProcessing?relay,00H
        EXTERN ??MT_ZdoInit?relay
        FUNCTION ??MT_ZdoInit?relay,00H
        EXTERN ??afFindEndPointDesc?relay
        FUNCTION ??afFindEndPointDesc?relay,00H
        EXTERN ??osal_mem_alloc?relay
        FUNCTION ??osal_mem_alloc?relay,00H
        EXTERN ??osal_mem_free?relay
        FUNCTION ??osal_mem_free?relay,00H
        EXTERN ??osal_memcpy?relay
        FUNCTION ??osal_memcpy?relay,00H

// E:\³£ÓÃÄ£¿éÊµÑé\ZigBeeÍ¨ÐÅÊµÑé\3.ZigBeeÍøÂç´«Êä³¬Éù²¨Êý¾ÝÊµÑé\Components\mt\MT.c
//    1 /***************************************************************************************************
//    2   Filename:       MTEL.c
//    3   Revised:        $Date: 2009-10-28 00:05:19 -0700 (Wed, 28 Oct 2009) $
//    4   Revision:       $Revision: 20998 $
//    5 
//    6   Description:    MonitorTest Event Loop functions.  Everything in the
//    7                   MonitorTest Task (except the serial driver).
//    8 
//    9   Copyright 2007 Texas Instruments Incorporated. All rights reserved.
//   10 
//   11   IMPORTANT: Your use of this Software is limited to those specific rights
//   12   granted under the terms of a software license agreement between the user
//   13   who downloaded the software, his/her employer (which must be your employer)
//   14   and Texas Instruments Incorporated (the "License").  You may not use this
//   15   Software unless you agree to abide by the terms of the License. The License
//   16   limits your use, and you acknowledge, that the Software may not be modified,
//   17   copied or distributed unless embedded on a Texas Instruments microcontroller
//   18   or used solely and exclusively in conjunction with a Texas Instruments radio
//   19   frequency transceiver, which is integrated into your product.  Other than for
//   20   the foregoing purpose, you may not use, reproduce, copy, prepare derivative
//   21   works of, modify, distribute, perform, display or sell this Software and/or
//   22   its documentation for any purpose.
//   23 
//   24   YOU FURTHER ACKNOWLEDGE AND AGREE THAT THE SOFTWARE AND DOCUMENTATION ARE
//   25   PROVIDED “AS IS” WITHOUT WARRANTY OF ANY KIND, EITHER EXPRESS OR IMPLIED,
//   26   INCLUDING WITHOUT LIMITATION, ANY WARRANTY OF MERCHANTABILITY, TITLE,
//   27   NON-INFRINGEMENT AND FITNESS FOR A PARTICULAR PURPOSE. IN NO EVENT SHALL
//   28   TEXAS INSTRUMENTS OR ITS LICENSORS BE LIABLE OR OBLIGATED UNDER CONTRACT,
//   29   NEGLIGENCE, STRICT LIABILITY, CONTRIBUTION, BREACH OF WARRANTY, OR OTHER
//   30   LEGAL EQUITABLE THEORY ANY DIRECT OR INDIRECT DAMAGES OR EXPENSES
//   31   INCLUDING BUT NOT LIMITED TO ANY INCIDENTAL, SPECIAL, INDIRECT, PUNITIVE
//   32   OR CONSEQUENTIAL DAMAGES, LOST PROFITS OR LOST DATA, COST OF PROCUREMENT
//   33   OF SUBSTITUTE GOODS, TECHNOLOGY, SERVICES, OR ANY CLAIMS BY THIRD PARTIES
//   34   (INCLUDING BUT NOT LIMITED TO ANY DEFENSE THEREOF), OR OTHER SIMILAR COSTS.
//   35 
//   36   Should you have any questions regarding your right to use this Software,
//   37   contact Texas Instruments Incorporated at www.TI.com.
//   38 
//   39  ***************************************************************************************************/
//   40 
//   41 
//   42 /***************************************************************************************************
//   43  * INCLUDES
//   44  ***************************************************************************************************/
//   45 #include "ZComDef.h"
//   46 #include "MT.h"
//   47 #include "MT_APP.h"
//   48 #include "MT_DEBUG.h"
//   49 #include "MT_UTIL.h"
//   50 #include "MT_SYS.h"
//   51 #include "MT_SAPI.h"
//   52 #include "AF.h"
//   53 
//   54 #include "OnBoard.h"
//   55 #include "OSAL.h"
//   56 #include "OSAL_Memory.h"
//   57 #include "OSAL_Nv.h"
//   58 
//   59 #include "DebugTrace.h"
//   60 #include "ZMAC.h"
//   61 
//   62 #if !defined ( NONWK )
//   63   #include "NLMEDE.h"
//   64   #include "nwk_bufs.h"
//   65   #include "ZDObject.h"
//   66   #include "ssp.h"
//   67   #include "nwk_util.h"
//   68 #endif
//   69 
//   70 #if defined( MT_MAC_FUNC ) || defined( MT_MAC_CB_FUNC )
//   71   #include "MT_MAC.h"
//   72 #endif
//   73 #if defined( MT_NWK_FUNC ) || defined( MT_NWK_CB_FUNC )
//   74   #include "MT_NWK.h"
//   75   #include "nwk.h"
//   76   #include "nwk_bufs.h"
//   77 #endif
//   78 #if defined( MT_AF_FUNC ) || defined( MT_AF_CB_FUNC )
//   79   #include "MT_AF.h"
//   80 #endif
//   81 #if defined( MT_USER_TEST_FUNC )
//   82   #include "AF.h"
//   83 #endif
//   84 #if defined( MT_ZDO_FUNC )
//   85   #include "MT_ZDO.h"
//   86 #endif
//   87 #if defined (MT_SAPI_FUNC)
//   88 	#include "MT_SAPI.h"
//   89 #endif
//   90 #if defined( APP_TP )
//   91  #include "TestProfile.h"
//   92 #endif
//   93 #if defined( APP_TP2 )
//   94  #include "TestProfile2.h"
//   95 #endif
//   96 
//   97 #if defined(APP_TGEN)
//   98   #include "TrafficGenApp.h"
//   99 #endif
//  100 #if defined(APP_DEBUG)
//  101 	#include "DebugApp.h"
//  102 #endif
//  103 #if defined (NWK_TEST)
//  104 	#include "HWTTApp.h"
//  105 #endif
//  106 
//  107 /* HAL */
//  108 #include "hal_uart.h"
//  109 #include "hal_led.h"
//  110 #include "hal_key.h"
//  111 #include "MT_UART.h"
//  112 
//  113 /***************************************************************************************************
//  114  * MACROS
//  115  ***************************************************************************************************/
//  116 #define MTEL_DEBUG_INFO( nParams, p1, p2, p3 ) DEBUG_INFO( COMPID_MTEL, nParams, p1, p2, p3 )
//  117 
//  118 #define MT_ERROR_SRSP_LEN   3
//  119 
//  120 /***************************************************************************************************
//  121  * CONSTANTS
//  122  ***************************************************************************************************/

        RSEG XDATA_I:XDATA:NOROOT(0)
//  123 mtProcessMsg_t mtProcessIncoming[] =
mtProcessIncoming:
        DATA8
        DS 20
        REQUIRE `?<Initializer for mtProcessIncoming>`
        REQUIRE __INIT_XDATA_I
//  124 {
//  125   NULL,
//  126 
//  127 #if defined (MT_SYS_FUNC)
//  128   MT_SysCommandProcessing,
//  129 #else
//  130   NULL,
//  131 #endif
//  132 
//  133 #if defined (MT_MAC_FUNC)
//  134   MT_MacCommandProcessing,
//  135 #else
//  136   NULL,
//  137 #endif
//  138 
//  139 #if defined (MT_NWK_FUNC)
//  140   MT_NwkCommandProcessing,
//  141 #else
//  142   NULL,
//  143 #endif
//  144 
//  145 #if defined (MT_AF_FUNC)
//  146   MT_AfCommandProcessing,
//  147 #else
//  148   NULL,
//  149 #endif
//  150 
//  151 #if defined (MT_ZDO_FUNC)
//  152   MT_ZdoCommandProcessing,
//  153 #else
//  154   NULL,
//  155 #endif
//  156 
//  157 #if defined (MT_SAPI_FUNC)
//  158   MT_SapiCommandProcessing,
//  159 #else
//  160   NULL,
//  161 #endif
//  162 
//  163 #if defined (MT_UTIL_FUNC)
//  164   MT_UtilCommandProcessing,
//  165 #else
//  166   NULL,
//  167 #endif
//  168 
//  169 #if defined (MT_DEBUG_FUNC)
//  170   MT_DebugCommandProcessing,
//  171 #else
//  172   NULL,
//  173 #endif
//  174 
//  175 #if defined (MT_APP_FUNC)
//  176   MT_AppCommandProcessing,
//  177 #else
//  178   NULL,
//  179 #endif
//  180 
//  181 };
//  182 
//  183 /***************************************************************************************************
//  184  * TYPEDEFS
//  185  ***************************************************************************************************/
//  186 
//  187 /***************************************************************************************************
//  188  * GLOBAL VARIABLES
//  189  ***************************************************************************************************/

        RSEG XDATA_Z:XDATA:NOROOT(0)
        DATA16
//  190 UINT16 save_cmd;
save_cmd:
        DS 2
        REQUIRE __INIT_XDATA_Z
//  191 

        RSEG XDATA_Z:XDATA:NOROOT(0)
        DATA8
//  192 byte MT_TaskID;
MT_TaskID:
        DS 1
        REQUIRE __INIT_XDATA_Z

        RSEG XDATA_Z:XDATA:NOROOT(0)
        DATA8
//  193 byte debugThreshold;
debugThreshold:
        DS 1
        REQUIRE __INIT_XDATA_Z

        RSEG XDATA_Z:XDATA:NOROOT(0)
        DATA8
//  194 byte debugCompId;
debugCompId:
        DS 1
        REQUIRE __INIT_XDATA_Z
//  195 
//  196 /***************************************************************************************************
//  197  * EXTERNAL FUNCTIONS
//  198  ***************************************************************************************************/
//  199 extern unsigned int mac_sim_eventLoop( void );
//  200 
//  201 #ifdef MACSIM
//  202 extern void MACSIM_TranslateMsg( byte *buf, byte bLen );  /*  Used to pass Zignet message */
//  203 #endif
//  204 
//  205 
//  206 /***************************************************************************************************
//  207  * LOCAL VARIABLES
//  208  ***************************************************************************************************/
//  209 
//  210 /***************************************************************************************************
//  211  * LOCAL FUNCTIONS
//  212  ***************************************************************************************************/
//  213 void MT_MsgQueueInit( void );
//  214 void MT_ResetMsgQueue( void );
//  215 byte MT_QueueMsg( byte *msg , byte len );
//  216 void MT_ProcessQueue( void );
//  217 
//  218 #if defined ( MT_USER_TEST_FUNC )
//  219 void MT_ProcessAppUserCmd( byte *pData );
//  220 #endif
//  221 
//  222 /***************************************************************************************************
//  223  * @fn      MT_Init()
//  224  *
//  225  * @brief   Initialize MT.
//  226  *
//  227  * @param   uint8 taskId - taskId
//  228  *
//  229  * @return  void
//  230  ***************************************************************************************************/

        RSEG BANKED_CODE:CODE:NOROOT(0)
//  231 void MT_Init(uint8 taskID)
MT_Init:
        CFI Block cfiBlock0 Using cfiCommon0
        CFI Function MT_Init
        CODE
//  232 {
        FUNCALL MT_Init, MT_ZdoInit
        LOCFRAME ISTACK, 0, STACK
        LOCFRAME PSTACK, 0, STACK
        LOCFRAME XSTACK, 9, STACK
        LOCFRAME IOVERLAY, 0, STATIC
        LOCFRAME DOVERLAY, 0, STATIC
        ARGFRAME ISTACK, 0, STACK
        ARGFRAME PSTACK, 0, STACK
        ARGFRAME XSTACK, 9, STACK
        ARGFRAME IOVERLAY, 0, STATIC
        ARGFRAME DOVERLAY, 0, STATIC
        FUNCALL MT_Init, MT_SysResetInd
        LOCFRAME ISTACK, 0, STACK
        LOCFRAME PSTACK, 0, STACK
        LOCFRAME XSTACK, 9, STACK
        LOCFRAME IOVERLAY, 0, STATIC
        LOCFRAME DOVERLAY, 0, STATIC
        ARGFRAME ISTACK, 0, STACK
        ARGFRAME PSTACK, 0, STACK
        ARGFRAME XSTACK, 9, STACK
        ARGFRAME IOVERLAY, 0, STATIC
        ARGFRAME DOVERLAY, 0, STATIC
        MOV     A,#-0x9
        LCALL   ?BANKED_ENTER_XDATA
        CFI DPH0 load(1, XDATA, add(CFA_XSP16, literal(-1)))
        CFI DPL0 load(1, XDATA, add(CFA_XSP16, literal(-2)))
        CFI ?BRET_EXT load(1, XDATA, add(CFA_XSP16, literal(-3)))
        CFI ?RET_HIGH load(1, XDATA, add(CFA_XSP16, literal(-4)))
        CFI ?RET_LOW load(1, XDATA, add(CFA_XSP16, literal(-5)))
        CFI R7 load(1, XDATA, add(CFA_XSP16, literal(-6)))
        CFI V0 load(1, XDATA, add(CFA_XSP16, literal(-7)))
        CFI VB load(1, XDATA, add(CFA_XSP16, literal(-8)))
        CFI R6 load(1, XDATA, add(CFA_XSP16, literal(-9)))
        CFI CFA_SP SP+0
        CFI CFA_XSP16 add(XSP16, 9)
        ; Saved register size: 9
        ; Auto size: 0
        MOV     A,R1
//  233   MT_TaskID = taskID;
        MOV     DPTR,#MT_TaskID
        MOVX    @DPTR,A
//  234   debugThreshold = 0;
        MOV     DPTR,#debugThreshold
        CLR     A
        MOVX    @DPTR,A
//  235   debugCompId = 0;
        MOV     DPTR,#debugCompId
        MOVX    @DPTR,A
//  236   
//  237 #if defined (MT_ZDO_FUNC)
//  238   MT_ZdoInit();
        ; Setup parameters for call to function MT_ZdoInit
        LCALL   ??MT_ZdoInit?relay
//  239 #endif
//  240   MT_SysResetInd();
        ; Setup parameters for call to function MT_SysResetInd
        LCALL   ??MT_SysResetInd?relay
//  241 }
        MOV     R7,#0x1
        LJMP    ?BANKED_LEAVE_XDATA
        CFI EndBlock cfiBlock0
//  242 
//  243 /***************************************************************************************************
//  244  * @fn      MT_BuildSPIMsg
//  245  *
//  246  * @brief
//  247  *
//  248  *   Format an SPI message.
//  249  *
//  250  * @param   UINT16 cmd - command id
//  251  * @param   byte *msg - pointer to message buffer
//  252  * @param   byte dataLen - length of data field
//  253  * @param   byte *pData - pointer to data field
//  254  *
//  255  * @return  void
//  256  ***************************************************************************************************/

        RSEG BANKED_CODE:CODE:NOROOT(0)
//  257 void MT_BuildSPIMsg( uint8 cmdType, uint8 cmdId, byte *msg, byte dataLen, byte *pData )
MT_BuildSPIMsg:
        CFI Block cfiBlock1 Using cfiCommon0
        CFI Function MT_BuildSPIMsg
        CODE
//  258 {
        FUNCALL MT_BuildSPIMsg, osal_memcpy
        LOCFRAME ISTACK, 0, STACK
        LOCFRAME PSTACK, 0, STACK
        LOCFRAME XSTACK, 19, STACK
        LOCFRAME IOVERLAY, 0, STATIC
        LOCFRAME DOVERLAY, 0, STATIC
        ARGFRAME ISTACK, 0, STACK
        ARGFRAME PSTACK, 0, STACK
        ARGFRAME XSTACK, 19, STACK
        ARGFRAME IOVERLAY, 0, STATIC
        ARGFRAME DOVERLAY, 0, STATIC
        MOV     A,#-0x10
        LCALL   ?BANKED_ENTER_XDATA
        CFI DPH0 load(1, XDATA, add(CFA_XSP16, literal(-1)))
        CFI DPL0 load(1, XDATA, add(CFA_XSP16, literal(-2)))
        CFI ?BRET_EXT load(1, XDATA, add(CFA_XSP16, literal(-3)))
        CFI ?RET_HIGH load(1, XDATA, add(CFA_XSP16, literal(-4)))
        CFI ?RET_LOW load(1, XDATA, add(CFA_XSP16, literal(-5)))
        CFI R7 load(1, XDATA, add(CFA_XSP16, literal(-6)))
        CFI V7 load(1, XDATA, add(CFA_XSP16, literal(-7)))
        CFI V6 load(1, XDATA, add(CFA_XSP16, literal(-8)))
        CFI V5 load(1, XDATA, add(CFA_XSP16, literal(-9)))
        CFI V4 load(1, XDATA, add(CFA_XSP16, literal(-10)))
        CFI V3 load(1, XDATA, add(CFA_XSP16, literal(-11)))
        CFI V2 load(1, XDATA, add(CFA_XSP16, literal(-12)))
        CFI V1 load(1, XDATA, add(CFA_XSP16, literal(-13)))
        CFI V0 load(1, XDATA, add(CFA_XSP16, literal(-14)))
        CFI VB load(1, XDATA, add(CFA_XSP16, literal(-15)))
        CFI R6 load(1, XDATA, add(CFA_XSP16, literal(-16)))
        CFI CFA_SP SP+0
        CFI CFA_XSP16 add(XSP16, 16)
        ; Saved register size: 16
        ; Auto size: 0
        MOV     A,R4
        MOV     R6,A
        MOV     A,R5
        MOV     R7,A
        MOV     A,#0x10
        LCALL   ?XSTACK_DISP0_8
        MOVX    A,@DPTR
        MOV     ?V0 + 0,A
        INC     DPTR
        MOVX    A,@DPTR
        MOV     ?V0 + 1,A
//  259   /* Fill in the CMD and Data Length */
//  260   *msg++ = dataLen;
        MOV     DPL,R6
        MOV     DPH,R7
        MOV     A,R3
        MOVX    @DPTR,A
        INC     DPTR
//  261   *msg++ = cmdType;
        MOV     A,R1
        MOVX    @DPTR,A
        INC     DPTR
//  262   *msg++ = cmdId;
        MOV     A,R2
        MOVX    @DPTR,A
        INC     DPTR
        MOV     R6,DPL
        MOV     R7,DPH
//  263 
//  264   /* Fill in the data */
//  265   if ( pData )
        MOV     A,?V0 + 0
        ORL     A,?V0 + 1
        JZ      ??MT_BuildSPIMsg_0
//  266   {
//  267     osal_memcpy( msg, pData, dataLen );
        ; Setup parameters for call to function osal_memcpy
        MOV     ?V0 + 4,?V0 + 0
        MOV     ?V0 + 5,?V0 + 1
        MOV     ?V0 + 6,#0x0
        MOV     R0,#?V0 + 4
        LCALL   ?PUSH_XSTACK_I_THREE
        CFI CFA_XSP16 add(XSP16, 19)
        MOV     ?V0 + 0,R3
        MOV     R4,?V0 + 0
        MOV     R5,#0x0
        MOV     A,R6
        MOV     R2,A
        MOV     A,R7
        MOV     R3,A
        LCALL   ??osal_memcpy?relay
        MOV     A,#0x3
        LCALL   ?DEALLOC_XSTACK8
        CFI CFA_XSP16 add(XSP16, 16)
//  268   }
//  269 }
??MT_BuildSPIMsg_0:
        MOV     R7,#0x8
        LJMP    ?BANKED_LEAVE_XDATA
        CFI EndBlock cfiBlock1
//  270 
//  271 /***************************************************************************************************
//  272  * @fn      MT_BuildAndSendZToolResponse
//  273  *
//  274  * @brief   Build and send a ZTOOL msg
//  275  * @param   uint8 cmdType - include type and subsystem
//  276  *          uint8 cmdId - command ID
//  277  *          byte dataLen
//  278  *          byte *pData
//  279  *
//  280  * @return  void
//  281  ***************************************************************************************************/

        RSEG BANKED_CODE:CODE:NOROOT(0)
//  282 void MT_BuildAndSendZToolResponse(uint8 cmdType, uint8 cmdId, uint8 dataLen, uint8 *pData)
MT_BuildAndSendZToolResponse:
        CFI Block cfiBlock2 Using cfiCommon0
        CFI Function MT_BuildAndSendZToolResponse
        CODE
//  283 {
        FUNCALL MT_BuildAndSendZToolResponse, MT_TransportAlloc
        LOCFRAME ISTACK, 0, STACK
        LOCFRAME PSTACK, 0, STACK
        LOCFRAME XSTACK, 16, STACK
        LOCFRAME IOVERLAY, 0, STATIC
        LOCFRAME DOVERLAY, 0, STATIC
        ARGFRAME ISTACK, 0, STACK
        ARGFRAME PSTACK, 0, STACK
        ARGFRAME XSTACK, 16, STACK
        ARGFRAME IOVERLAY, 0, STATIC
        ARGFRAME DOVERLAY, 0, STATIC
        FUNCALL MT_BuildAndSendZToolResponse, MT_BuildSPIMsg
        LOCFRAME ISTACK, 0, STACK
        LOCFRAME PSTACK, 0, STACK
        LOCFRAME XSTACK, 18, STACK
        LOCFRAME IOVERLAY, 0, STATIC
        LOCFRAME DOVERLAY, 0, STATIC
        ARGFRAME ISTACK, 0, STACK
        ARGFRAME PSTACK, 0, STACK
        ARGFRAME XSTACK, 18, STACK
        ARGFRAME IOVERLAY, 0, STATIC
        ARGFRAME DOVERLAY, 0, STATIC
        FUNCALL MT_BuildAndSendZToolResponse, MT_TransportSend
        LOCFRAME ISTACK, 0, STACK
        LOCFRAME PSTACK, 0, STACK
        LOCFRAME XSTACK, 16, STACK
        LOCFRAME IOVERLAY, 0, STATIC
        LOCFRAME DOVERLAY, 0, STATIC
        ARGFRAME ISTACK, 0, STACK
        ARGFRAME PSTACK, 0, STACK
        ARGFRAME XSTACK, 16, STACK
        ARGFRAME IOVERLAY, 0, STATIC
        ARGFRAME DOVERLAY, 0, STATIC
        MOV     A,#-0x10
        LCALL   ?BANKED_ENTER_XDATA
        CFI DPH0 load(1, XDATA, add(CFA_XSP16, literal(-1)))
        CFI DPL0 load(1, XDATA, add(CFA_XSP16, literal(-2)))
        CFI ?BRET_EXT load(1, XDATA, add(CFA_XSP16, literal(-3)))
        CFI ?RET_HIGH load(1, XDATA, add(CFA_XSP16, literal(-4)))
        CFI ?RET_LOW load(1, XDATA, add(CFA_XSP16, literal(-5)))
        CFI R7 load(1, XDATA, add(CFA_XSP16, literal(-6)))
        CFI V7 load(1, XDATA, add(CFA_XSP16, literal(-7)))
        CFI V6 load(1, XDATA, add(CFA_XSP16, literal(-8)))
        CFI V5 load(1, XDATA, add(CFA_XSP16, literal(-9)))
        CFI V4 load(1, XDATA, add(CFA_XSP16, literal(-10)))
        CFI V3 load(1, XDATA, add(CFA_XSP16, literal(-11)))
        CFI V2 load(1, XDATA, add(CFA_XSP16, literal(-12)))
        CFI V1 load(1, XDATA, add(CFA_XSP16, literal(-13)))
        CFI V0 load(1, XDATA, add(CFA_XSP16, literal(-14)))
        CFI VB load(1, XDATA, add(CFA_XSP16, literal(-15)))
        CFI R6 load(1, XDATA, add(CFA_XSP16, literal(-16)))
        CFI CFA_SP SP+0
        CFI CFA_XSP16 add(XSP16, 16)
        ; Saved register size: 16
        ; Auto size: 0
        MOV     ?V0 + 1,R1
        MOV     ?V0 + 4,R2
        MOV     ?V0 + 0,R3
        MOV     ?V0 + 2,R4
        MOV     ?V0 + 3,R5
//  284   uint8 *msg_ptr;
//  285 
//  286   /* Allocate memory including SOP and FCS */
//  287   msg_ptr = MT_TransportAlloc((mtRpcCmdType_t)(cmdType & 0xE0), dataLen);
        ; Setup parameters for call to function MT_TransportAlloc
        MOV     R2,?V0 + 0
        MOV     A,#-0x20
        ANL     A,?V0 + 1
        MOV     R1,A
        LCALL   ??MT_TransportAlloc?relay
        MOV     ?V0 + 6,R2
        MOV     ?V0 + 7,R3
        MOV     R6,?V0 + 6
        MOV     R7,?V0 + 7
//  288 
//  289   if (msg_ptr)
        MOV     A,R6
        ORL     A,R7
        JZ      ??MT_BuildAndSendZToolResponse_0
//  290   {
//  291     /* Build the message */
//  292     MT_BuildSPIMsg(cmdType, cmdId, msg_ptr, dataLen, pData);
        ; Setup parameters for call to function MT_BuildSPIMsg
        MOV     R0,#?V0 + 2
        LCALL   ?PUSH_XSTACK_I_TWO
        CFI CFA_XSP16 add(XSP16, 18)
        MOV     R3,?V0 + 0
        MOV     A,R6
        MOV     R4,A
        MOV     A,R7
        MOV     R5,A
        MOV     R2,?V0 + 4
        MOV     R1,?V0 + 1
        LCALL   ??MT_BuildSPIMsg?relay
        MOV     A,#0x2
        LCALL   ?DEALLOC_XSTACK8
        CFI CFA_XSP16 add(XSP16, 16)
//  293     /* Send out the msg */
//  294     MT_TransportSend(msg_ptr);
        ; Setup parameters for call to function MT_TransportSend
        MOV     A,R6
        MOV     R2,A
        MOV     A,R7
        MOV     R3,A
        LCALL   ??MT_TransportSend?relay
//  295   }
//  296 }
??MT_BuildAndSendZToolResponse_0:
        MOV     R7,#0x8
        LJMP    ?BANKED_LEAVE_XDATA
        CFI EndBlock cfiBlock2
//  297 
//  298 /***************************************************************************************************
//  299  * @fn      MT_ProcessIncoming
//  300  *
//  301  * @brief  Process Incoming Message.
//  302  *
//  303  * @param   byte *pBuf - pointer to event message
//  304  *
//  305  * @return  void
//  306  ***************************************************************************************************/

        RSEG BANKED_CODE:CODE:NOROOT(0)
//  307 void MT_ProcessIncoming(uint8 *pBuf)
MT_ProcessIncoming:
        CFI Block cfiBlock3 Using cfiCommon0
        CFI Function MT_ProcessIncoming
        CODE
//  308 {
        FUNCALL MT_ProcessIncoming, MT_BuildAndSendZToolResponse
        LOCFRAME ISTACK, 0, STACK
        LOCFRAME PSTACK, 0, STACK
        LOCFRAME XSTACK, 13, STACK
        LOCFRAME IOVERLAY, 0, STATIC
        LOCFRAME DOVERLAY, 0, STATIC
        ARGFRAME ISTACK, 0, STACK
        ARGFRAME PSTACK, 0, STACK
        ARGFRAME XSTACK, 13, STACK
        ARGFRAME IOVERLAY, 0, STATIC
        ARGFRAME DOVERLAY, 0, STATIC
        MOV     A,#-0xa
        LCALL   ?BANKED_ENTER_XDATA
        CFI DPH0 load(1, XDATA, add(CFA_XSP16, literal(-1)))
        CFI DPL0 load(1, XDATA, add(CFA_XSP16, literal(-2)))
        CFI ?BRET_EXT load(1, XDATA, add(CFA_XSP16, literal(-3)))
        CFI ?RET_HIGH load(1, XDATA, add(CFA_XSP16, literal(-4)))
        CFI ?RET_LOW load(1, XDATA, add(CFA_XSP16, literal(-5)))
        CFI R7 load(1, XDATA, add(CFA_XSP16, literal(-6)))
        CFI V1 load(1, XDATA, add(CFA_XSP16, literal(-7)))
        CFI V0 load(1, XDATA, add(CFA_XSP16, literal(-8)))
        CFI VB load(1, XDATA, add(CFA_XSP16, literal(-9)))
        CFI R6 load(1, XDATA, add(CFA_XSP16, literal(-10)))
        CFI CFA_SP SP+0
        CFI CFA_XSP16 add(XSP16, 10)
        ; Saved register size: 10
        ; Auto size: 3
        MOV     A,#-0x3
        LCALL   ?ALLOC_XSTACK8
        CFI CFA_XSP16 add(XSP16, 13)
//  309   mtProcessMsg_t  func;
//  310   uint8           rsp[MT_ERROR_SRSP_LEN];
//  311 
//  312   /* pre-build response message:  | status | cmd0 | cmd1 | */
//  313   rsp[1] = pBuf[MT_RPC_POS_CMD0];
        MOV     DPL,R2
        MOV     DPH,R3
        INC     DPTR
        MOVX    A,@DPTR
        MOV     ?V0 + 0,A
        MOV     A,#0x1
        LCALL   ?XSTACK_DISP0_8
        MOV     A,?V0 + 0
        MOVX    @DPTR,A
//  314   rsp[2] = pBuf[MT_RPC_POS_CMD1];
        MOV     DPL,R2
        MOV     DPH,R3
        INC     DPTR
        INC     DPTR
        MOVX    A,@DPTR
        PUSH    A
        CFI CFA_SP SP+-1
        MOV     A,#0x2
        LCALL   ?XSTACK_DISP0_8
        POP     A
        CFI CFA_SP SP+0
        MOVX    @DPTR,A
//  315 
//  316   /* check length */
//  317   if (pBuf[MT_RPC_POS_LEN] > MT_RPC_DATA_MAX)
        MOV     DPL,R2
        MOV     DPH,R3
        MOVX    A,@DPTR
        CLR     C
        SUBB    A,#-0x2
        JC      ??MT_ProcessIncoming_0
//  318   {
//  319     rsp[0] = MT_RPC_ERR_LENGTH;
        MOV     DPL,?XSP + 0
        MOV     DPH,?XSP + 1
        MOV     A,#0x4
        SJMP    ??MT_ProcessIncoming_1
//  320   }
//  321   /* check subsystem range */
//  322   else if ((rsp[1] & MT_RPC_SUBSYSTEM_MASK) < MT_RPC_SYS_MAX)
??MT_ProcessIncoming_0:
        MOV     A,#0x1f
        ANL     A,?V0 + 0
        CLR     C
        SUBB    A,#0xa
        JNC     ??MT_ProcessIncoming_2
//  323   {
//  324     /* look up processing function */
//  325     func = mtProcessIncoming[rsp[1] & MT_RPC_SUBSYSTEM_MASK];
        MOV     A,?V0 + 0
        ANL     A,#0x1f
        CLR     C
        RLC     A
        MOV     R0,A
        MOV     A,#mtProcessIncoming & 0xff
        ADD     A,R0
        MOV     DPL,A
        MOV     A,#(mtProcessIncoming >> 8) & 0xff
        ADDC    A,#0x0
        MOV     DPH,A
        MOVX    A,@DPTR
        MOV     R0,A
        INC     DPTR
        MOVX    A,@DPTR
        MOV     R1,A
        MOV     DPL,R0
        MOV     DPH,R1
//  326     if (func)
        MOV     A,DPL
        ORL     A,DPH
        JZ      ??MT_ProcessIncoming_2
//  327     {
//  328       /* execute processing function */
//  329       rsp[0] = (*func)(pBuf);
        ; Setup parameters for indirect call
        LCALL   ?CALL_IND
        MOV     A,R1
        MOV     DPL,?XSP + 0
        MOV     DPH,?XSP + 1
        SJMP    ??MT_ProcessIncoming_1
//  330     }
//  331     else
//  332     {
//  333       rsp[0] = MT_RPC_ERR_SUBSYSTEM;
??MT_ProcessIncoming_2:
        MOV     DPL,?XSP + 0
        MOV     DPH,?XSP + 1
        MOV     A,#0x1
??MT_ProcessIncoming_1:
        MOVX    @DPTR,A
//  334     }
//  335   }
//  336   else
//  337   {
//  338     rsp[0] = MT_RPC_ERR_SUBSYSTEM;
//  339   }
//  340 
//  341   /* if error and this was an SREQ, send error message */
//  342   if ((rsp[0] != MT_RPC_SUCCESS) && ((rsp[1] & MT_RPC_CMD_TYPE_MASK) == MT_RPC_CMD_SREQ))
        MOVX    A,@DPTR
        JZ      ??MT_ProcessIncoming_3
        MOV     A,#0x1
        LCALL   ?XSTACK_DISP0_8
        MOVX    A,@DPTR
        ANL     A,#0xe0
        XRL     A,#0x20
        JNZ     ??MT_ProcessIncoming_3
//  343   {
//  344     MT_BuildAndSendZToolResponse(((uint8)MT_RPC_CMD_SRSP | (uint8)MT_RPC_SYS_RES0), 0, MT_ERROR_SRSP_LEN, rsp);
        ; Setup parameters for call to function MT_BuildAndSendZToolResponse
        MOV     DPL,?XSP + 0
        MOV     DPH,?XSP + 1
        MOV     R4,DPL
        MOV     R5,DPH
        MOV     R3,#0x3
        MOV     R2,#0x0
        MOV     R1,#0x60
        LCALL   ??MT_BuildAndSendZToolResponse?relay
//  345   }
//  346 }
??MT_ProcessIncoming_3:
        MOV     A,#0x3
        LCALL   ?DEALLOC_XSTACK8
        CFI CFA_XSP16 add(XSP16, 10)
        MOV     R7,#0x2
        LJMP    ?BANKED_LEAVE_XDATA
        CFI EndBlock cfiBlock3
//  347 
//  348 
//  349 /***************************************************************************************************
//  350  * @fn      MTProcessAppRspMsg
//  351  *
//  352  * @brief   Process the User App Response Message
//  353  *
//  354  * @param   data - output serial buffer.  The first byte must be the
//  355  *          endpoint that send this message.
//  356  * @param   len - data length
//  357  *
//  358  * @return  none
//  359  ***************************************************************************************************/

        RSEG BANKED_CODE:CODE:NOROOT(0)
//  360 void MTProcessAppRspMsg( byte *pData, byte len )
MTProcessAppRspMsg:
        CFI Block cfiBlock4 Using cfiCommon0
        CFI Function MTProcessAppRspMsg
        CODE
//  361 {
        FUNCALL MTProcessAppRspMsg, MT_BuildAndSendZToolResponse
        LOCFRAME ISTACK, 0, STACK
        LOCFRAME PSTACK, 0, STACK
        LOCFRAME XSTACK, 9, STACK
        LOCFRAME IOVERLAY, 0, STATIC
        LOCFRAME DOVERLAY, 0, STATIC
        ARGFRAME ISTACK, 0, STACK
        ARGFRAME PSTACK, 0, STACK
        ARGFRAME XSTACK, 9, STACK
        ARGFRAME IOVERLAY, 0, STATIC
        ARGFRAME DOVERLAY, 0, STATIC
        MOV     A,#-0x9
        LCALL   ?BANKED_ENTER_XDATA
        CFI DPH0 load(1, XDATA, add(CFA_XSP16, literal(-1)))
        CFI DPL0 load(1, XDATA, add(CFA_XSP16, literal(-2)))
        CFI ?BRET_EXT load(1, XDATA, add(CFA_XSP16, literal(-3)))
        CFI ?RET_HIGH load(1, XDATA, add(CFA_XSP16, literal(-4)))
        CFI ?RET_LOW load(1, XDATA, add(CFA_XSP16, literal(-5)))
        CFI R7 load(1, XDATA, add(CFA_XSP16, literal(-6)))
        CFI V0 load(1, XDATA, add(CFA_XSP16, literal(-7)))
        CFI VB load(1, XDATA, add(CFA_XSP16, literal(-8)))
        CFI R6 load(1, XDATA, add(CFA_XSP16, literal(-9)))
        CFI CFA_SP SP+0
        CFI CFA_XSP16 add(XSP16, 9)
        ; Saved register size: 9
        ; Auto size: 0
        MOV     A,R2
        MOV     R4,A
        MOV     A,R3
        MOV     R5,A
        MOV     A,R1
//  362   /* Send out Reset Response message */
//  363   MT_BuildAndSendZToolResponse( ((uint8)MT_RPC_CMD_SRSP | (uint8)MT_RPC_SYS_APP), MT_APP_RSP, len, pData );
        ; Setup parameters for call to function MT_BuildAndSendZToolResponse
        MOV     R3,A
        MOV     R2,#-0x80
        MOV     R1,#0x69
        LCALL   ??MT_BuildAndSendZToolResponse?relay
//  364 }
        MOV     R7,#0x1
        LJMP    ?BANKED_LEAVE_XDATA
        CFI EndBlock cfiBlock4
//  365 
//  366 
//  367 /***************************************************************************************************
//  368  * @fn      MT_ReverseBytes
//  369  *
//  370  * @brief
//  371  *
//  372  *   Reverses bytes within an array
//  373  *
//  374  * @param   data - ptr to data buffer to reverse
//  375  * @param    len - number of bytes in buffer
//  376  *
//  377  * @return  void
//  378  ***************************************************************************************************/

        RSEG BANKED_CODE:CODE:NOROOT(0)
//  379 void MT_ReverseBytes( byte *pData, byte len )
MT_ReverseBytes:
        CFI Block cfiBlock5 Using cfiCommon0
        CFI Function MT_ReverseBytes
        CODE
//  380 {
        MOV     A,#-0xc
        LCALL   ?BANKED_ENTER_XDATA
        CFI DPH0 load(1, XDATA, add(CFA_XSP16, literal(-1)))
        CFI DPL0 load(1, XDATA, add(CFA_XSP16, literal(-2)))
        CFI ?BRET_EXT load(1, XDATA, add(CFA_XSP16, literal(-3)))
        CFI ?RET_HIGH load(1, XDATA, add(CFA_XSP16, literal(-4)))
        CFI ?RET_LOW load(1, XDATA, add(CFA_XSP16, literal(-5)))
        CFI R7 load(1, XDATA, add(CFA_XSP16, literal(-6)))
        CFI V3 load(1, XDATA, add(CFA_XSP16, literal(-7)))
        CFI V2 load(1, XDATA, add(CFA_XSP16, literal(-8)))
        CFI V1 load(1, XDATA, add(CFA_XSP16, literal(-9)))
        CFI V0 load(1, XDATA, add(CFA_XSP16, literal(-10)))
        CFI VB load(1, XDATA, add(CFA_XSP16, literal(-11)))
        CFI R6 load(1, XDATA, add(CFA_XSP16, literal(-12)))
        CFI CFA_SP SP+0
        CFI CFA_XSP16 add(XSP16, 12)
        ; Saved register size: 12
        ; Auto size: 0
        MOV     A,R1
        MOV     R6,A
//  381   byte i,j;
//  382   byte temp;
//  383 
//  384   for ( i = 0, j = len-1; len > 1; len-=2 )
        MOV     ?V0 + 2,#0x0
        MOV     A,#-0x1
        ADD     A,R6
        MOV     R7,A
        SJMP    ??MT_ReverseBytes_0
//  385   {
//  386     temp = pData[i];
??MT_ReverseBytes_1:
        MOV     ?V0 + 0,?V0 + 2
        MOV     A,R2
        ADD     A,?V0 + 0
        MOV     R0,A
        MOV     A,R3
        ADDC    A,#0x0
        MOV     R1,A
        MOV     DPL,R0
        MOV     DPH,R1
        MOVX    A,@DPTR
        MOV     ?V0 + 3,A
//  387     pData[i++] = pData[j];
        MOV     ?V0 + 0,R7
        MOV     A,R2
        ADD     A,?V0 + 0
        MOV     R4,A
        MOV     A,R3
        ADDC    A,#0x0
        MOV     R5,A
        MOV     DPL,R4
        MOV     DPH,R5
        MOVX    A,@DPTR
        MOV     DPL,R0
        MOV     DPH,R1
        MOVX    @DPTR,A
        INC     ?V0 + 2
//  388     pData[j--] = temp;
        MOV     DPL,R4
        MOV     DPH,R5
        MOV     A,?V0 + 3
        MOVX    @DPTR,A
        DEC     R7
//  389   }
        DEC     R6
        DEC     R6
??MT_ReverseBytes_0:
        MOV     A,R6
        CLR     C
        SUBB    A,#0x2
        JNC     ??MT_ReverseBytes_1
//  390 }
        MOV     R7,#0x4
        LJMP    ?BANKED_LEAVE_XDATA
        CFI EndBlock cfiBlock5
//  391 
//  392 
//  393 /***************************************************************************************************
//  394  * @fn      MT_Word2Buf
//  395  *
//  396  * @brief   Copy a uint16 array to a byte array, little endian.
//  397  *
//  398  * @param   pBuf - byte array
//  399  * @param   pWord - uint16 array
//  400  * @param   len - length of uint16 array
//  401  *
//  402  * @return  pointer to end of byte array
//  403  ***************************************************************************************************/

        RSEG BANKED_CODE:CODE:NOROOT(0)
//  404 uint8 *MT_Word2Buf( uint8 *pBuf, uint16 *pWord, uint8 len )
MT_Word2Buf:
        CFI Block cfiBlock6 Using cfiCommon0
        CFI Function MT_Word2Buf
        CODE
//  405 {
        MOV     A,#-0x9
        LCALL   ?BANKED_ENTER_XDATA
        CFI DPH0 load(1, XDATA, add(CFA_XSP16, literal(-1)))
        CFI DPL0 load(1, XDATA, add(CFA_XSP16, literal(-2)))
        CFI ?BRET_EXT load(1, XDATA, add(CFA_XSP16, literal(-3)))
        CFI ?RET_HIGH load(1, XDATA, add(CFA_XSP16, literal(-4)))
        CFI ?RET_LOW load(1, XDATA, add(CFA_XSP16, literal(-5)))
        CFI R7 load(1, XDATA, add(CFA_XSP16, literal(-6)))
        CFI V0 load(1, XDATA, add(CFA_XSP16, literal(-7)))
        CFI VB load(1, XDATA, add(CFA_XSP16, literal(-8)))
        CFI R6 load(1, XDATA, add(CFA_XSP16, literal(-9)))
        CFI CFA_SP SP+0
        CFI CFA_XSP16 add(XSP16, 9)
        ; Saved register size: 9
        ; Auto size: 0
        SJMP    ??MT_Word2Buf_0
//  406   while ( len-- > 0 )
//  407   {
//  408     *pBuf++ = LO_UINT16( *pWord );
??MT_Word2Buf_1:
        MOV     DPL,R4
        MOV     DPH,R5
        MOVX    A,@DPTR
        MOV     DPL,R2
        MOV     DPH,R3
        MOVX    @DPTR,A
        INC     DPTR
        MOV     R2,DPL
        MOV     R3,DPH
//  409     *pBuf++ = HI_UINT16( *pWord );
        MOV     DPL,R4
        MOV     DPH,R5
        INC     DPTR
        MOVX    A,@DPTR
        MOV     DPL,R2
        MOV     DPH,R3
        MOVX    @DPTR,A
        INC     DPTR
        INC     R2
        MOV     R3,DPH
//  410     pWord++;
        MOV     A,R4
        ADD     A,#0x2
        INC     R4
        INC     R4
        MOV     A,R5
        ADDC    A,#0x0
        MOV     R5,A
//  411   }
??MT_Word2Buf_0:
        MOV     A,R1
        MOV     R0,A
        MOV     A,#-0x1
        ADD     A,R0
        DEC     R1
        INC     A
        JNZ     ??MT_Word2Buf_1
//  412 
//  413   return pBuf;
        MOV     R7,#0x1
        LJMP    ?BANKED_LEAVE_XDATA
        CFI EndBlock cfiBlock6
//  414 }
//  415 /***************************************************************************************************
//  416  * @fn      MT_BuildEndpointDesc
//  417  *
//  418  * @brief   Build endpoint descriptor and simple descriptor structure from incoming buffer
//  419  *
//  420  * @param   pBuf - byte array
//  421  *
//  422  * @return  epDesc - pointer to the endpoint descriptor
//  423  ***************************************************************************************************/

        RSEG BANKED_CODE:CODE:NOROOT(0)
//  424 uint8 MT_BuildEndpointDesc( uint8 *pBuf, void *param )
MT_BuildEndpointDesc:
        CFI Block cfiBlock7 Using cfiCommon0
        CFI Function MT_BuildEndpointDesc
        CODE
//  425 {
        FUNCALL MT_BuildEndpointDesc, afFindEndPointDesc
        LOCFRAME ISTACK, 0, STACK
        LOCFRAME PSTACK, 0, STACK
        LOCFRAME XSTACK, 14, STACK
        LOCFRAME IOVERLAY, 0, STATIC
        LOCFRAME DOVERLAY, 0, STATIC
        ARGFRAME ISTACK, 0, STACK
        ARGFRAME PSTACK, 0, STACK
        ARGFRAME XSTACK, 14, STACK
        ARGFRAME IOVERLAY, 0, STATIC
        ARGFRAME DOVERLAY, 0, STATIC
        FUNCALL MT_BuildEndpointDesc, osal_mem_alloc
        LOCFRAME ISTACK, 0, STACK
        LOCFRAME PSTACK, 0, STACK
        LOCFRAME XSTACK, 14, STACK
        LOCFRAME IOVERLAY, 0, STATIC
        LOCFRAME DOVERLAY, 0, STATIC
        ARGFRAME ISTACK, 0, STACK
        ARGFRAME PSTACK, 0, STACK
        ARGFRAME XSTACK, 14, STACK
        ARGFRAME IOVERLAY, 0, STATIC
        ARGFRAME DOVERLAY, 0, STATIC
        FUNCALL MT_BuildEndpointDesc, osal_mem_alloc
        LOCFRAME ISTACK, 0, STACK
        LOCFRAME PSTACK, 0, STACK
        LOCFRAME XSTACK, 14, STACK
        LOCFRAME IOVERLAY, 0, STATIC
        LOCFRAME DOVERLAY, 0, STATIC
        ARGFRAME ISTACK, 0, STACK
        ARGFRAME PSTACK, 0, STACK
        ARGFRAME XSTACK, 14, STACK
        ARGFRAME IOVERLAY, 0, STATIC
        ARGFRAME DOVERLAY, 0, STATIC
        FUNCALL MT_BuildEndpointDesc, osal_mem_alloc
        LOCFRAME ISTACK, 0, STACK
        LOCFRAME PSTACK, 0, STACK
        LOCFRAME XSTACK, 14, STACK
        LOCFRAME IOVERLAY, 0, STATIC
        LOCFRAME DOVERLAY, 0, STATIC
        ARGFRAME ISTACK, 0, STACK
        ARGFRAME PSTACK, 0, STACK
        ARGFRAME XSTACK, 14, STACK
        ARGFRAME IOVERLAY, 0, STATIC
        ARGFRAME DOVERLAY, 0, STATIC
        FUNCALL MT_BuildEndpointDesc, osal_mem_free
        LOCFRAME ISTACK, 0, STACK
        LOCFRAME PSTACK, 0, STACK
        LOCFRAME XSTACK, 14, STACK
        LOCFRAME IOVERLAY, 0, STATIC
        LOCFRAME DOVERLAY, 0, STATIC
        ARGFRAME ISTACK, 0, STACK
        ARGFRAME PSTACK, 0, STACK
        ARGFRAME XSTACK, 14, STACK
        ARGFRAME IOVERLAY, 0, STATIC
        ARGFRAME DOVERLAY, 0, STATIC
        FUNCALL MT_BuildEndpointDesc, osal_mem_free
        LOCFRAME ISTACK, 0, STACK
        LOCFRAME PSTACK, 0, STACK
        LOCFRAME XSTACK, 14, STACK
        LOCFRAME IOVERLAY, 0, STATIC
        LOCFRAME DOVERLAY, 0, STATIC
        ARGFRAME ISTACK, 0, STACK
        ARGFRAME PSTACK, 0, STACK
        ARGFRAME XSTACK, 14, STACK
        ARGFRAME IOVERLAY, 0, STATIC
        ARGFRAME DOVERLAY, 0, STATIC
        FUNCALL MT_BuildEndpointDesc, osal_mem_free
        LOCFRAME ISTACK, 0, STACK
        LOCFRAME PSTACK, 0, STACK
        LOCFRAME XSTACK, 14, STACK
        LOCFRAME IOVERLAY, 0, STATIC
        LOCFRAME DOVERLAY, 0, STATIC
        ARGFRAME ISTACK, 0, STACK
        ARGFRAME PSTACK, 0, STACK
        ARGFRAME XSTACK, 14, STACK
        ARGFRAME IOVERLAY, 0, STATIC
        ARGFRAME DOVERLAY, 0, STATIC
        MOV     A,#-0xe
        LCALL   ?BANKED_ENTER_XDATA
        CFI DPH0 load(1, XDATA, add(CFA_XSP16, literal(-1)))
        CFI DPL0 load(1, XDATA, add(CFA_XSP16, literal(-2)))
        CFI ?BRET_EXT load(1, XDATA, add(CFA_XSP16, literal(-3)))
        CFI ?RET_HIGH load(1, XDATA, add(CFA_XSP16, literal(-4)))
        CFI ?RET_LOW load(1, XDATA, add(CFA_XSP16, literal(-5)))
        CFI R7 load(1, XDATA, add(CFA_XSP16, literal(-6)))
        CFI V5 load(1, XDATA, add(CFA_XSP16, literal(-7)))
        CFI V4 load(1, XDATA, add(CFA_XSP16, literal(-8)))
        CFI V3 load(1, XDATA, add(CFA_XSP16, literal(-9)))
        CFI V2 load(1, XDATA, add(CFA_XSP16, literal(-10)))
        CFI V1 load(1, XDATA, add(CFA_XSP16, literal(-11)))
        CFI V0 load(1, XDATA, add(CFA_XSP16, literal(-12)))
        CFI VB load(1, XDATA, add(CFA_XSP16, literal(-13)))
        CFI R6 load(1, XDATA, add(CFA_XSP16, literal(-14)))
        CFI CFA_SP SP+0
        CFI CFA_XSP16 add(XSP16, 14)
        ; Saved register size: 14
        ; Auto size: 0
        MOV     A,R2
        MOV     R6,A
        MOV     A,R3
        MOV     R7,A
        MOV     ?V0 + 0,R4
        MOV     ?V0 + 1,R5
//  426   uint8 i;
//  427   uint8 ret = ZSuccess;
        MOV     ?V0 + 2,#0x0
//  428   endPointDesc_t *epDesc;
//  429 
//  430   epDesc = (endPointDesc_t *)param;
//  431   /* check if this endpoint is already registered */
//  432   if ( afFindEndPointDesc( *pBuf ) != NULL )
        ; Setup parameters for call to function afFindEndPointDesc
        MOV     DPL,R6
        MOV     DPH,R7
        MOVX    A,@DPTR
        MOV     R1,A
        LCALL   ??afFindEndPointDesc?relay
        MOV     ?V0 + 5,R3
        MOV     A,R2
        ORL     A,?V0 + 5
        JZ      ??MT_BuildEndpointDesc_0
//  433   {
//  434     ret = ZApsDuplicateEntry;
        MOV     ?V0 + 2,#-0x48
        LJMP    ??MT_BuildEndpointDesc_1 & 0xFFFF
//  435   }
//  436   else if ( epDesc )
??MT_BuildEndpointDesc_0:
        MOV     A,?V0 + 0
        ORL     A,?V0 + 1
        JNZ     $+5
        LJMP    ??MT_BuildEndpointDesc_1 & 0xFFFF
//  437   {
//  438     epDesc->endPoint = *pBuf;
        MOV     DPL,R6
        MOV     DPH,R7
        MOVX    A,@DPTR
        MOV     DPL,?V0 + 0
        MOV     DPH,?V0 + 1
        MOVX    @DPTR,A
//  439 
//  440     /* Ignore the latency reqs */
//  441     epDesc->latencyReq = noLatencyReqs;
        INC     DPTR
        INC     DPTR
        INC     DPTR
        INC     DPTR
        INC     DPTR
        CLR     A
        MOVX    @DPTR,A
//  442 
//  443     /* allocate memory for the simple descriptor */
//  444     epDesc->simpleDesc = (SimpleDescriptionFormat_t *) osal_mem_alloc(sizeof(SimpleDescriptionFormat_t));
        MOV     A,?V0 + 0
        ADD     A,#0x3
        MOV     ?V0 + 0,A
        MOV     A,?V0 + 1
        ADDC    A,#0x0
        MOV     ?V0 + 1,A
        ; Setup parameters for call to function osal_mem_alloc
        MOV     R2,#0xc
        MOV     R3,#0x0
        LCALL   ??osal_mem_alloc?relay
        MOV     DPL,?V0 + 0
        MOV     DPH,?V0 + 1
        MOV     A,R2
        MOVX    @DPTR,A
        INC     DPTR
        MOV     A,R3
        MOVX    @DPTR,A
//  445     if (epDesc->simpleDesc)
        MOV     DPL,?V0 + 0
        MOV     DPH,?V0 + 1
        MOVX    A,@DPTR
        MOV     R0,A
        INC     DPTR
        MOVX    A,@DPTR
        MOV     R1,A
        MOV     A,R0
        ORL     A,R1
        JNZ     $+5
        LJMP    ??MT_BuildEndpointDesc_2 & 0xFFFF
//  446     {
//  447       /* Endpoint */
//  448       epDesc->simpleDesc->EndPoint = *pBuf++;
        MOV     DPL,R6
        MOV     DPH,R7
        MOVX    A,@DPTR
        PUSH    A
        CFI CFA_SP SP+-1
        MOV     DPL,?V0 + 0
        MOV     DPH,?V0 + 1
        MOVX    A,@DPTR
        MOV     R0,A
        INC     DPTR
        MOVX    A,@DPTR
        MOV     DPH,A
        MOV     DPL,R0
        POP     A
        CFI CFA_SP SP+0
        MOVX    @DPTR,A
        MOV     DPL,R6
        MOV     DPH,R7
        INC     DPTR
        MOV     R6,DPL
        MOV     R7,DPH
//  449 
//  450       /* AppProfId */
//  451       epDesc->simpleDesc->AppProfId = BUILD_UINT16(pBuf[0], pBuf[1]);
        MOVX    A,@DPTR
        MOV     R2,A
        INC     DPTR
        MOVX    A,@DPTR
        MOV     R1,A
        MOV     A,R2
        MOV     R0,A
        MOV     DPL,?V0 + 0
        MOV     DPH,?V0 + 1
        MOVX    A,@DPTR
        MOV     R2,A
        INC     DPTR
        MOVX    A,@DPTR
        MOV     DPH,A
        MOV     DPL,R2
        INC     DPTR
        MOV     A,R0
        MOVX    @DPTR,A
        INC     DPTR
        MOV     A,R1
        MOVX    @DPTR,A
//  452       pBuf += sizeof(uint16);
        MOV     A,R6
        ADD     A,#0x2
        INC     R6
        INC     R6
        MOV     A,R7
        ADDC    A,#0x0
        MOV     R7,A
//  453 
//  454       /* AppDeviceId */
//  455       epDesc->simpleDesc->AppDeviceId = BUILD_UINT16(pBuf[0],pBuf[1]);
        MOV     DPL,R6
        MOV     DPH,R7
        MOVX    A,@DPTR
        MOV     R2,A
        INC     DPTR
        MOVX    A,@DPTR
        MOV     R1,A
        MOV     A,R2
        MOV     R0,A
        MOV     DPL,?V0 + 0
        MOV     DPH,?V0 + 1
        MOVX    A,@DPTR
        MOV     R2,A
        INC     DPTR
        MOVX    A,@DPTR
        MOV     DPH,A
        MOV     DPL,R2
        INC     DPTR
        INC     DPTR
        INC     DPTR
        MOV     A,R0
        MOVX    @DPTR,A
        INC     DPTR
        MOV     A,R1
        MOVX    @DPTR,A
//  456       pBuf += sizeof(uint16);
        MOV     A,R6
        ADD     A,#0x2
        INC     R6
        INC     R6
        MOV     A,R7
        ADDC    A,#0x0
        MOV     R7,A
//  457 
//  458       /* AppDevVer */
//  459       epDesc->simpleDesc->AppDevVer = (*pBuf++) & AF_APP_DEV_VER_MASK ;
        MOV     DPL,R6
        MOV     DPH,R7
        MOVX    A,@DPTR
        ANL     A,#0xf
        MOV     R0,A
        INC     DPTR
        INC     R6
        MOV     R7,DPH
        MOV     DPL,?V0 + 0
        MOV     DPH,?V0 + 1
        MOVX    A,@DPTR
        MOV     R1,A
        INC     DPTR
        MOVX    A,@DPTR
        MOV     DPH,A
        MOV     DPL,R1
        INC     DPTR
        INC     DPTR
        INC     DPTR
        INC     DPTR
        INC     DPTR
        MOVX    A,@DPTR
        ANL     A,#0xf0
        ORL     A,R0
        PUSH    A
        CFI CFA_SP SP+-1
        MOV     DPL,?V0 + 0
        MOV     DPH,?V0 + 1
        MOVX    A,@DPTR
        MOV     R0,A
        INC     DPTR
        MOVX    A,@DPTR
        MOV     DPH,A
        MOV     DPL,R0
        INC     DPTR
        INC     DPTR
        INC     DPTR
        INC     DPTR
        INC     DPTR
        POP     A
        CFI CFA_SP SP+0
        MOVX    @DPTR,A
//  460 
//  461       /* LatencyReq */
//  462       pBuf++;
        MOV     DPL,R6
        MOV     DPH,R7
        INC     DPTR
        INC     R6
        MOV     R7,DPH
//  463 
//  464       /* AppNumInClusters */
//  465       epDesc->simpleDesc->AppNumInClusters = *pBuf++;
        MOVX    A,@DPTR
        PUSH    A
        CFI CFA_SP SP+-1
        MOV     DPL,?V0 + 0
        MOV     DPH,?V0 + 1
        MOVX    A,@DPTR
        MOV     R0,A
        INC     DPTR
        MOVX    A,@DPTR
        MOV     DPH,A
        MOV     DPL,R0
        INC     DPTR
        INC     DPTR
        INC     DPTR
        INC     DPTR
        INC     DPTR
        INC     DPTR
        POP     A
        CFI CFA_SP SP+0
        MOVX    @DPTR,A
        MOV     DPL,R6
        MOV     DPH,R7
        INC     DPTR
        INC     R6
        MOV     R7,DPH
//  466       if (epDesc->simpleDesc->AppNumInClusters)
        MOV     DPL,?V0 + 0
        MOV     DPH,?V0 + 1
        MOVX    A,@DPTR
        MOV     R0,A
        INC     DPTR
        MOVX    A,@DPTR
        MOV     DPH,A
        MOV     DPL,R0
        INC     DPTR
        INC     DPTR
        INC     DPTR
        INC     DPTR
        INC     DPTR
        INC     DPTR
        MOVX    A,@DPTR
        JNZ     $+5
        LJMP    ??MT_BuildEndpointDesc_3 & 0xFFFF
//  467       {
//  468         epDesc->simpleDesc->pAppInClusterList = (uint16 *)
//  469                   osal_mem_alloc((epDesc->simpleDesc->AppNumInClusters)*sizeof(uint16));
        ; Setup parameters for call to function osal_mem_alloc
        MOV     DPL,?V0 + 0
        MOV     DPH,?V0 + 1
        MOVX    A,@DPTR
        MOV     R0,A
        INC     DPTR
        MOVX    A,@DPTR
        MOV     DPH,A
        MOV     DPL,R0
        INC     DPTR
        INC     DPTR
        INC     DPTR
        INC     DPTR
        INC     DPTR
        INC     DPTR
        MOVX    A,@DPTR
        CLR     C
        RLC     A
        MOV     R2,A
        CLR     A
        RLC     A
        MOV     R3,A
        LCALL   ??osal_mem_alloc?relay
        MOV     DPL,?V0 + 0
        MOV     DPH,?V0 + 1
        MOVX    A,@DPTR
        MOV     R0,A
        INC     DPTR
        MOVX    A,@DPTR
        MOV     DPH,A
        MOV     DPL,R0
        INC     DPTR
        INC     DPTR
        INC     DPTR
        INC     DPTR
        INC     DPTR
        INC     DPTR
        INC     DPTR
        MOV     A,R2
        MOVX    @DPTR,A
        INC     DPTR
        MOV     A,R3
        MOVX    @DPTR,A
//  470         if ( epDesc->simpleDesc->pAppInClusterList )
        MOV     DPL,?V0 + 0
        MOV     DPH,?V0 + 1
        MOVX    A,@DPTR
        MOV     R0,A
        INC     DPTR
        MOVX    A,@DPTR
        MOV     DPH,A
        MOV     DPL,R0
        INC     DPTR
        INC     DPTR
        INC     DPTR
        INC     DPTR
        INC     DPTR
        INC     DPTR
        INC     DPTR
        MOVX    A,@DPTR
        MOV     R0,A
        INC     DPTR
        MOVX    A,@DPTR
        MOV     R1,A
        MOV     A,R0
        ORL     A,R1
        JZ      ??MT_BuildEndpointDesc_4
//  471         {
//  472           for (i=0; i<(epDesc->simpleDesc->AppNumInClusters); i++)
        MOV     R3,#0x0
??MT_BuildEndpointDesc_5:
        MOV     DPL,?V0 + 0
        MOV     DPH,?V0 + 1
        MOVX    A,@DPTR
        MOV     R0,A
        INC     DPTR
        MOVX    A,@DPTR
        MOV     DPH,A
        MOV     DPL,R0
        INC     DPTR
        INC     DPTR
        INC     DPTR
        INC     DPTR
        INC     DPTR
        INC     DPTR
        MOVX    A,@DPTR
        MOV     R0,A
        MOV     A,R3
        CLR     C
        SUBB    A,R0
        JNC     ??MT_BuildEndpointDesc_3
//  473           {
//  474             epDesc->simpleDesc->pAppInClusterList[i] = BUILD_UINT16(*pBuf, *(pBuf+1));
        MOV     DPL,R6
        MOV     DPH,R7
        MOVX    A,@DPTR
        MOV     R4,A
        INC     DPTR
        MOVX    A,@DPTR
        MOV     R1,A
        MOV     A,R4
        ADD     A,#0x0
        CLR     A
        ADDC    A,R1
        MOV     R5,A
        MOV     A,R3
        RLC     A
        MOV     R0,A
        CLR     A
        RLC     A
        MOV     R1,A
        MOV     DPL,?V0 + 0
        MOV     DPH,?V0 + 1
        MOVX    A,@DPTR
        MOV     R2,A
        INC     DPTR
        MOVX    A,@DPTR
        MOV     DPH,A
        MOV     DPL,R2
        INC     DPTR
        INC     DPTR
        INC     DPTR
        INC     DPTR
        INC     DPTR
        INC     DPTR
        INC     DPTR
        MOVX    A,@DPTR
        ADD     A,R0
        MOV     R2,A
        INC     DPTR
        MOVX    A,@DPTR
        ADDC    A,R1
        MOV     DPL,R2
        MOV     DPH,A
        MOV     A,R4
        MOVX    @DPTR,A
        INC     DPTR
        MOV     A,R5
        MOVX    @DPTR,A
//  475             pBuf += 2;
        MOV     A,R6
        ADD     A,#0x2
        INC     R6
        INC     R6
        MOV     A,R7
        ADDC    A,#0x0
        MOV     R7,A
//  476           }
        INC     R3
        SJMP    ??MT_BuildEndpointDesc_5
//  477         }
//  478         else
//  479         {
//  480           ret = ZMemError;
??MT_BuildEndpointDesc_4:
        MOV     ?V0 + 2,#0x10
//  481         }
//  482       }
//  483 
//  484       /* AppNumOutClusters */
//  485       epDesc->simpleDesc->AppNumOutClusters = *pBuf++;
??MT_BuildEndpointDesc_3:
        MOV     DPL,R6
        MOV     DPH,R7
        MOVX    A,@DPTR
        PUSH    A
        CFI CFA_SP SP+-1
        MOV     DPL,?V0 + 0
        MOV     DPH,?V0 + 1
        MOVX    A,@DPTR
        MOV     R0,A
        INC     DPTR
        MOVX    A,@DPTR
        MOV     DPH,A
        MOV     DPL,R0
        INC     DPTR
        INC     DPTR
        INC     DPTR
        INC     DPTR
        INC     DPTR
        INC     DPTR
        INC     DPTR
        INC     DPTR
        INC     DPTR
        POP     A
        CFI CFA_SP SP+0
        MOVX    @DPTR,A
        MOV     DPL,R6
        MOV     DPH,R7
        INC     DPTR
        MOV     R6,DPL
        MOV     R7,DPH
//  486       if (epDesc->simpleDesc->AppNumOutClusters)
        MOV     DPL,?V0 + 0
        MOV     DPH,?V0 + 1
        MOVX    A,@DPTR
        MOV     R0,A
        INC     DPTR
        MOVX    A,@DPTR
        MOV     DPH,A
        MOV     DPL,R0
        INC     DPTR
        INC     DPTR
        INC     DPTR
        INC     DPTR
        INC     DPTR
        INC     DPTR
        INC     DPTR
        INC     DPTR
        INC     DPTR
        MOVX    A,@DPTR
        JNZ     $+5
        LJMP    ??MT_BuildEndpointDesc_6 & 0xFFFF
//  487       {
//  488         epDesc->simpleDesc->pAppOutClusterList = (uint16 *)
//  489                           osal_mem_alloc((epDesc->simpleDesc->AppNumOutClusters)*sizeof(uint16));
        ; Setup parameters for call to function osal_mem_alloc
        MOV     DPL,?V0 + 0
        MOV     DPH,?V0 + 1
        MOVX    A,@DPTR
        MOV     R0,A
        INC     DPTR
        MOVX    A,@DPTR
        MOV     DPH,A
        MOV     DPL,R0
        INC     DPTR
        INC     DPTR
        INC     DPTR
        INC     DPTR
        INC     DPTR
        INC     DPTR
        INC     DPTR
        INC     DPTR
        INC     DPTR
        MOVX    A,@DPTR
        CLR     C
        RLC     A
        MOV     R2,A
        CLR     A
        RLC     A
        MOV     R3,A
        LCALL   ??osal_mem_alloc?relay
        MOV     DPL,?V0 + 0
        MOV     DPH,?V0 + 1
        MOVX    A,@DPTR
        MOV     R0,A
        INC     DPTR
        MOVX    A,@DPTR
        MOV     DPH,A
        MOV     DPL,R0
        INC     DPTR
        INC     DPTR
        INC     DPTR
        INC     DPTR
        INC     DPTR
        INC     DPTR
        INC     DPTR
        INC     DPTR
        INC     DPTR
        INC     DPTR
        MOV     A,R2
        MOVX    @DPTR,A
        INC     DPTR
        MOV     A,R3
        MOVX    @DPTR,A
//  490         if (epDesc->simpleDesc->pAppOutClusterList)
        MOV     DPL,?V0 + 0
        MOV     DPH,?V0 + 1
        MOVX    A,@DPTR
        MOV     R0,A
        INC     DPTR
        MOVX    A,@DPTR
        MOV     DPH,A
        MOV     DPL,R0
        INC     DPTR
        INC     DPTR
        INC     DPTR
        INC     DPTR
        INC     DPTR
        INC     DPTR
        INC     DPTR
        INC     DPTR
        INC     DPTR
        INC     DPTR
        MOVX    A,@DPTR
        MOV     R0,A
        INC     DPTR
        MOVX    A,@DPTR
        MOV     R1,A
        MOV     A,R0
        ORL     A,R1
        JZ      ??MT_BuildEndpointDesc_7
//  491         {
//  492           for (i=0; i<(epDesc->simpleDesc->AppNumOutClusters); i++)
        MOV     R3,#0x0
??MT_BuildEndpointDesc_8:
        MOV     DPL,?V0 + 0
        MOV     DPH,?V0 + 1
        MOVX    A,@DPTR
        MOV     R0,A
        INC     DPTR
        MOVX    A,@DPTR
        MOV     DPH,A
        MOV     DPL,R0
        INC     DPTR
        INC     DPTR
        INC     DPTR
        INC     DPTR
        INC     DPTR
        INC     DPTR
        INC     DPTR
        INC     DPTR
        INC     DPTR
        MOVX    A,@DPTR
        MOV     R0,A
        MOV     A,R3
        CLR     C
        SUBB    A,R0
        JNC     ??MT_BuildEndpointDesc_6
//  493           {
//  494             epDesc->simpleDesc->pAppOutClusterList[i] = BUILD_UINT16(*pBuf, *(pBuf+1));
        MOV     DPL,R6
        MOV     DPH,R7
        MOVX    A,@DPTR
        MOV     R4,A
        INC     DPTR
        MOVX    A,@DPTR
        MOV     R1,A
        MOV     A,R4
        ADD     A,#0x0
        CLR     A
        ADDC    A,R1
        MOV     R5,A
        MOV     A,R3
        RLC     A
        MOV     R0,A
        CLR     A
        RLC     A
        MOV     R1,A
        MOV     DPL,?V0 + 0
        MOV     DPH,?V0 + 1
        MOVX    A,@DPTR
        MOV     R2,A
        INC     DPTR
        MOVX    A,@DPTR
        MOV     DPH,A
        MOV     DPL,R2
        INC     DPTR
        INC     DPTR
        INC     DPTR
        INC     DPTR
        INC     DPTR
        INC     DPTR
        INC     DPTR
        INC     DPTR
        INC     DPTR
        INC     DPTR
        MOVX    A,@DPTR
        ADD     A,R0
        MOV     R2,A
        INC     DPTR
        MOVX    A,@DPTR
        ADDC    A,R1
        MOV     DPL,R2
        MOV     DPH,A
        MOV     A,R4
        MOVX    @DPTR,A
        INC     DPTR
        MOV     A,R5
        MOVX    @DPTR,A
//  495             pBuf += 2;
        MOV     A,R6
        ADD     A,#0x2
        INC     R6
        INC     R6
        MOV     A,R7
        ADDC    A,#0x0
        MOV     R7,A
//  496           }
        INC     R3
        SJMP    ??MT_BuildEndpointDesc_8
//  497         }
//  498         else
//  499         {
//  500           ret = ZMemError;
??MT_BuildEndpointDesc_7:
        MOV     ?V0 + 2,#0x10
//  501         }
//  502       }
//  503 
//  504       /* if any list cannot be allocated...free all */
//  505       if ( ret == ZMemError )
??MT_BuildEndpointDesc_6:
        MOV     A,#0x10
        XRL     A,?V0 + 2
        JZ      $+5
        LJMP    ??MT_BuildEndpointDesc_1 & 0xFFFF
//  506       {
//  507         if (epDesc->simpleDesc->pAppInClusterList)
        MOV     DPL,?V0 + 0
        MOV     DPH,?V0 + 1
        MOVX    A,@DPTR
        MOV     R0,A
        INC     DPTR
        MOVX    A,@DPTR
        MOV     DPH,A
        MOV     DPL,R0
        INC     DPTR
        INC     DPTR
        INC     DPTR
        INC     DPTR
        INC     DPTR
        INC     DPTR
        INC     DPTR
        MOVX    A,@DPTR
        MOV     R0,A
        INC     DPTR
        MOVX    A,@DPTR
        MOV     R1,A
        MOV     A,R0
        ORL     A,R1
        JZ      ??MT_BuildEndpointDesc_9
//  508         {
//  509           osal_mem_free(epDesc->simpleDesc->pAppInClusterList);
        ; Setup parameters for call to function osal_mem_free
        MOV     DPL,?V0 + 0
        MOV     DPH,?V0 + 1
        MOVX    A,@DPTR
        MOV     R0,A
        INC     DPTR
        MOVX    A,@DPTR
        MOV     DPH,A
        MOV     DPL,R0
        INC     DPTR
        INC     DPTR
        INC     DPTR
        INC     DPTR
        INC     DPTR
        INC     DPTR
        INC     DPTR
        MOVX    A,@DPTR
        MOV     R2,A
        INC     DPTR
        MOVX    A,@DPTR
        MOV     R3,A
        LCALL   ??osal_mem_free?relay
//  510         }
//  511 
//  512         if (epDesc->simpleDesc->AppNumOutClusters)
??MT_BuildEndpointDesc_9:
        MOV     DPL,?V0 + 0
        MOV     DPH,?V0 + 1
        MOVX    A,@DPTR
        MOV     R0,A
        INC     DPTR
        MOVX    A,@DPTR
        MOV     DPH,A
        MOV     DPL,R0
        INC     DPTR
        INC     DPTR
        INC     DPTR
        INC     DPTR
        INC     DPTR
        INC     DPTR
        INC     DPTR
        INC     DPTR
        INC     DPTR
        MOVX    A,@DPTR
        JZ      ??MT_BuildEndpointDesc_10
//  513         {
//  514           osal_mem_free(epDesc->simpleDesc->pAppOutClusterList);
        ; Setup parameters for call to function osal_mem_free
        MOV     DPL,?V0 + 0
        MOV     DPH,?V0 + 1
        MOVX    A,@DPTR
        MOV     R0,A
        INC     DPTR
        MOVX    A,@DPTR
        MOV     DPH,A
        MOV     DPL,R0
        INC     DPTR
        INC     DPTR
        INC     DPTR
        INC     DPTR
        INC     DPTR
        INC     DPTR
        INC     DPTR
        INC     DPTR
        INC     DPTR
        INC     DPTR
        MOVX    A,@DPTR
        MOV     R2,A
        INC     DPTR
        MOVX    A,@DPTR
        MOV     R3,A
        LCALL   ??osal_mem_free?relay
//  515         }
//  516 
//  517         osal_mem_free(epDesc->simpleDesc);
??MT_BuildEndpointDesc_10:
        ; Setup parameters for call to function osal_mem_free
        MOV     DPL,?V0 + 0
        MOV     DPH,?V0 + 1
        MOVX    A,@DPTR
        MOV     R2,A
        INC     DPTR
        MOVX    A,@DPTR
        MOV     R3,A
        LCALL   ??osal_mem_free?relay
        SJMP    ??MT_BuildEndpointDesc_1
//  518       }
//  519     }
//  520     else
//  521     {
//  522       ret = ZMemError;
??MT_BuildEndpointDesc_2:
        MOV     ?V0 + 2,#0x10
//  523     }
//  524   }
//  525 
//  526   return ret;
??MT_BuildEndpointDesc_1:
        MOV     R1,?V0 + 2
        MOV     R7,#0x6
        LJMP    ?BANKED_LEAVE_XDATA
        CFI EndBlock cfiBlock7
//  527 }

        RSEG XDATA_ID:CODE:NOROOT(0)
`?<Initializer for mtProcessIncoming>`:
        DATA16
        DW 0H
        DW ??MT_SysCommandProcessing?relay
        DW 0H
        DW 0H
        DW 0H
        DW ??MT_ZdoCommandProcessing?relay
        DW 0H
        DW 0H
        DW 0H
        DW 0H

        RSEG BANK_RELAYS:CODE:REORDER:NOROOT(0)
??MT_Init?relay:
        LCALL   ?BDISPATCH
        DATA
        DC24    MT_Init

        RSEG BANK_RELAYS:CODE:REORDER:NOROOT(0)
??MT_BuildSPIMsg?relay:
        LCALL   ?BDISPATCH
        DATA
        DC24    MT_BuildSPIMsg

        RSEG BANK_RELAYS:CODE:REORDER:NOROOT(0)
??MT_BuildAndSendZToolResponse?relay:
        LCALL   ?BDISPATCH
        DATA
        DC24    MT_BuildAndSendZToolResponse

        RSEG BANK_RELAYS:CODE:REORDER:NOROOT(0)
??MT_ProcessIncoming?relay:
        LCALL   ?BDISPATCH
        DATA
        DC24    MT_ProcessIncoming

        RSEG BANK_RELAYS:CODE:REORDER:NOROOT(0)
??MTProcessAppRspMsg?relay:
        LCALL   ?BDISPATCH
        DATA
        DC24    MTProcessAppRspMsg

        RSEG BANK_RELAYS:CODE:REORDER:NOROOT(0)
??MT_ReverseBytes?relay:
        LCALL   ?BDISPATCH
        DATA
        DC24    MT_ReverseBytes

        RSEG BANK_RELAYS:CODE:REORDER:NOROOT(0)
??MT_Word2Buf?relay:
        LCALL   ?BDISPATCH
        DATA
        DC24    MT_Word2Buf

        RSEG BANK_RELAYS:CODE:REORDER:NOROOT(0)
??MT_BuildEndpointDesc?relay:
        LCALL   ?BDISPATCH
        DATA
        DC24    MT_BuildEndpointDesc

        END
//  528 /***************************************************************************************************
//  529 ***************************************************************************************************/
// 
// 1 477 bytes in segment BANKED_CODE
//    48 bytes in segment BANK_RELAYS
//    20 bytes in segment XDATA_I
//    20 bytes in segment XDATA_ID
//     5 bytes in segment XDATA_Z
// 
// 1 545 bytes of CODE  memory
//    25 bytes of XDATA memory
//
//Errors: none
//Warnings: none
