///////////////////////////////////////////////////////////////////////////////
//                                                                            /
// IAR C/C++ Compiler V8.10.3.10338/W32 for 8051        16/Dec/2020  12:59:00 /
// Copyright 2004-2011 IAR Systems AB.                                        /
//                                                                            /
//    Core               =  plain                                             /
//    Code model         =  banked                                            /
//    Data model         =  large                                             /
//    Calling convention =  xdata reentrant                                   /
//    Constant location  =  data_rom                                          /
//    Dptr setup         =  1,16                                              /
//    Source file        =  E:\³£ÓÃÄ£¿éÊµÑé\ZigBeeÍ¨ÐÅÊµÑé\2.ZigBeeÍøÂç´«Êä¹â /
//                          µç¿ª¹Ø¼ì²âÊµÑé\Components\HARDWARE\Switch.c       /
//    Command line       =  -f E:\³£ÓÃÄ£¿éÊµÑé\ZigBeeÍ¨ÐÅÊµÑé\2.ZigBeeÍøÂç´«Ê /
//                          ä¹âµç¿ª¹Ø¼ì²âÊµÑé\Projects\zstack\Samples\SampleA /
//                          pp\CC2530DB\..\..\..\Tools\CC2530DB\f8wCoord.cfg  /
//                          (-DCPU32MHZ -DROOT=__near_func                    /
//                          -DMAC_CFG_APP_PENDING_QUEUE=TRUE                  /
//                          -DZDO_COORDINATOR -DRTR_NWK -DBLINK_LEDS) -f      /
//                          E:\³£ÓÃÄ£¿éÊµÑé\ZigBeeÍ¨ÐÅÊµÑé\2.ZigBeeÍøÂç´«Êä¹â /
//                          µç¿ª¹Ø¼ì²âÊµÑé\Projects\zstack\Samples\SampleApp\ /
//                          CC2530DB\..\..\..\Tools\CC2530DB\f8wConfig.cfg    /
//                          (-DSECURE=0 -DZG_SECURE_DYNAMIC=0 -DREFLECTOR     /
//                          -DDEFAULT_CHANLIST=0x00000800                     /
//                          -DZDAPP_CONFIG_PAN_ID=0xFF11                      /
//                          -DNWK_START_DELAY=100 -DEXTENDED_JOINING_RANDOM_M /
//                          ASK=0x007F -DBEACON_REQUEST_DELAY=100             /
//                          -DBEACON_REQ_DELAY_MASK=0x00FF                    /
//                          -DROUTE_EXPIRY_TIME=30 -DAPSC_ACK_WAIT_DURATION_P /
//                          OLLED=3000 -DNWK_INDIRECT_MSG_TIMEOUT=7           /
//                          -DMAX_RREQ_ENTRIES=8 -DAPSC_MAX_FRAME_RETRIES=3   /
//                          -DNWK_MAX_DATA_RETRIES=2                          /
//                          -DMAX_POLL_FAILURE_RETRIES=2 -DMAX_BCAST=9        /
//                          -DAPS_MAX_GROUPS=16 -DMAX_RTG_ENTRIES=40          /
//                          -DNWK_MAX_BINDING_ENTRIES=4                       /
//                          -DMAX_BINDING_CLUSTER_IDS=4                       /
//                          "-DDEFAULT_KEY={0x01, 0x03, 0x05, 0x07, 0x09,     /
//                          0x0B, 0x0D, 0x0F, 0x00, 0x02, 0x04, 0x06, 0x08,   /
//                          0x0A, 0x0C, 0x0D}" -DMAC_MAX_FRAME_SIZE=116       /
//                          "-DCONST=const __code" -DGENERIC=__generic        /
//                          -DRFD_RCVC_ALWAYS_ON=FALSE -DPOLL_RATE=1000       /
//                          -DQUEUED_POLL_RATE=100 -DRESPONSE_POLL_RATE=100)  /
//                          -DREJOIN_POLL_RATE=440 E:\³£ÓÃÄ£¿éÊµÑé\ZigBeeÍ¨ÐÅ /
//                          ÊµÑé\2.ZigBeeÍøÂç´«Êä¹âµç¿ª¹Ø¼ì²âÊµÑé\Components\ /
//                          HARDWARE\Switch.c -D ZIGBEEPRO -D ZTOOL_P1 -D     /
//                          MT_SYS_FUNC -D xMT_ZDO_FUNC -D                    /
//                          LCD_SUPPORTED=DEBUG -D NV_RESTORE -lC             /
//                          E:\³£ÓÃÄ£¿éÊµÑé\ZigBeeÍ¨ÐÅÊµÑé\2.ZigBeeÍøÂç´«Êä¹â /
//                          µç¿ª¹Ø¼ì²âÊµÑé\Projects\zstack\Samples\SampleApp\ /
//                          CC2530DB\CoordinatorEB\List\ -lA                  /
//                          E:\³£ÓÃÄ£¿éÊµÑé\ZigBeeÍ¨ÐÅÊµÑé\2.ZigBeeÍøÂç´«Êä¹â /
//                          µç¿ª¹Ø¼ì²âÊµÑé\Projects\zstack\Samples\SampleApp\ /
//                          CC2530DB\CoordinatorEB\List\ --diag_suppress      /
//                          Pe001,Pa010 -o E:\³£ÓÃÄ£¿éÊµÑé\ZigBeeÍ¨ÐÅÊµÑé\2.Z /
//                          igBeeÍøÂç´«Êä¹âµç¿ª¹Ø¼ì²âÊµÑé\Projects\zstack\Sam /
//                          ples\SampleApp\CC2530DB\CoordinatorEB\Obj\ -e     /
//                          --debug --core=plain --dptr=16,1                  /
//                          --data_model=large --code_model=banked            /
//                          --calling_convention=xdata_reentrant              /
//                          --place_constants=data_rom --nr_virtual_regs 16   /
//                          -I E:\³£ÓÃÄ£¿éÊµÑé\ZigBeeÍ¨ÐÅÊµÑé\2.ZigBeeÍøÂç´«Ê /
//                          ä¹âµç¿ª¹Ø¼ì²âÊµÑé\Projects\zstack\Samples\SampleA /
//                          pp\CC2530DB\ -I E:\³£ÓÃÄ£¿éÊµÑé\ZigBeeÍ¨ÐÅÊµÑé\2. /
//                          ZigBeeÍøÂç´«Êä¹âµç¿ª¹Ø¼ì²âÊµÑé\Projects\zstack\Sa /
//                          mples\SampleApp\CC2530DB\..\SOURCE\ -I            /
//                          E:\³£ÓÃÄ£¿éÊµÑé\ZigBeeÍ¨ÐÅÊµÑé\2.ZigBeeÍøÂç´«Êä¹â /
//                          µç¿ª¹Ø¼ì²âÊµÑé\Projects\zstack\Samples\SampleApp\ /
//                          CC2530DB\..\..\..\ZMAIN\TI2530DB\ -I              /
//                          E:\³£ÓÃÄ£¿éÊµÑé\ZigBeeÍ¨ÐÅÊµÑé\2.ZigBeeÍøÂç´«Êä¹â /
//                          µç¿ª¹Ø¼ì²âÊµÑé\Projects\zstack\Samples\SampleApp\ /
//                          CC2530DB\..\..\..\..\..\COMPONENTS\MT\ -I         /
//                          E:\³£ÓÃÄ£¿éÊµÑé\ZigBeeÍ¨ÐÅÊµÑé\2.ZigBeeÍøÂç´«Êä¹â /
//                          µç¿ª¹Ø¼ì²âÊµÑé\Projects\zstack\Samples\SampleApp\ /
//                          CC2530DB\..\..\..\..\..\COMPONENTS\HAL\INCLUDE\   /
//                          -I E:\³£ÓÃÄ£¿éÊµÑé\ZigBeeÍ¨ÐÅÊµÑé\2.ZigBeeÍøÂç´«Ê /
//                          ä¹âµç¿ª¹Ø¼ì²âÊµÑé\Projects\zstack\Samples\SampleA /
//                          pp\CC2530DB\..\..\..\..\..\COMPONENTS\HAL\TARGET\ /
//                          CC2530EB\ -I E:\³£ÓÃÄ£¿éÊµÑé\ZigBeeÍ¨ÐÅÊµÑé\2.Zig /
//                          BeeÍøÂç´«Êä¹âµç¿ª¹Ø¼ì²âÊµÑé\Projects\zstack\Sampl /
//                          es\SampleApp\CC2530DB\..\..\..\..\..\COMPONENTS\O /
//                          SAL\MCU\CCSOC\ -I E:\³£ÓÃÄ£¿éÊµÑé\ZigBeeÍ¨ÐÅÊµÑé\ /
//                          2.ZigBeeÍøÂç´«Êä¹âµç¿ª¹Ø¼ì²âÊµÑé\Projects\zstack\ /
//                          Samples\SampleApp\CC2530DB\..\..\..\..\..\COMPONE /
//                          NTS\OSAL\INCLUDE\ -I E:\³£ÓÃÄ£¿éÊµÑé\ZigBeeÍ¨ÐÅÊµ /
//                          Ñé\2.ZigBeeÍøÂç´«Êä¹âµç¿ª¹Ø¼ì²âÊµÑé\Projects\zsta /
//                          ck\Samples\SampleApp\CC2530DB\..\..\..\..\..\COMP /
//                          ONENTS\STACK\AF\ -I E:\³£ÓÃÄ£¿éÊµÑé\ZigBeeÍ¨ÐÅÊµÑ /
//                          é\2.ZigBeeÍøÂç´«Êä¹âµç¿ª¹Ø¼ì²âÊµÑé\Projects\zstac /
//                          k\Samples\SampleApp\CC2530DB\..\..\..\..\..\COMPO /
//                          NENTS\STACK\NWK\ -I E:\³£ÓÃÄ£¿éÊµÑé\ZigBeeÍ¨ÐÅÊµÑ /
//                          é\2.ZigBeeÍøÂç´«Êä¹âµç¿ª¹Ø¼ì²âÊµÑé\Projects\zstac /
//                          k\Samples\SampleApp\CC2530DB\..\..\..\..\..\COMPO /
//                          NENTS\STACK\SEC\ -I E:\³£ÓÃÄ£¿éÊµÑé\ZigBeeÍ¨ÐÅÊµÑ /
//                          é\2.ZigBeeÍøÂç´«Êä¹âµç¿ª¹Ø¼ì²âÊµÑé\Projects\zstac /
//                          k\Samples\SampleApp\CC2530DB\..\..\..\..\..\COMPO /
//                          NENTS\STACK\SAPI\ -I E:\³£ÓÃÄ£¿éÊµÑé\ZigBeeÍ¨ÐÅÊµ /
//                          Ñé\2.ZigBeeÍøÂç´«Êä¹âµç¿ª¹Ø¼ì²âÊµÑé\Projects\zsta /
//                          ck\Samples\SampleApp\CC2530DB\..\..\..\..\..\COMP /
//                          ONENTS\STACK\SYS\ -I E:\³£ÓÃÄ£¿éÊµÑé\ZigBeeÍ¨ÐÅÊµ /
//                          Ñé\2.ZigBeeÍøÂç´«Êä¹âµç¿ª¹Ø¼ì²âÊµÑé\Projects\zsta /
//                          ck\Samples\SampleApp\CC2530DB\..\..\..\..\..\COMP /
//                          ONENTS\STACK\ZDO\ -I E:\³£ÓÃÄ£¿éÊµÑé\ZigBeeÍ¨ÐÅÊµ /
//                          Ñé\2.ZigBeeÍøÂç´«Êä¹âµç¿ª¹Ø¼ì²âÊµÑé\Projects\zsta /
//                          ck\Samples\SampleApp\CC2530DB\..\..\..\..\..\COMP /
//                          ONENTS\ZMAC\F8W\ -I E:\³£ÓÃÄ£¿éÊµÑé\ZigBeeÍ¨ÐÅÊµÑ /
//                          é\2.ZigBeeÍøÂç´«Êä¹âµç¿ª¹Ø¼ì²âÊµÑé\Projects\zstac /
//                          k\Samples\SampleApp\CC2530DB\..\..\..\..\..\COMPO /
//                          NENTS\ZMAC\ -I E:\³£ÓÃÄ£¿éÊµÑé\ZigBeeÍ¨ÐÅÊµÑé\2.Z /
//                          igBeeÍøÂç´«Êä¹âµç¿ª¹Ø¼ì²âÊµÑé\Projects\zstack\Sam /
//                          ples\SampleApp\CC2530DB\..\..\..\..\..\COMPONENTS /
//                          \SERVICES\SADDR\ -I E:\³£ÓÃÄ£¿éÊµÑé\ZigBeeÍ¨ÐÅÊµÑ /
//                          é\2.ZigBeeÍøÂç´«Êä¹âµç¿ª¹Ø¼ì²âÊµÑé\Projects\zstac /
//                          k\Samples\SampleApp\CC2530DB\..\..\..\..\..\COMPO /
//                          NENTS\SERVICES\SDATA\ -I                          /
//                          E:\³£ÓÃÄ£¿éÊµÑé\ZigBeeÍ¨ÐÅÊµÑé\2.ZigBeeÍøÂç´«Êä¹â /
//                          µç¿ª¹Ø¼ì²âÊµÑé\Projects\zstack\Samples\SampleApp\ /
//                          CC2530DB\..\..\..\..\..\COMPONENTS\MAC\INCLUDE\   /
//                          -I E:\³£ÓÃÄ£¿éÊµÑé\ZigBeeÍ¨ÐÅÊµÑé\2.ZigBeeÍøÂç´«Ê /
//                          ä¹âµç¿ª¹Ø¼ì²âÊµÑé\Projects\zstack\Samples\SampleA /
//                          pp\CC2530DB\..\..\..\..\..\COMPONENTS\MAC\HIGH_LE /
//                          VEL\ -I E:\³£ÓÃÄ£¿éÊµÑé\ZigBeeÍ¨ÐÅÊµÑé\2.ZigBeeÍø /
//                          Âç´«Êä¹âµç¿ª¹Ø¼ì²âÊµÑé\Projects\zstack\Samples\Sa /
//                          mpleApp\CC2530DB\..\..\..\..\..\COMPONENTS\MAC\LO /
//                          W_LEVEL\srf04\ -I E:\³£ÓÃÄ£¿éÊµÑé\ZigBeeÍ¨ÐÅÊµÑé\ /
//                          2.ZigBeeÍøÂç´«Êä¹âµç¿ª¹Ø¼ì²âÊµÑé\Projects\zstack\ /
//                          Samples\SampleApp\CC2530DB\..\..\..\..\..\COMPONE /
//                          NTS\MAC\LOW_LEVEL\srf04\SINGLE_CHIP\ -I           /
//                          E:\³£ÓÃÄ£¿éÊµÑé\ZigBeeÍ¨ÐÅÊµÑé\2.ZigBeeÍøÂç´«Êä¹â /
//                          µç¿ª¹Ø¼ì²âÊµÑé\Projects\zstack\Samples\SampleApp\ /
//                          CC2530DB\..\..\..\..\..\COMPONENTS\HARDWARE\ -Ohz /
//    List file          =  E:\³£ÓÃÄ£¿éÊµÑé\ZigBeeÍ¨ÐÅÊµÑé\2.ZigBeeÍøÂç´«Êä¹â /
//                          µç¿ª¹Ø¼ì²âÊµÑé\Projects\zstack\Samples\SampleApp\ /
//                          CC2530DB\CoordinatorEB\List\Switch.s51            /
//                                                                            /
//                                                                            /
///////////////////////////////////////////////////////////////////////////////

        NAME Switch

        RTMODEL "__SystemLibrary", "CLib"
        RTMODEL "__calling_convention", "xdata_reentrant"
        RTMODEL "__code_model", "banked"
        RTMODEL "__core", "plain"
        RTMODEL "__data_model", "large"
        RTMODEL "__dptr_size", "16"
        RTMODEL "__extended_stack", "disabled"
        RTMODEL "__location_for_constants", "data"
        RTMODEL "__number_of_dptrs", "1"
        RTMODEL "__rt_version", "1"

        RSEG DOVERLAY:DATA:NOROOT(0)
        RSEG IOVERLAY:IDATA:NOROOT(0)
        RSEG ISTACK:IDATA:NOROOT(0)
        RSEG PSTACK:XDATA:NOROOT(0)
        RSEG XSTACK:XDATA:NOROOT(0)

        EXTERN ?BDISPATCH
        EXTERN ?BRET

        PUBLIC ??Optocoupler_Init?relay
        FUNCTION ??Optocoupler_Init?relay,0203H
        PUBLIC Optocoupler_Init
        FUNCTION Optocoupler_Init,0203H
        ARGFRAME XSTACK, 0, STACK
        PUBWEAK P1DIR
        PUBWEAK P1INP
        PUBWEAK P1SEL
        PUBWEAK _A_P1
        
        CFI Names cfiNames0
        CFI StackFrame CFA_SP SP IDATA
        CFI StackFrame CFA_PSP16 PSP16 XDATA
        CFI StackFrame CFA_XSP16 XSP16 XDATA
        CFI StaticOverlayFrame CFA_IOVERLAY IOVERLAY
        CFI StaticOverlayFrame CFA_DOVERLAY DOVERLAY
        CFI Resource `PSW.CY`:1, `B.BR0`:1, `B.BR1`:1, `B.BR2`:1, `B.BR3`:1
        CFI Resource `B.BR4`:1, `B.BR5`:1, `B.BR6`:1, `B.BR7`:1, `VB.BR8`:1
        CFI Resource `VB.BR9`:1, `VB.BR10`:1, `VB.BR11`:1, `VB.BR12`:1
        CFI Resource `VB.BR13`:1, `VB.BR14`:1, `VB.BR15`:1, VB:8, B:8, A:8
        CFI Resource PSW:8, DPL0:8, DPH0:8, R0:8, R1:8, R2:8, R3:8, R4:8, R5:8
        CFI Resource R6:8, R7:8, V0:8, V1:8, V2:8, V3:8, V4:8, V5:8, V6:8, V7:8
        CFI Resource V8:8, V9:8, V10:8, V11:8, V12:8, V13:8, V14:8, V15:8, SP:8
        CFI Resource PSPH:8, PSPL:8, PSP16:16, XSPH:8, XSPL:8, XSP16:16
        CFI VirtualResource ?RET:24
        CFI Resource ?BRET_EXT:8
        CFI VirtualResource ?RET_HIGH:8, ?RET_LOW:8
        CFI ResourceParts PSP16 PSPH, PSPL
        CFI ResourceParts XSP16 XSPH, XSPL
        CFI ResourceParts ?RET ?BRET_EXT, ?RET_HIGH, ?RET_LOW
        CFI EndNames cfiNames0
        
        CFI Common cfiCommon0 Using cfiNames0
        CFI CodeAlign 1
        CFI DataAlign -1
        CFI ReturnAddress ?RET CODE
        CFI CFA_DOVERLAY Used
        CFI CFA_IOVERLAY Used
        CFI CFA_SP SP+-3
        CFI CFA_PSP16 PSP16+0
        CFI CFA_XSP16 XSP16+0
        CFI `PSW.CY` SameValue
        CFI `B.BR0` SameValue
        CFI `B.BR1` SameValue
        CFI `B.BR2` SameValue
        CFI `B.BR3` SameValue
        CFI `B.BR4` SameValue
        CFI `B.BR5` SameValue
        CFI `B.BR6` SameValue
        CFI `B.BR7` SameValue
        CFI `VB.BR8` SameValue
        CFI `VB.BR9` SameValue
        CFI `VB.BR10` SameValue
        CFI `VB.BR11` SameValue
        CFI `VB.BR12` SameValue
        CFI `VB.BR13` SameValue
        CFI `VB.BR14` SameValue
        CFI `VB.BR15` SameValue
        CFI VB SameValue
        CFI B Undefined
        CFI A Undefined
        CFI PSW SameValue
        CFI DPL0 SameValue
        CFI DPH0 SameValue
        CFI R0 Undefined
        CFI R1 Undefined
        CFI R2 Undefined
        CFI R3 Undefined
        CFI R4 Undefined
        CFI R5 Undefined
        CFI R6 SameValue
        CFI R7 SameValue
        CFI V0 SameValue
        CFI V1 SameValue
        CFI V2 SameValue
        CFI V3 SameValue
        CFI V4 SameValue
        CFI V5 SameValue
        CFI V6 SameValue
        CFI V7 SameValue
        CFI V8 SameValue
        CFI V9 SameValue
        CFI V10 SameValue
        CFI V11 SameValue
        CFI V12 SameValue
        CFI V13 SameValue
        CFI V14 SameValue
        CFI V15 SameValue
        CFI PSPH Undefined
        CFI PSPL Undefined
        CFI XSPH Undefined
        CFI XSPL Undefined
        CFI ?RET Concat
        CFI ?BRET_EXT Frame(CFA_SP, 3)
        CFI ?RET_HIGH Frame(CFA_SP, 2)
        CFI ?RET_LOW Frame(CFA_SP, 1)
        CFI EndCommon cfiCommon0
        
Optocoupler_Init    SYMBOL "Optocoupler_Init"
??Optocoupler_Init?relay SYMBOL "?relay", Optocoupler_Init

// E:\³£ÓÃÄ£¿éÊµÑé\ZigBeeÍ¨ÐÅÊµÑé\2.ZigBeeÍøÂç´«Êä¹âµç¿ª¹Ø¼ì²âÊµÑé\Components\HARDWARE\Switch.c
//    1 #include "Switch.h"

        ASEGN SFR_AN:DATA:NOROOT,090H
// union <unnamed> volatile __sfr _A_P1
_A_P1:
        DATA8
        DS 1

        ASEGN SFR_AN:DATA:NOROOT,0f4H
// unsigned char volatile __sfr P1SEL
P1SEL:
        DATA8
        DS 1

        ASEGN SFR_AN:DATA:NOROOT,0f6H
// unsigned char volatile __sfr P1INP
P1INP:
        DATA8
        DS 1

        ASEGN SFR_AN:DATA:NOROOT,0feH
// unsigned char volatile __sfr P1DIR
P1DIR:
        DATA8
        DS 1
//    2 #include <ioCC2530.h>
//    3 //==========================================================
//    4 //	º¯ÊýÃû³Æ£º	Optocoupler_Init()
//    5 //
//    6 //	º¯Êý¹¦ÄÜ£º	¹âµç´«¸ÐÆ÷³õÊ¼»¯
//    7 //
//    8 //	Èë¿Ú²ÎÊý£º	ÎÞ
//    9 //
//   10 //	·µ»Ø²ÎÊý£º	ÎÞ
//   11 //
//   12 //	ËµÃ÷£º		
//   13 //==========================================================

        RSEG BANKED_CODE:CODE:NOROOT(0)
//   14 void Optocoupler_Init(void)
Optocoupler_Init:
        CFI Block cfiBlock0 Using cfiCommon0
        CFI Function Optocoupler_Init
        CODE
//   15 {
        ; Saved register size: 0
        ; Auto size: 0
//   16     P1SEL &= ~0x01;     //ÉèÖÃP1.0ÎªÆÕÍ¨IO¿Ú  
        ANL     0xf4,#0xfe
//   17     P1DIR &= ~0x01;     //°´¼ü½ÓÔÚP1.0¿ÚÉÏ£¬ÉèP1.0ÎªÊäÈëÄ£Ê½ 
        ANL     0xfe,#0xfe
//   18     P1INP &= ~0x01;     //´ò¿ªP1.0ÉÏÀ­µç×è
        ANL     0xf6,#0xfe
//   19 
//   20     P1SEL &= ~0x02;     //ÉèÖÃP1.1ÎªÆÕÍ¨IO¿Ú  
        ANL     0xf4,#0xfd
//   21     P1DIR |= 0x02;      //P1.1¶¨ÒåÎªÊä³ö
        ORL     0xfe,#0x2
//   22     Optocoupler_Switch_ON();//¿ªÆô¹âµç´«¸ÐÆ÷Ä£¿é
        CLR     0x90.1
//   23 }
        LJMP    ?BRET
        CFI EndBlock cfiBlock0
        REQUIRE P1SEL
        REQUIRE P1DIR
        REQUIRE P1INP
        REQUIRE _A_P1

        RSEG BANK_RELAYS:CODE:REORDER:NOROOT(0)
??Optocoupler_Init?relay:
        LCALL   ?BDISPATCH
        DATA
        DC24    Optocoupler_Init

        END
// 
// 20 bytes in segment BANKED_CODE
//  6 bytes in segment BANK_RELAYS
//  4 bytes in segment SFR_AN
// 
// 26 bytes of CODE memory
//  0 bytes of DATA memory (+ 4 bytes shared)
//
//Errors: none
//Warnings: none
