///////////////////////////////////////////////////////////////////////////////
//                                                                            /
// IAR C/C++ Compiler V8.10.3.10338/W32 for 8051        23/Oct/2020  17:46:47 /
// Copyright 2004-2011 IAR Systems AB.                                        /
//                                                                            /
//    Core               =  plain                                             /
//    Code model         =  banked                                            /
//    Data model         =  large                                             /
//    Calling convention =  xdata reentrant                                   /
//    Constant location  =  data_rom                                          /
//    Dptr setup         =  1,16                                              /
//    Source file        =  E:\aiotcode-master\¶àÍøÈÚºÏÊµÑé×°ÖÃ\2.»ùÓÚÎÞÏß´«¸ /
//                          ÐÍøÂçµÄÊµÑé\3.2ZigBeeµã²¥Í¨ÐÅÊµÑé-ÉÏ±¨´«¸ÐÆ÷Êý¾Ý\ /
//                          Components\HARDWARE\led_mode.c                    /
//    Command line       =  -f E:\aiotcode-master\¶àÍøÈÚºÏÊµÑé×°ÖÃ\2.»ùÓÚÎÞÏß /
//                          ´«¸ÐÍøÂçµÄÊµÑé\3.2ZigBeeµã²¥Í¨ÐÅÊµÑé-ÉÏ±¨´«¸ÐÆ÷Êý /
//                          ¾Ý\Projects\zstack\Samples\SampleApp\CC2530DB\..\ /
//                          ..\..\Tools\CC2530DB\f8wCoord.cfg (-DCPU32MHZ     /
//                          -DROOT=__near_func -DMAC_CFG_APP_PENDING_QUEUE=TR /
//                          UE -DZDO_COORDINATOR -DRTR_NWK -DBLINK_LEDS) -f   /
//                          E:\aiotcode-master\¶àÍøÈÚºÏÊµÑé×°ÖÃ\2.»ùÓÚÎÞÏß´«¸ /
//                          ÐÍøÂçµÄÊµÑé\3.2ZigBeeµã²¥Í¨ÐÅÊµÑé-ÉÏ±¨´«¸ÐÆ÷Êý¾Ý\ /
//                          Projects\zstack\Samples\SampleApp\CC2530DB\..\..\ /
//                          ..\Tools\CC2530DB\f8wConfig.cfg (-DSECURE=0       /
//                          -DZG_SECURE_DYNAMIC=0 -DREFLECTOR                 /
//                          -DDEFAULT_CHANLIST=0x00000800                     /
//                          -DZDAPP_CONFIG_PAN_ID=0xFF11                      /
//                          -DNWK_START_DELAY=100 -DEXTENDED_JOINING_RANDOM_M /
//                          ASK=0x007F -DBEACON_REQUEST_DELAY=100             /
//                          -DBEACON_REQ_DELAY_MASK=0x00FF                    /
//                          -DROUTE_EXPIRY_TIME=30 -DAPSC_ACK_WAIT_DURATION_P /
//                          OLLED=3000 -DNWK_INDIRECT_MSG_TIMEOUT=7           /
//                          -DMAX_RREQ_ENTRIES=8 -DAPSC_MAX_FRAME_RETRIES=3   /
//                          -DNWK_MAX_DATA_RETRIES=2                          /
//                          -DMAX_POLL_FAILURE_RETRIES=2 -DMAX_BCAST=9        /
//                          -DAPS_MAX_GROUPS=16 -DMAX_RTG_ENTRIES=40          /
//                          -DNWK_MAX_BINDING_ENTRIES=4                       /
//                          -DMAX_BINDING_CLUSTER_IDS=4                       /
//                          "-DDEFAULT_KEY={0x01, 0x03, 0x05, 0x07, 0x09,     /
//                          0x0B, 0x0D, 0x0F, 0x00, 0x02, 0x04, 0x06, 0x08,   /
//                          0x0A, 0x0C, 0x0D}" -DMAC_MAX_FRAME_SIZE=116       /
//                          "-DCONST=const __code" -DGENERIC=__generic        /
//                          -DRFD_RCVC_ALWAYS_ON=FALSE -DPOLL_RATE=1000       /
//                          -DQUEUED_POLL_RATE=100 -DRESPONSE_POLL_RATE=100)  /
//                          -DREJOIN_POLL_RATE=440 E:\aiotcode-master\¶àÍøÈÚº /
//                          ÏÊµÑé×°ÖÃ\2.»ùÓÚÎÞÏß´«¸ÐÍøÂçµÄÊµÑé\3.2ZigBeeµã²¥Í /
//                          ¨ÐÅÊµÑé-ÉÏ±¨´«¸ÐÆ÷Êý¾Ý\Components\HARDWARE\led_mo /
//                          de.c -D ZIGBEEPRO -D ZTOOL_P1 -D MT_SYS_FUNC -D   /
//                          xMT_ZDO_FUNC -D LCD_SUPPORTED=DEBUG -D            /
//                          NV_RESTORE -lC E:\aiotcode-master\¶àÍøÈÚºÏÊµÑé×°Ö /
//                          Ã\2.»ùÓÚÎÞÏß´«¸ÐÍøÂçµÄÊµÑé\3.2ZigBeeµã²¥Í¨ÐÅÊµÑé- /
//                          ÉÏ±¨´«¸ÐÆ÷Êý¾Ý\Projects\zstack\Samples\SampleApp\ /
//                          CC2530DB\CoordinatorEB\List\ -lA                  /
//                          E:\aiotcode-master\¶àÍøÈÚºÏÊµÑé×°ÖÃ\2.»ùÓÚÎÞÏß´«¸ /
//                          ÐÍøÂçµÄÊµÑé\3.2ZigBeeµã²¥Í¨ÐÅÊµÑé-ÉÏ±¨´«¸ÐÆ÷Êý¾Ý\ /
//                          Projects\zstack\Samples\SampleApp\CC2530DB\Coordi /
//                          natorEB\List\ --diag_suppress Pe001,Pa010 -o      /
//                          E:\aiotcode-master\¶àÍøÈÚºÏÊµÑé×°ÖÃ\2.»ùÓÚÎÞÏß´«¸ /
//                          ÐÍøÂçµÄÊµÑé\3.2ZigBeeµã²¥Í¨ÐÅÊµÑé-ÉÏ±¨´«¸ÐÆ÷Êý¾Ý\ /
//                          Projects\zstack\Samples\SampleApp\CC2530DB\Coordi /
//                          natorEB\Obj\ -e --debug --core=plain --dptr=16,1  /
//                          --data_model=large --code_model=banked            /
//                          --calling_convention=xdata_reentrant              /
//                          --place_constants=data_rom --nr_virtual_regs 16   /
//                          -I E:\aiotcode-master\¶àÍøÈÚºÏÊµÑé×°ÖÃ\2.»ùÓÚÎÞÏß /
//                          ´«¸ÐÍøÂçµÄÊµÑé\3.2ZigBeeµã²¥Í¨ÐÅÊµÑé-ÉÏ±¨´«¸ÐÆ÷Êý /
//                          ¾Ý\Projects\zstack\Samples\SampleApp\CC2530DB\    /
//                          -I E:\aiotcode-master\¶àÍøÈÚºÏÊµÑé×°ÖÃ\2.»ùÓÚÎÞÏß /
//                          ´«¸ÐÍøÂçµÄÊµÑé\3.2ZigBeeµã²¥Í¨ÐÅÊµÑé-ÉÏ±¨´«¸ÐÆ÷Êý /
//                          ¾Ý\Projects\zstack\Samples\SampleApp\CC2530DB\..\ /
//                          SOURCE\ -I E:\aiotcode-master\¶àÍøÈÚºÏÊµÑé×°ÖÃ\2. /
//                          »ùÓÚÎÞÏß´«¸ÐÍøÂçµÄÊµÑé\3.2ZigBeeµã²¥Í¨ÐÅÊµÑé-ÉÏ±¨ /
//                          ´«¸ÐÆ÷Êý¾Ý\Projects\zstack\Samples\SampleApp\CC25 /
//                          30DB\..\..\..\ZMAIN\TI2530DB\ -I                  /
//                          E:\aiotcode-master\¶àÍøÈÚºÏÊµÑé×°ÖÃ\2.»ùÓÚÎÞÏß´«¸ /
//                          ÐÍøÂçµÄÊµÑé\3.2ZigBeeµã²¥Í¨ÐÅÊµÑé-ÉÏ±¨´«¸ÐÆ÷Êý¾Ý\ /
//                          Projects\zstack\Samples\SampleApp\CC2530DB\..\..\ /
//                          ..\..\..\COMPONENTS\MT\ -I                        /
//                          E:\aiotcode-master\¶àÍøÈÚºÏÊµÑé×°ÖÃ\2.»ùÓÚÎÞÏß´«¸ /
//                          ÐÍøÂçµÄÊµÑé\3.2ZigBeeµã²¥Í¨ÐÅÊµÑé-ÉÏ±¨´«¸ÐÆ÷Êý¾Ý\ /
//                          Projects\zstack\Samples\SampleApp\CC2530DB\..\..\ /
//                          ..\..\..\COMPONENTS\HAL\INCLUDE\ -I               /
//                          E:\aiotcode-master\¶àÍøÈÚºÏÊµÑé×°ÖÃ\2.»ùÓÚÎÞÏß´«¸ /
//                          ÐÍøÂçµÄÊµÑé\3.2ZigBeeµã²¥Í¨ÐÅÊµÑé-ÉÏ±¨´«¸ÐÆ÷Êý¾Ý\ /
//                          Projects\zstack\Samples\SampleApp\CC2530DB\..\..\ /
//                          ..\..\..\COMPONENTS\HAL\TARGET\CC2530EB\ -I       /
//                          E:\aiotcode-master\¶àÍøÈÚºÏÊµÑé×°ÖÃ\2.»ùÓÚÎÞÏß´«¸ /
//                          ÐÍøÂçµÄÊµÑé\3.2ZigBeeµã²¥Í¨ÐÅÊµÑé-ÉÏ±¨´«¸ÐÆ÷Êý¾Ý\ /
//                          Projects\zstack\Samples\SampleApp\CC2530DB\..\..\ /
//                          ..\..\..\COMPONENTS\OSAL\MCU\CCSOC\ -I            /
//                          E:\aiotcode-master\¶àÍøÈÚºÏÊµÑé×°ÖÃ\2.»ùÓÚÎÞÏß´«¸ /
//                          ÐÍøÂçµÄÊµÑé\3.2ZigBeeµã²¥Í¨ÐÅÊµÑé-ÉÏ±¨´«¸ÐÆ÷Êý¾Ý\ /
//                          Projects\zstack\Samples\SampleApp\CC2530DB\..\..\ /
//                          ..\..\..\COMPONENTS\OSAL\INCLUDE\ -I              /
//                          E:\aiotcode-master\¶àÍøÈÚºÏÊµÑé×°ÖÃ\2.»ùÓÚÎÞÏß´«¸ /
//                          ÐÍøÂçµÄÊµÑé\3.2ZigBeeµã²¥Í¨ÐÅÊµÑé-ÉÏ±¨´«¸ÐÆ÷Êý¾Ý\ /
//                          Projects\zstack\Samples\SampleApp\CC2530DB\..\..\ /
//                          ..\..\..\COMPONENTS\STACK\AF\ -I                  /
//                          E:\aiotcode-master\¶àÍøÈÚºÏÊµÑé×°ÖÃ\2.»ùÓÚÎÞÏß´«¸ /
//                          ÐÍøÂçµÄÊµÑé\3.2ZigBeeµã²¥Í¨ÐÅÊµÑé-ÉÏ±¨´«¸ÐÆ÷Êý¾Ý\ /
//                          Projects\zstack\Samples\SampleApp\CC2530DB\..\..\ /
//                          ..\..\..\COMPONENTS\STACK\NWK\ -I                 /
//                          E:\aiotcode-master\¶àÍøÈÚºÏÊµÑé×°ÖÃ\2.»ùÓÚÎÞÏß´«¸ /
//                          ÐÍøÂçµÄÊµÑé\3.2ZigBeeµã²¥Í¨ÐÅÊµÑé-ÉÏ±¨´«¸ÐÆ÷Êý¾Ý\ /
//                          Projects\zstack\Samples\SampleApp\CC2530DB\..\..\ /
//                          ..\..\..\COMPONENTS\STACK\SEC\ -I                 /
//                          E:\aiotcode-master\¶àÍøÈÚºÏÊµÑé×°ÖÃ\2.»ùÓÚÎÞÏß´«¸ /
//                          ÐÍøÂçµÄÊµÑé\3.2ZigBeeµã²¥Í¨ÐÅÊµÑé-ÉÏ±¨´«¸ÐÆ÷Êý¾Ý\ /
//                          Projects\zstack\Samples\SampleApp\CC2530DB\..\..\ /
//                          ..\..\..\COMPONENTS\STACK\SAPI\ -I                /
//                          E:\aiotcode-master\¶àÍøÈÚºÏÊµÑé×°ÖÃ\2.»ùÓÚÎÞÏß´«¸ /
//                          ÐÍøÂçµÄÊµÑé\3.2ZigBeeµã²¥Í¨ÐÅÊµÑé-ÉÏ±¨´«¸ÐÆ÷Êý¾Ý\ /
//                          Projects\zstack\Samples\SampleApp\CC2530DB\..\..\ /
//                          ..\..\..\COMPONENTS\STACK\SYS\ -I                 /
//                          E:\aiotcode-master\¶àÍøÈÚºÏÊµÑé×°ÖÃ\2.»ùÓÚÎÞÏß´«¸ /
//                          ÐÍøÂçµÄÊµÑé\3.2ZigBeeµã²¥Í¨ÐÅÊµÑé-ÉÏ±¨´«¸ÐÆ÷Êý¾Ý\ /
//                          Projects\zstack\Samples\SampleApp\CC2530DB\..\..\ /
//                          ..\..\..\COMPONENTS\STACK\ZDO\ -I                 /
//                          E:\aiotcode-master\¶àÍøÈÚºÏÊµÑé×°ÖÃ\2.»ùÓÚÎÞÏß´«¸ /
//                          ÐÍøÂçµÄÊµÑé\3.2ZigBeeµã²¥Í¨ÐÅÊµÑé-ÉÏ±¨´«¸ÐÆ÷Êý¾Ý\ /
//                          Projects\zstack\Samples\SampleApp\CC2530DB\..\..\ /
//                          ..\..\..\COMPONENTS\ZMAC\F8W\ -I                  /
//                          E:\aiotcode-master\¶àÍøÈÚºÏÊµÑé×°ÖÃ\2.»ùÓÚÎÞÏß´«¸ /
//                          ÐÍøÂçµÄÊµÑé\3.2ZigBeeµã²¥Í¨ÐÅÊµÑé-ÉÏ±¨´«¸ÐÆ÷Êý¾Ý\ /
//                          Projects\zstack\Samples\SampleApp\CC2530DB\..\..\ /
//                          ..\..\..\COMPONENTS\ZMAC\ -I                      /
//                          E:\aiotcode-master\¶àÍøÈÚºÏÊµÑé×°ÖÃ\2.»ùÓÚÎÞÏß´«¸ /
//                          ÐÍøÂçµÄÊµÑé\3.2ZigBeeµã²¥Í¨ÐÅÊµÑé-ÉÏ±¨´«¸ÐÆ÷Êý¾Ý\ /
//                          Projects\zstack\Samples\SampleApp\CC2530DB\..\..\ /
//                          ..\..\..\COMPONENTS\SERVICES\SADDR\ -I            /
//                          E:\aiotcode-master\¶àÍøÈÚºÏÊµÑé×°ÖÃ\2.»ùÓÚÎÞÏß´«¸ /
//                          ÐÍøÂçµÄÊµÑé\3.2ZigBeeµã²¥Í¨ÐÅÊµÑé-ÉÏ±¨´«¸ÐÆ÷Êý¾Ý\ /
//                          Projects\zstack\Samples\SampleApp\CC2530DB\..\..\ /
//                          ..\..\..\COMPONENTS\SERVICES\SDATA\ -I            /
//                          E:\aiotcode-master\¶àÍøÈÚºÏÊµÑé×°ÖÃ\2.»ùÓÚÎÞÏß´«¸ /
//                          ÐÍøÂçµÄÊµÑé\3.2ZigBeeµã²¥Í¨ÐÅÊµÑé-ÉÏ±¨´«¸ÐÆ÷Êý¾Ý\ /
//                          Projects\zstack\Samples\SampleApp\CC2530DB\..\..\ /
//                          ..\..\..\COMPONENTS\MAC\INCLUDE\ -I               /
//                          E:\aiotcode-master\¶àÍøÈÚºÏÊµÑé×°ÖÃ\2.»ùÓÚÎÞÏß´«¸ /
//                          ÐÍøÂçµÄÊµÑé\3.2ZigBeeµã²¥Í¨ÐÅÊµÑé-ÉÏ±¨´«¸ÐÆ÷Êý¾Ý\ /
//                          Projects\zstack\Samples\SampleApp\CC2530DB\..\..\ /
//                          ..\..\..\COMPONENTS\MAC\HIGH_LEVEL\ -I            /
//                          E:\aiotcode-master\¶àÍøÈÚºÏÊµÑé×°ÖÃ\2.»ùÓÚÎÞÏß´«¸ /
//                          ÐÍøÂçµÄÊµÑé\3.2ZigBeeµã²¥Í¨ÐÅÊµÑé-ÉÏ±¨´«¸ÐÆ÷Êý¾Ý\ /
//                          Projects\zstack\Samples\SampleApp\CC2530DB\..\..\ /
//                          ..\..\..\COMPONENTS\MAC\LOW_LEVEL\srf04\ -I       /
//                          E:\aiotcode-master\¶àÍøÈÚºÏÊµÑé×°ÖÃ\2.»ùÓÚÎÞÏß´«¸ /
//                          ÐÍøÂçµÄÊµÑé\3.2ZigBeeµã²¥Í¨ÐÅÊµÑé-ÉÏ±¨´«¸ÐÆ÷Êý¾Ý\ /
//                          Projects\zstack\Samples\SampleApp\CC2530DB\..\..\ /
//                          ..\..\..\COMPONENTS\MAC\LOW_LEVEL\srf04\SINGLE_CH /
//                          IP\ -I E:\aiotcode-master\¶àÍøÈÚºÏÊµÑé×°ÖÃ\2.»ùÓÚ /
//                          ÎÞÏß´«¸ÐÍøÂçµÄÊµÑé\3.2ZigBeeµã²¥Í¨ÐÅÊµÑé-ÉÏ±¨´«¸Ð /
//                          Æ÷Êý¾Ý\Projects\zstack\Samples\SampleApp\CC2530DB /
//                          \..\..\..\..\..\COMPONENTS\HARDWARE\ -Ohz         /
//    List file          =  E:\aiotcode-master\¶àÍøÈÚºÏÊµÑé×°ÖÃ\2.»ùÓÚÎÞÏß´«¸ /
//                          ÐÍøÂçµÄÊµÑé\3.2ZigBeeµã²¥Í¨ÐÅÊµÑé-ÉÏ±¨´«¸ÐÆ÷Êý¾Ý\ /
//                          Projects\zstack\Samples\SampleApp\CC2530DB\Coordi /
//                          natorEB\List\led_mode.s51                         /
//                                                                            /
//                                                                            /
///////////////////////////////////////////////////////////////////////////////

        NAME led_mode

        RTMODEL "__SystemLibrary", "CLib"
        RTMODEL "__calling_convention", "xdata_reentrant"
        RTMODEL "__code_model", "banked"
        RTMODEL "__core", "plain"
        RTMODEL "__data_model", "large"
        RTMODEL "__dptr_size", "16"
        RTMODEL "__extended_stack", "disabled"
        RTMODEL "__location_for_constants", "data"
        RTMODEL "__number_of_dptrs", "1"
        RTMODEL "__rt_version", "1"

        RSEG DOVERLAY:DATA:NOROOT(0)
        RSEG IOVERLAY:IDATA:NOROOT(0)
        RSEG ISTACK:IDATA:NOROOT(0)
        RSEG PSTACK:XDATA:NOROOT(0)
        RSEG XSTACK:XDATA:NOROOT(0)

        EXTERN ?BDISPATCH
        EXTERN ?BRET

        PUBLIC ??Key_ReadS4?relay
        FUNCTION ??Key_ReadS4?relay,0203H
        PUBLIC ??Led2_Off?relay
        FUNCTION ??Led2_Off?relay,0203H
        PUBLIC ??Led2_On?relay
        FUNCTION ??Led2_On?relay,0203H
        PUBLIC ??LedMode_Init?relay
        FUNCTION ??LedMode_Init?relay,0203H
        PUBLIC Key_ReadS4
        FUNCTION Key_ReadS4,0203H
        ARGFRAME XSTACK, 0, STACK
        PUBLIC Led2_Off
        FUNCTION Led2_Off,0203H
        ARGFRAME XSTACK, 0, STACK
        PUBLIC Led2_On
        FUNCTION Led2_On,0203H
        ARGFRAME XSTACK, 0, STACK
        PUBLIC LedMode_Init
        FUNCTION LedMode_Init,0203H
        ARGFRAME XSTACK, 0, STACK
        PUBWEAK P1DIR
        PUBWEAK P1INP
        PUBWEAK P1SEL
        PUBWEAK _A_P1
        
        CFI Names cfiNames0
        CFI StackFrame CFA_SP SP IDATA
        CFI StackFrame CFA_PSP16 PSP16 XDATA
        CFI StackFrame CFA_XSP16 XSP16 XDATA
        CFI StaticOverlayFrame CFA_IOVERLAY IOVERLAY
        CFI StaticOverlayFrame CFA_DOVERLAY DOVERLAY
        CFI Resource `PSW.CY`:1, `B.BR0`:1, `B.BR1`:1, `B.BR2`:1, `B.BR3`:1
        CFI Resource `B.BR4`:1, `B.BR5`:1, `B.BR6`:1, `B.BR7`:1, `VB.BR8`:1
        CFI Resource `VB.BR9`:1, `VB.BR10`:1, `VB.BR11`:1, `VB.BR12`:1
        CFI Resource `VB.BR13`:1, `VB.BR14`:1, `VB.BR15`:1, VB:8, B:8, A:8
        CFI Resource PSW:8, DPL0:8, DPH0:8, R0:8, R1:8, R2:8, R3:8, R4:8, R5:8
        CFI Resource R6:8, R7:8, V0:8, V1:8, V2:8, V3:8, V4:8, V5:8, V6:8, V7:8
        CFI Resource V8:8, V9:8, V10:8, V11:8, V12:8, V13:8, V14:8, V15:8, SP:8
        CFI Resource PSPH:8, PSPL:8, PSP16:16, XSPH:8, XSPL:8, XSP16:16
        CFI VirtualResource ?RET:24
        CFI Resource ?BRET_EXT:8
        CFI VirtualResource ?RET_HIGH:8, ?RET_LOW:8
        CFI ResourceParts PSP16 PSPH, PSPL
        CFI ResourceParts XSP16 XSPH, XSPL
        CFI ResourceParts ?RET ?BRET_EXT, ?RET_HIGH, ?RET_LOW
        CFI EndNames cfiNames0
        
        CFI Common cfiCommon0 Using cfiNames0
        CFI CodeAlign 1
        CFI DataAlign -1
        CFI ReturnAddress ?RET CODE
        CFI CFA_DOVERLAY Used
        CFI CFA_IOVERLAY Used
        CFI CFA_SP SP+-3
        CFI CFA_PSP16 PSP16+0
        CFI CFA_XSP16 XSP16+0
        CFI `PSW.CY` SameValue
        CFI `B.BR0` SameValue
        CFI `B.BR1` SameValue
        CFI `B.BR2` SameValue
        CFI `B.BR3` SameValue
        CFI `B.BR4` SameValue
        CFI `B.BR5` SameValue
        CFI `B.BR6` SameValue
        CFI `B.BR7` SameValue
        CFI `VB.BR8` SameValue
        CFI `VB.BR9` SameValue
        CFI `VB.BR10` SameValue
        CFI `VB.BR11` SameValue
        CFI `VB.BR12` SameValue
        CFI `VB.BR13` SameValue
        CFI `VB.BR14` SameValue
        CFI `VB.BR15` SameValue
        CFI VB SameValue
        CFI B Undefined
        CFI A Undefined
        CFI PSW SameValue
        CFI DPL0 SameValue
        CFI DPH0 SameValue
        CFI R0 Undefined
        CFI R1 Undefined
        CFI R2 Undefined
        CFI R3 Undefined
        CFI R4 Undefined
        CFI R5 Undefined
        CFI R6 SameValue
        CFI R7 SameValue
        CFI V0 SameValue
        CFI V1 SameValue
        CFI V2 SameValue
        CFI V3 SameValue
        CFI V4 SameValue
        CFI V5 SameValue
        CFI V6 SameValue
        CFI V7 SameValue
        CFI V8 SameValue
        CFI V9 SameValue
        CFI V10 SameValue
        CFI V11 SameValue
        CFI V12 SameValue
        CFI V13 SameValue
        CFI V14 SameValue
        CFI V15 SameValue
        CFI PSPH Undefined
        CFI PSPL Undefined
        CFI XSPH Undefined
        CFI XSPL Undefined
        CFI ?RET Concat
        CFI ?BRET_EXT Frame(CFA_SP, 3)
        CFI ?RET_HIGH Frame(CFA_SP, 2)
        CFI ?RET_LOW Frame(CFA_SP, 1)
        CFI EndCommon cfiCommon0
        
Key_ReadS4          SYMBOL "Key_ReadS4"
??Key_ReadS4?relay  SYMBOL "?relay", Key_ReadS4
Led2_Off            SYMBOL "Led2_Off"
??Led2_Off?relay    SYMBOL "?relay", Led2_Off
Led2_On             SYMBOL "Led2_On"
??Led2_On?relay     SYMBOL "?relay", Led2_On
LedMode_Init        SYMBOL "LedMode_Init"
??LedMode_Init?relay SYMBOL "?relay", LedMode_Init

// E:\aiotcode-master\¶àÍøÈÚºÏÊµÑé×°ÖÃ\2.»ùÓÚÎÞÏß´«¸ÐÍøÂçµÄÊµÑé\3.2ZigBeeµã²¥Í¨ÐÅÊµÑé-ÉÏ±¨´«¸ÐÆ÷Êý¾Ý\Components\HARDWARE\led_mode.c
//    1 #include "led_mode.h"

        ASEGN SFR_AN:DATA:NOROOT,090H
// union <unnamed> volatile __sfr _A_P1
_A_P1:
        DATA8
        DS 1

        ASEGN SFR_AN:DATA:NOROOT,0f4H
// unsigned char volatile __sfr P1SEL
P1SEL:
        DATA8
        DS 1

        ASEGN SFR_AN:DATA:NOROOT,0f6H
// unsigned char volatile __sfr P1INP
P1INP:
        DATA8
        DS 1

        ASEGN SFR_AN:DATA:NOROOT,0feH
// unsigned char volatile __sfr P1DIR
P1DIR:
        DATA8
        DS 1
//    2 /*
//    3 ³õÊ¼»¯LEDÄ£¿éÉÏµÄS4->P1.6°´¼ü£¬LED2->P1.2°´¼üµÄIO´®¿Ú¿Ú
//    4 */

        RSEG BANKED_CODE:CODE:NOROOT(0)
//    5 void LedMode_Init(void)
LedMode_Init:
        CFI Block cfiBlock0 Using cfiCommon0
        CFI Function LedMode_Init
        CODE
//    6 {
        ; Saved register size: 0
        ; Auto size: 0
//    7     //LEDµÆIO¿Ú³õÊ¼»¯
//    8     P1SEL &= ~BV(2);     //ÉèÖÃP1.2ÎªÆÕÍ¨IO¿Ú  
        ANL     0xf4,#0xfb
//    9     P1DIR |= BV(2);      //P1.2¶¨ÒåÎªÊä³ö
        ORL     0xfe,#0x4
//   10 
//   11     //°´¼üIO¿Ú³õÊ¼»¯    
//   12     P1SEL &= ~BV(6);     //ÉèÖÃP1.6ÎªÆÕÍ¨IO¿Ú  
        ANL     0xf4,#0xbf
//   13     P1DIR &= ~BV(6);      //P1.6¶¨ÒåÎªÊäÈë 
        ANL     0xfe,#0xbf
//   14     P1INP &= ~BV(6);     //´ò¿ªP1.6ÉÏÀ­µç×è
        ANL     0xf6,#0xbf
//   15 }
        LJMP    ?BRET
        CFI EndBlock cfiBlock0
        REQUIRE P1SEL
        REQUIRE P1DIR
        REQUIRE P1INP
//   16 /*
//   17 LEDÄ£¿éÉÏLED2µãÁÁ
//   18 */

        RSEG BANKED_CODE:CODE:NOROOT(0)
//   19 void Led2_On(void)   
Led2_On:
        CFI Block cfiBlock1 Using cfiCommon0
        CFI Function Led2_On
        CODE
//   20 {
        ; Saved register size: 0
        ; Auto size: 0
//   21   P1_2 = 0;
        CLR     0x90.2
//   22 }
        LJMP    ?BRET
        CFI EndBlock cfiBlock1
        REQUIRE _A_P1
//   23 /*
//   24 LEDÄ£¿éÉÏLED2Ï¨Ãð
//   25 */

        RSEG BANKED_CODE:CODE:NOROOT(0)
//   26 void Led2_Off(void)  
Led2_Off:
        CFI Block cfiBlock2 Using cfiCommon0
        CFI Function Led2_Off
        CODE
//   27 {
        ; Saved register size: 0
        ; Auto size: 0
//   28   P1_2 = 1;
        SETB    0x90.2
//   29 }
        LJMP    ?BRET
        CFI EndBlock cfiBlock2
        REQUIRE _A_P1
//   30 /*
//   31 ¶ÁLEDÄ£¿éÉÏµÄ°´¼üS4
//   32 */

        RSEG BANKED_CODE:CODE:NOROOT(0)
//   33 uint8 Key_ReadS4(void)
Key_ReadS4:
        CFI Block cfiBlock3 Using cfiCommon0
        CFI Function Key_ReadS4
        CODE
//   34 {
        ; Saved register size: 0
        ; Auto size: 0
//   35   return P1_6?KEY_RELASE:KEY_PRESS;
        MOV     C,0x90.6
        CLR     A
        RLC     A
        MOV     R1,A
        LJMP    ?BRET
        CFI EndBlock cfiBlock3
        REQUIRE _A_P1
//   36 }

        RSEG BANK_RELAYS:CODE:REORDER:NOROOT(0)
??LedMode_Init?relay:
        LCALL   ?BDISPATCH
        DATA
        DC24    LedMode_Init

        RSEG BANK_RELAYS:CODE:REORDER:NOROOT(0)
??Led2_On?relay:
        LCALL   ?BDISPATCH
        DATA
        DC24    Led2_On

        RSEG BANK_RELAYS:CODE:REORDER:NOROOT(0)
??Led2_Off?relay:
        LCALL   ?BDISPATCH
        DATA
        DC24    Led2_Off

        RSEG BANK_RELAYS:CODE:REORDER:NOROOT(0)
??Key_ReadS4?relay:
        LCALL   ?BDISPATCH
        DATA
        DC24    Key_ReadS4

        END
// 
// 36 bytes in segment BANKED_CODE
// 24 bytes in segment BANK_RELAYS
//  4 bytes in segment SFR_AN
// 
// 60 bytes of CODE memory
//  0 bytes of DATA memory (+ 4 bytes shared)
//
//Errors: none
//Warnings: none
