///////////////////////////////////////////////////////////////////////////////
//                                                                            /
// IAR C/C++ Compiler V8.10.3.10338/W32 for 8051        28/Feb/2019  12:12:06 /
// Copyright 2004-2011 IAR Systems AB.                                        /
//                                                                            /
//    Core               =  plain                                             /
//    Code model         =  banked                                            /
//    Data model         =  large                                             /
//    Calling convention =  xdata reentrant                                   /
//    Constant location  =  data_rom                                          /
//    Dptr setup         =  1,16                                              /
//    Source file        =  D:\ZigBee\KJXY-ZigBee\KJXY-ZigBeeV2.0\exp2-point2 /
//                          point-interactive\Components\HARDWARE\_bind.c     /
//    Command line       =  -f D:\ZigBee\KJXY-ZigBee\KJXY-ZigBeeV2.0\exp2-poi /
//                          nt2point-interactive\Projects\zstack\Samples\Samp /
//                          leApp\CC2530DB\..\..\..\Tools\CC2530DB\f8wCoord.c /
//                          fg (-DCPU32MHZ -DROOT=__near_func                 /
//                          -DMAC_CFG_APP_PENDING_QUEUE=TRUE                  /
//                          -DZDO_COORDINATOR -DRTR_NWK -DBLINK_LEDS) -f      /
//                          D:\ZigBee\KJXY-ZigBee\KJXY-ZigBeeV2.0\exp2-point2 /
//                          point-interactive\Projects\zstack\Samples\SampleA /
//                          pp\CC2530DB\..\..\..\Tools\CC2530DB\f8wConfig.cfg /
//                           (-DSECURE=0 -DZG_SECURE_DYNAMIC=0 -DREFLECTOR    /
//                          -DDEFAULT_CHANLIST=0x00000800                     /
//                          -DZDAPP_CONFIG_PAN_ID=0xFF11                      /
//                          -DNWK_START_DELAY=100 -DEXTENDED_JOINING_RANDOM_M /
//                          ASK=0x007F -DBEACON_REQUEST_DELAY=100             /
//                          -DBEACON_REQ_DELAY_MASK=0x00FF                    /
//                          -DROUTE_EXPIRY_TIME=30 -DAPSC_ACK_WAIT_DURATION_P /
//                          OLLED=3000 -DNWK_INDIRECT_MSG_TIMEOUT=7           /
//                          -DMAX_RREQ_ENTRIES=8 -DAPSC_MAX_FRAME_RETRIES=3   /
//                          -DNWK_MAX_DATA_RETRIES=2                          /
//                          -DMAX_POLL_FAILURE_RETRIES=2 -DMAX_BCAST=9        /
//                          -DAPS_MAX_GROUPS=16 -DMAX_RTG_ENTRIES=40          /
//                          -DNWK_MAX_BINDING_ENTRIES=4                       /
//                          -DMAX_BINDING_CLUSTER_IDS=4                       /
//                          "-DDEFAULT_KEY={0x01, 0x03, 0x05, 0x07, 0x09,     /
//                          0x0B, 0x0D, 0x0F, 0x00, 0x02, 0x04, 0x06, 0x08,   /
//                          0x0A, 0x0C, 0x0D}" -DMAC_MAX_FRAME_SIZE=116       /
//                          "-DCONST=const __code" -DGENERIC=__generic        /
//                          -DRFD_RCVC_ALWAYS_ON=FALSE -DPOLL_RATE=1000       /
//                          -DQUEUED_POLL_RATE=100 -DRESPONSE_POLL_RATE=100)  /
//                          -DREJOIN_POLL_RATE=440 D:\ZigBee\KJXY-ZigBee\KJXY /
//                          -ZigBeeV2.0\exp2-point2point-interactive\Componen /
//                          ts\HARDWARE\_bind.c -D ZIGBEEPRO -D ZTOOL_P1 -D   /
//                          MT_SYS_FUNC -D xMT_ZDO_FUNC -D                    /
//                          LCD_SUPPORTED=DEBUG -D NV_RESTORE -lC             /
//                          D:\ZigBee\KJXY-ZigBee\KJXY-ZigBeeV2.0\exp2-point2 /
//                          point-interactive\Projects\zstack\Samples\SampleA /
//                          pp\CC2530DB\CoordinatorEB\List\ -lA               /
//                          D:\ZigBee\KJXY-ZigBee\KJXY-ZigBeeV2.0\exp2-point2 /
//                          point-interactive\Projects\zstack\Samples\SampleA /
//                          pp\CC2530DB\CoordinatorEB\List\ --diag_suppress   /
//                          Pe001,Pa010 -o D:\ZigBee\KJXY-ZigBee\KJXY-ZigBeeV /
//                          2.0\exp2-point2point-interactive\Projects\zstack\ /
//                          Samples\SampleApp\CC2530DB\CoordinatorEB\Obj\ -e  /
//                          --debug --core=plain --dptr=16,1                  /
//                          --data_model=large --code_model=banked            /
//                          --calling_convention=xdata_reentrant              /
//                          --place_constants=data_rom --nr_virtual_regs 16   /
//                          -I D:\ZigBee\KJXY-ZigBee\KJXY-ZigBeeV2.0\exp2-poi /
//                          nt2point-interactive\Projects\zstack\Samples\Samp /
//                          leApp\CC2530DB\ -I D:\ZigBee\KJXY-ZigBee\KJXY-Zig /
//                          BeeV2.0\exp2-point2point-interactive\Projects\zst /
//                          ack\Samples\SampleApp\CC2530DB\..\SOURCE\ -I      /
//                          D:\ZigBee\KJXY-ZigBee\KJXY-ZigBeeV2.0\exp2-point2 /
//                          point-interactive\Projects\zstack\Samples\SampleA /
//                          pp\CC2530DB\..\..\..\ZMAIN\TI2530DB\ -I           /
//                          D:\ZigBee\KJXY-ZigBee\KJXY-ZigBeeV2.0\exp2-point2 /
//                          point-interactive\Projects\zstack\Samples\SampleA /
//                          pp\CC2530DB\..\..\..\..\..\COMPONENTS\MT\ -I      /
//                          D:\ZigBee\KJXY-ZigBee\KJXY-ZigBeeV2.0\exp2-point2 /
//                          point-interactive\Projects\zstack\Samples\SampleA /
//                          pp\CC2530DB\..\..\..\..\..\COMPONENTS\HAL\INCLUDE /
//                          \ -I D:\ZigBee\KJXY-ZigBee\KJXY-ZigBeeV2.0\exp2-p /
//                          oint2point-interactive\Projects\zstack\Samples\Sa /
//                          mpleApp\CC2530DB\..\..\..\..\..\COMPONENTS\HAL\TA /
//                          RGET\CC2530EB\ -I D:\ZigBee\KJXY-ZigBee\KJXY-ZigB /
//                          eeV2.0\exp2-point2point-interactive\Projects\zsta /
//                          ck\Samples\SampleApp\CC2530DB\..\..\..\..\..\COMP /
//                          ONENTS\OSAL\MCU\CCSOC\ -I                         /
//                          D:\ZigBee\KJXY-ZigBee\KJXY-ZigBeeV2.0\exp2-point2 /
//                          point-interactive\Projects\zstack\Samples\SampleA /
//                          pp\CC2530DB\..\..\..\..\..\COMPONENTS\OSAL\INCLUD /
//                          E\ -I D:\ZigBee\KJXY-ZigBee\KJXY-ZigBeeV2.0\exp2- /
//                          point2point-interactive\Projects\zstack\Samples\S /
//                          ampleApp\CC2530DB\..\..\..\..\..\COMPONENTS\STACK /
//                          \AF\ -I D:\ZigBee\KJXY-ZigBee\KJXY-ZigBeeV2.0\exp /
//                          2-point2point-interactive\Projects\zstack\Samples /
//                          \SampleApp\CC2530DB\..\..\..\..\..\COMPONENTS\STA /
//                          CK\NWK\ -I D:\ZigBee\KJXY-ZigBee\KJXY-ZigBeeV2.0\ /
//                          exp2-point2point-interactive\Projects\zstack\Samp /
//                          les\SampleApp\CC2530DB\..\..\..\..\..\COMPONENTS\ /
//                          STACK\SEC\ -I D:\ZigBee\KJXY-ZigBee\KJXY-ZigBeeV2 /
//                          .0\exp2-point2point-interactive\Projects\zstack\S /
//                          amples\SampleApp\CC2530DB\..\..\..\..\..\COMPONEN /
//                          TS\STACK\SAPI\ -I D:\ZigBee\KJXY-ZigBee\KJXY-ZigB /
//                          eeV2.0\exp2-point2point-interactive\Projects\zsta /
//                          ck\Samples\SampleApp\CC2530DB\..\..\..\..\..\COMP /
//                          ONENTS\STACK\SYS\ -I D:\ZigBee\KJXY-ZigBee\KJXY-Z /
//                          igBeeV2.0\exp2-point2point-interactive\Projects\z /
//                          stack\Samples\SampleApp\CC2530DB\..\..\..\..\..\C /
//                          OMPONENTS\STACK\ZDO\ -I                           /
//                          D:\ZigBee\KJXY-ZigBee\KJXY-ZigBeeV2.0\exp2-point2 /
//                          point-interactive\Projects\zstack\Samples\SampleA /
//                          pp\CC2530DB\..\..\..\..\..\COMPONENTS\ZMAC\F8W\   /
//                          -I D:\ZigBee\KJXY-ZigBee\KJXY-ZigBeeV2.0\exp2-poi /
//                          nt2point-interactive\Projects\zstack\Samples\Samp /
//                          leApp\CC2530DB\..\..\..\..\..\COMPONENTS\ZMAC\    /
//                          -I D:\ZigBee\KJXY-ZigBee\KJXY-ZigBeeV2.0\exp2-poi /
//                          nt2point-interactive\Projects\zstack\Samples\Samp /
//                          leApp\CC2530DB\..\..\..\..\..\COMPONENTS\SERVICES /
//                          \SADDR\ -I D:\ZigBee\KJXY-ZigBee\KJXY-ZigBeeV2.0\ /
//                          exp2-point2point-interactive\Projects\zstack\Samp /
//                          les\SampleApp\CC2530DB\..\..\..\..\..\COMPONENTS\ /
//                          SERVICES\SDATA\ -I D:\ZigBee\KJXY-ZigBee\KJXY-Zig /
//                          BeeV2.0\exp2-point2point-interactive\Projects\zst /
//                          ack\Samples\SampleApp\CC2530DB\..\..\..\..\..\COM /
//                          PONENTS\MAC\INCLUDE\ -I                           /
//                          D:\ZigBee\KJXY-ZigBee\KJXY-ZigBeeV2.0\exp2-point2 /
//                          point-interactive\Projects\zstack\Samples\SampleA /
//                          pp\CC2530DB\..\..\..\..\..\COMPONENTS\MAC\HIGH_LE /
//                          VEL\ -I D:\ZigBee\KJXY-ZigBee\KJXY-ZigBeeV2.0\exp /
//                          2-point2point-interactive\Projects\zstack\Samples /
//                          \SampleApp\CC2530DB\..\..\..\..\..\COMPONENTS\MAC /
//                          \LOW_LEVEL\srf04\ -I D:\ZigBee\KJXY-ZigBee\KJXY-Z /
//                          igBeeV2.0\exp2-point2point-interactive\Projects\z /
//                          stack\Samples\SampleApp\CC2530DB\..\..\..\..\..\C /
//                          OMPONENTS\MAC\LOW_LEVEL\srf04\SINGLE_CHIP\ -I     /
//                          D:\ZigBee\KJXY-ZigBee\KJXY-ZigBeeV2.0\exp2-point2 /
//                          point-interactive\Projects\zstack\Samples\SampleA /
//                          pp\CC2530DB\..\..\..\..\..\COMPONENTS\HARDWARE\   /
//                          -Ohz                                              /
//    List file          =  D:\ZigBee\KJXY-ZigBee\KJXY-ZigBeeV2.0\exp2-point2 /
//                          point-interactive\Projects\zstack\Samples\SampleA /
//                          pp\CC2530DB\CoordinatorEB\List\_bind.s51          /
//                                                                            /
//                                                                            /
///////////////////////////////////////////////////////////////////////////////

        NAME _bind

        RTMODEL "__SystemLibrary", "CLib"
        RTMODEL "__calling_convention", "xdata_reentrant"
        RTMODEL "__code_model", "banked"
        RTMODEL "__core", "plain"
        RTMODEL "__data_model", "large"
        RTMODEL "__dptr_size", "16"
        RTMODEL "__extended_stack", "disabled"
        RTMODEL "__location_for_constants", "data"
        RTMODEL "__number_of_dptrs", "1"
        RTMODEL "__rt_version", "1"

        RSEG DOVERLAY:DATA:NOROOT(0)
        RSEG IOVERLAY:IDATA:NOROOT(0)
        RSEG ISTACK:IDATA:NOROOT(0)
        RSEG PSTACK:XDATA:NOROOT(0)
        RSEG XSTACK:XDATA:NOROOT(0)

        EXTERN ?BANKED_ENTER_XDATA
        EXTERN ?BANKED_LEAVE_XDATA
        EXTERN ?BDISPATCH
        EXTERN ?DEALLOC_XSTACK8
        EXTERN ?PUSH_XSTACK_I_ONE
        EXTERN ?PUSH_XSTACK_I_TWO
        EXTERN ?S_SHL
        EXTERN ?V0

        PUBLIC ??ResponeBind?relay
        FUNCTION ??ResponeBind?relay,0203H
        PUBLIC ??StartBind?relay
        FUNCTION ??StartBind?relay,0203H
        PUBLIC ResponeBind
        FUNCTION ResponeBind,021203H
        ARGFRAME XSTACK, 0, STACK
        LOCFRAME XSTACK, 21, STACK
        PUBLIC StartBind
        FUNCTION StartBind,021203H
        ARGFRAME XSTACK, 0, STACK
        LOCFRAME XSTACK, 19, STACK
        
        CFI Names cfiNames0
        CFI StackFrame CFA_SP SP IDATA
        CFI StackFrame CFA_PSP16 PSP16 XDATA
        CFI StackFrame CFA_XSP16 XSP16 XDATA
        CFI StaticOverlayFrame CFA_IOVERLAY IOVERLAY
        CFI StaticOverlayFrame CFA_DOVERLAY DOVERLAY
        CFI Resource `PSW.CY`:1, `B.BR0`:1, `B.BR1`:1, `B.BR2`:1, `B.BR3`:1
        CFI Resource `B.BR4`:1, `B.BR5`:1, `B.BR6`:1, `B.BR7`:1, `VB.BR8`:1
        CFI Resource `VB.BR9`:1, `VB.BR10`:1, `VB.BR11`:1, `VB.BR12`:1
        CFI Resource `VB.BR13`:1, `VB.BR14`:1, `VB.BR15`:1, VB:8, B:8, A:8
        CFI Resource PSW:8, DPL0:8, DPH0:8, R0:8, R1:8, R2:8, R3:8, R4:8, R5:8
        CFI Resource R6:8, R7:8, V0:8, V1:8, V2:8, V3:8, V4:8, V5:8, V6:8, V7:8
        CFI Resource V8:8, V9:8, V10:8, V11:8, V12:8, V13:8, V14:8, V15:8, SP:8
        CFI Resource PSPH:8, PSPL:8, PSP16:16, XSPH:8, XSPL:8, XSP16:16
        CFI VirtualResource ?RET:24
        CFI Resource ?BRET_EXT:8
        CFI VirtualResource ?RET_HIGH:8, ?RET_LOW:8
        CFI ResourceParts PSP16 PSPH, PSPL
        CFI ResourceParts XSP16 XSPH, XSPL
        CFI ResourceParts ?RET ?BRET_EXT, ?RET_HIGH, ?RET_LOW
        CFI EndNames cfiNames0
        
        CFI Common cfiCommon0 Using cfiNames0
        CFI CodeAlign 1
        CFI DataAlign -1
        CFI ReturnAddress ?RET CODE
        CFI CFA_DOVERLAY Used
        CFI CFA_IOVERLAY Used
        CFI CFA_SP SP+-3
        CFI CFA_PSP16 PSP16+0
        CFI CFA_XSP16 XSP16+0
        CFI `PSW.CY` SameValue
        CFI `B.BR0` SameValue
        CFI `B.BR1` SameValue
        CFI `B.BR2` SameValue
        CFI `B.BR3` SameValue
        CFI `B.BR4` SameValue
        CFI `B.BR5` SameValue
        CFI `B.BR6` SameValue
        CFI `B.BR7` SameValue
        CFI `VB.BR8` SameValue
        CFI `VB.BR9` SameValue
        CFI `VB.BR10` SameValue
        CFI `VB.BR11` SameValue
        CFI `VB.BR12` SameValue
        CFI `VB.BR13` SameValue
        CFI `VB.BR14` SameValue
        CFI `VB.BR15` SameValue
        CFI VB SameValue
        CFI B Undefined
        CFI A Undefined
        CFI PSW SameValue
        CFI DPL0 SameValue
        CFI DPH0 SameValue
        CFI R0 Undefined
        CFI R1 Undefined
        CFI R2 Undefined
        CFI R3 Undefined
        CFI R4 Undefined
        CFI R5 Undefined
        CFI R6 SameValue
        CFI R7 SameValue
        CFI V0 SameValue
        CFI V1 SameValue
        CFI V2 SameValue
        CFI V3 SameValue
        CFI V4 SameValue
        CFI V5 SameValue
        CFI V6 SameValue
        CFI V7 SameValue
        CFI V8 SameValue
        CFI V9 SameValue
        CFI V10 SameValue
        CFI V11 SameValue
        CFI V12 SameValue
        CFI V13 SameValue
        CFI V14 SameValue
        CFI V15 SameValue
        CFI PSPH Undefined
        CFI PSPL Undefined
        CFI XSPH Undefined
        CFI XSPL Undefined
        CFI ?RET Concat
        CFI ?BRET_EXT Frame(CFA_SP, 3)
        CFI ?RET_HIGH Frame(CFA_SP, 2)
        CFI ?RET_LOW Frame(CFA_SP, 1)
        CFI EndCommon cfiCommon0
        
AF_DataRequest      SYMBOL "AF_DataRequest"
printf              SYMBOL "printf"
??AF_DataRequest?relay SYMBOL "?relay", AF_DataRequest
??printf?relay      SYMBOL "?relay", printf
ResponeBind         SYMBOL "ResponeBind"
??ResponeBind?relay SYMBOL "?relay", ResponeBind
StartBind           SYMBOL "StartBind"
??StartBind?relay   SYMBOL "?relay", StartBind

        EXTERN AF_DataRequest
        FUNCTION AF_DataRequest,0202H
        ARGFRAME ISTACK, 0, STACK
        ARGFRAME PSTACK, 0, STACK
        ARGFRAME XSTACK, 21, STACK
        ARGFRAME IOVERLAY, 0, STATIC
        ARGFRAME DOVERLAY, 0, STATIC
        EXTERN printf
        FUNCTION printf,0202H
        ARGFRAME ISTACK, 0, STACK
        ARGFRAME PSTACK, 0, STACK
        ARGFRAME XSTACK, 12, STACK
        ARGFRAME IOVERLAY, 0, STATIC
        ARGFRAME DOVERLAY, 0, STATIC
        EXTERN ??AF_DataRequest?relay
        FUNCTION ??AF_DataRequest?relay,00H
        EXTERN ??printf?relay
        FUNCTION ??printf?relay,00H
        EXTERN Boardcast_DstAddr
        EXTERN Coordinator_epDesc
        EXTERN EndDevice_epDesc
        EXTERN SampleApp_TransID

// D:\ZigBee\KJXY-ZigBee\KJXY-ZigBeeV2.0\exp2-point2point-interactive\Components\HARDWARE\_bind.c
//    1 #include "_bind.h"
//    2 /*
//    3 启动邦定注要，都输出方去申请绑定
//    4 */

        RSEG BANKED_CODE:CODE:NOROOT(0)
//    5 void StartBind(uint8 NumOfId,const cId_t *pId )
StartBind:
        CFI Block cfiBlock0 Using cfiCommon0
        CFI Function StartBind
        CODE
//    6 {
        FUNCALL StartBind, AF_DataRequest
        LOCFRAME ISTACK, 0, STACK
        LOCFRAME PSTACK, 0, STACK
        LOCFRAME XSTACK, 19, STACK
        LOCFRAME IOVERLAY, 0, STATIC
        LOCFRAME DOVERLAY, 0, STATIC
        ARGFRAME ISTACK, 0, STACK
        ARGFRAME PSTACK, 0, STACK
        ARGFRAME XSTACK, 19, STACK
        ARGFRAME IOVERLAY, 0, STATIC
        ARGFRAME DOVERLAY, 0, STATIC
        FUNCALL StartBind, printf
        LOCFRAME ISTACK, 0, STACK
        LOCFRAME PSTACK, 0, STACK
        LOCFRAME XSTACK, 10, STACK
        LOCFRAME IOVERLAY, 0, STATIC
        LOCFRAME DOVERLAY, 0, STATIC
        ARGFRAME ISTACK, 0, STACK
        ARGFRAME PSTACK, 0, STACK
        ARGFRAME XSTACK, 10, STACK
        ARGFRAME IOVERLAY, 0, STATIC
        ARGFRAME DOVERLAY, 0, STATIC
        MOV     A,#-0xa
        LCALL   ?BANKED_ENTER_XDATA
        CFI DPH0 load(1, XDATA, add(CFA_XSP16, literal(-1)))
        CFI DPL0 load(1, XDATA, add(CFA_XSP16, literal(-2)))
        CFI ?BRET_EXT load(1, XDATA, add(CFA_XSP16, literal(-3)))
        CFI ?RET_HIGH load(1, XDATA, add(CFA_XSP16, literal(-4)))
        CFI ?RET_LOW load(1, XDATA, add(CFA_XSP16, literal(-5)))
        CFI R7 load(1, XDATA, add(CFA_XSP16, literal(-6)))
        CFI V1 load(1, XDATA, add(CFA_XSP16, literal(-7)))
        CFI V0 load(1, XDATA, add(CFA_XSP16, literal(-8)))
        CFI VB load(1, XDATA, add(CFA_XSP16, literal(-9)))
        CFI R6 load(1, XDATA, add(CFA_XSP16, literal(-10)))
        CFI CFA_SP SP+0
        CFI CFA_XSP16 add(XSP16, 10)
        ; Saved register size: 10
        ; Auto size: 0
        MOV     A,R1
        MOV     R6,A
//    7   if ( AF_DataRequest( &Boardcast_DstAddr,
//    8                        &Coordinator_epDesc,
//    9                        BIND_REQUEST_CMD_ID,
//   10                        NumOfId*2,
//   11                        (uint8*)pId,
//   12                        &SampleApp_TransID,
//   13                        AF_DISCV_ROUTE,
//   14                        AF_DEFAULT_RADIUS ) == afStatus_SUCCESS )
        ; Setup parameters for call to function AF_DataRequest
        MOV     ?V0 + 0,#0x1e
        MOV     R0,#?V0 + 0
        LCALL   ?PUSH_XSTACK_I_ONE
        CFI CFA_XSP16 add(XSP16, 11)
        MOV     ?V0 + 0,#SampleApp_TransID & 0xff
        MOV     ?V0 + 1,#(SampleApp_TransID >> 8) & 0xff
        MOV     R0,#?V0 + 0
        LCALL   ?PUSH_XSTACK_I_TWO
        CFI CFA_XSP16 add(XSP16, 13)
        MOV     ?V0 + 0,R2
        MOV     ?V0 + 1,R3
        MOV     R0,#?V0 + 0
        LCALL   ?PUSH_XSTACK_I_TWO
        CFI CFA_XSP16 add(XSP16, 15)
        MOV     ?V0 + 0,R6
        MOV     ?V0 + 1,#0x0
        MOV     A,#0x1
        MOV     R0,#?V0 + 0
        LCALL   ?S_SHL
        MOV     R0,#?V0 + 0
        LCALL   ?PUSH_XSTACK_I_TWO
        CFI CFA_XSP16 add(XSP16, 17)
        MOV     ?V0 + 0,#0x40
        MOV     ?V0 + 1,#0x0
        MOV     R0,#?V0 + 0
        LCALL   ?PUSH_XSTACK_I_TWO
        CFI CFA_XSP16 add(XSP16, 19)
        MOV     R1,#0x20
        MOV     R4,#Coordinator_epDesc & 0xff
        MOV     R5,#(Coordinator_epDesc >> 8) & 0xff
        MOV     R2,#Boardcast_DstAddr & 0xff
        MOV     R3,#(Boardcast_DstAddr >> 8) & 0xff
        LCALL   ??AF_DataRequest?relay
        MOV     A,#0x9
        LCALL   ?DEALLOC_XSTACK8
        CFI CFA_XSP16 add(XSP16, 10)
        MOV     A,R1
        JNZ     ??StartBind_0
//   15   {
//   16     printf("request bind\r\n");//串口打印提示，发送成功
        ; Setup parameters for call to function printf
        MOV     R2,#`?<Constant "request bind\\r\\n">` & 0xff
        MOV     R3,#(`?<Constant "request bind\\r\\n">` >> 8) & 0xff
        LCALL   ??printf?relay
//   17   }  
//   18 }
??StartBind_0:
        MOV     R7,#0x2
        LJMP    ?BANKED_LEAVE_XDATA
        CFI EndBlock cfiBlock0
//   19 /*
//   20 设备反馈绑定请求
//   21 */

        RSEG BANKED_CODE:CODE:NOROOT(0)
//   22 void ResponeBind(uint16 *pId,afAddrType_t *dstAddr)
ResponeBind:
        CFI Block cfiBlock1 Using cfiCommon0
        CFI Function ResponeBind
        CODE
//   23 {
        FUNCALL ResponeBind, AF_DataRequest
        LOCFRAME ISTACK, 0, STACK
        LOCFRAME PSTACK, 0, STACK
        LOCFRAME XSTACK, 21, STACK
        LOCFRAME IOVERLAY, 0, STATIC
        LOCFRAME DOVERLAY, 0, STATIC
        ARGFRAME ISTACK, 0, STACK
        ARGFRAME PSTACK, 0, STACK
        ARGFRAME XSTACK, 21, STACK
        ARGFRAME IOVERLAY, 0, STATIC
        ARGFRAME DOVERLAY, 0, STATIC
        FUNCALL ResponeBind, printf
        LOCFRAME ISTACK, 0, STACK
        LOCFRAME PSTACK, 0, STACK
        LOCFRAME XSTACK, 12, STACK
        LOCFRAME IOVERLAY, 0, STATIC
        LOCFRAME DOVERLAY, 0, STATIC
        ARGFRAME ISTACK, 0, STACK
        ARGFRAME PSTACK, 0, STACK
        ARGFRAME XSTACK, 12, STACK
        ARGFRAME IOVERLAY, 0, STATIC
        ARGFRAME DOVERLAY, 0, STATIC
        MOV     A,#-0xc
        LCALL   ?BANKED_ENTER_XDATA
        CFI DPH0 load(1, XDATA, add(CFA_XSP16, literal(-1)))
        CFI DPL0 load(1, XDATA, add(CFA_XSP16, literal(-2)))
        CFI ?BRET_EXT load(1, XDATA, add(CFA_XSP16, literal(-3)))
        CFI ?RET_HIGH load(1, XDATA, add(CFA_XSP16, literal(-4)))
        CFI ?RET_LOW load(1, XDATA, add(CFA_XSP16, literal(-5)))
        CFI R7 load(1, XDATA, add(CFA_XSP16, literal(-6)))
        CFI V3 load(1, XDATA, add(CFA_XSP16, literal(-7)))
        CFI V2 load(1, XDATA, add(CFA_XSP16, literal(-8)))
        CFI V1 load(1, XDATA, add(CFA_XSP16, literal(-9)))
        CFI V0 load(1, XDATA, add(CFA_XSP16, literal(-10)))
        CFI VB load(1, XDATA, add(CFA_XSP16, literal(-11)))
        CFI R6 load(1, XDATA, add(CFA_XSP16, literal(-12)))
        CFI CFA_SP SP+0
        CFI CFA_XSP16 add(XSP16, 12)
        ; Saved register size: 12
        ; Auto size: 0
        MOV     ?V0 + 0,R2
        MOV     ?V0 + 1,R3
        MOV     A,R4
        MOV     R2,A
        MOV     A,R5
        MOV     R3,A
//   24   if ( AF_DataRequest( dstAddr,
//   25                        &EndDevice_epDesc,
//   26                        BIND_RSP_CMD_ID,
//   27                        2,
//   28                        (uint8*)pId,
//   29                        &SampleApp_TransID,
//   30                        AF_DISCV_ROUTE,
//   31                        AF_DEFAULT_RADIUS ) == afStatus_SUCCESS )
        ; Setup parameters for call to function AF_DataRequest
        MOV     ?V0 + 2,#0x1e
        MOV     R0,#?V0 + 2
        LCALL   ?PUSH_XSTACK_I_ONE
        CFI CFA_XSP16 add(XSP16, 13)
        MOV     ?V0 + 2,#SampleApp_TransID & 0xff
        MOV     ?V0 + 3,#(SampleApp_TransID >> 8) & 0xff
        MOV     R0,#?V0 + 2
        LCALL   ?PUSH_XSTACK_I_TWO
        CFI CFA_XSP16 add(XSP16, 15)
        MOV     R0,#?V0 + 0
        LCALL   ?PUSH_XSTACK_I_TWO
        CFI CFA_XSP16 add(XSP16, 17)
        MOV     ?V0 + 0,#0x2
        MOV     ?V0 + 1,#0x0
        MOV     R0,#?V0 + 0
        LCALL   ?PUSH_XSTACK_I_TWO
        CFI CFA_XSP16 add(XSP16, 19)
        MOV     ?V0 + 0,#0x41
        MOV     R0,#?V0 + 0
        LCALL   ?PUSH_XSTACK_I_TWO
        CFI CFA_XSP16 add(XSP16, 21)
        MOV     R1,#0x20
        MOV     R4,#EndDevice_epDesc & 0xff
        MOV     R5,#(EndDevice_epDesc >> 8) & 0xff
        LCALL   ??AF_DataRequest?relay
        MOV     A,#0x9
        LCALL   ?DEALLOC_XSTACK8
        CFI CFA_XSP16 add(XSP16, 12)
        MOV     A,R1
        JNZ     ??ResponeBind_0
//   32   {
//   33     printf("response bind\r\n");//串口打印提示，发送成功
        ; Setup parameters for call to function printf
        MOV     R2,#`?<Constant "response bind\\r\\n">` & 0xff
        MOV     R3,#(`?<Constant "response bind\\r\\n">` >> 8) & 0xff
        LCALL   ??printf?relay
//   34   } 
//   35 }
??ResponeBind_0:
        MOV     R7,#0x4
        LJMP    ?BANKED_LEAVE_XDATA
        CFI EndBlock cfiBlock1

        RSEG BANK_RELAYS:CODE:REORDER:NOROOT(0)
??StartBind?relay:
        LCALL   ?BDISPATCH
        DATA
        DC24    StartBind

        RSEG BANK_RELAYS:CODE:REORDER:NOROOT(0)
??ResponeBind?relay:
        LCALL   ?BDISPATCH
        DATA
        DC24    ResponeBind

        RSEG XDATA_ROM_C:CONST:REORDER:NOROOT(0)
        DATA8
`?<Constant "request bind\\r\\n">`:
        DB "request bind\015\012"

        RSEG XDATA_ROM_C:CONST:REORDER:NOROOT(0)
        DATA8
`?<Constant "response bind\\r\\n">`:
        DB "response bind\015\012"

        END
// 
// 181 bytes in segment BANKED_CODE
//  12 bytes in segment BANK_RELAYS
//  31 bytes in segment XDATA_ROM_C
// 
// 193 bytes of CODE  memory
//  31 bytes of CONST memory
//
//Errors: none
//Warnings: none
